
semaphore.elf:     file format elf32-littlearm

Sections:
Idx Name          Size      VMA       LMA       File off  Algn
  0 .boot2        00000100  10000000  10000000  00010000  2**0
                  CONTENTS, ALLOC, LOAD, READONLY, DATA
  1 .text         00008470  10000100  10000100  00010100  2**3
                  CONTENTS, ALLOC, LOAD, READONLY, CODE
  2 .rodata       00000884  10008570  10008570  00018570  2**3
                  CONTENTS, ALLOC, LOAD, READONLY, DATA
  3 .ARM.exidx    00000008  10008df4  10008df4  00018df4  2**2
                  CONTENTS, ALLOC, LOAD, READONLY, DATA
  4 .binary_info  00000024  10008dfc  10008dfc  00018dfc  2**2
                  CONTENTS, ALLOC, LOAD, DATA
  5 .ram_vector_table 000000c0  20000000  20000000  00020bf8  2**2
                  CONTENTS
  6 .data         00000b38  200000c0  10008e20  000200c0  2**4
                  CONTENTS, ALLOC, LOAD, CODE
  7 .uninitialized_data 00000000  20000bf8  20000bf8  00020cb8  2**0
                  CONTENTS
  8 .scratch_x    00000000  20040000  20040000  00020cb8  2**0
                  CONTENTS
  9 .scratch_y    00000000  20041000  20041000  00020cb8  2**0
                  CONTENTS
 10 .bss          0000148c  20000bf8  20000bf8  00020bf8  2**3
                  ALLOC
 11 .heap         00000800  20002084  20002084  00020cb8  2**2
                  CONTENTS, READONLY
 12 .stack1_dummy 00000800  20040000  20040000  000214b8  2**2
                  CONTENTS
 13 .stack_dummy  00000800  20041000  20041000  00021cc0  2**5
                  CONTENTS, READONLY
 14 .ARM.attributes 00000028  00000000  00000000  000224c0  2**0
                  CONTENTS, READONLY
 15 .comment      00000079  00000000  00000000  000224e8  2**0
                  CONTENTS, READONLY
 16 .debug_frame  00000984  00000000  00000000  00022564  2**2
                  CONTENTS, READONLY, DEBUGGING
 17 .stab         0000006c  00000000  00000000  00022ee8  2**2
                  CONTENTS, READONLY, DEBUGGING
 18 .stabstr      0000014f  00000000  00000000  00022f54  2**0
                  CONTENTS, READONLY, DEBUGGING

semaphore.elf:     file format elf32-littlearm


Disassembly of section .text:

10000100 <__reset_start>:
10000100:	4827      	ldr	r0, [pc, #156]	; (100001a0 <__get_current_exception+0xa>)
10000102:	e000      	b.n	10000106 <__vector_entry>

10000104 <_entry_point>:
10000104:	2000      	movs	r0, #0

10000106 <__vector_entry>:
10000106:	4927      	ldr	r1, [pc, #156]	; (100001a4 <__get_current_exception+0xe>)
10000108:	6088      	str	r0, [r1, #8]
1000010a:	c806      	ldmia	r0!, {r1, r2}
1000010c:	f381 8808 	msr	MSP, r1
10000110:	4710      	bx	r2

10000112 <_reset_handler>:
10000112:	4825      	ldr	r0, [pc, #148]	; (100001a8 <__get_current_exception+0x12>)
10000114:	6800      	ldr	r0, [r0, #0]
10000116:	2800      	cmp	r0, #0
10000118:	d139      	bne.n	1000018e <wait_for_vector>
1000011a:	a412      	add	r4, pc, #72	; (adr r4, 10000164 <data_cpy_table>)
1000011c:	cc0e      	ldmia	r4!, {r1, r2, r3}
1000011e:	2900      	cmp	r1, #0
10000120:	d002      	beq.n	10000128 <_reset_handler+0x16>
10000122:	f000 f812 	bl	1000014a <data_cpy>
10000126:	e7f9      	b.n	1000011c <_reset_handler+0xa>
10000128:	4920      	ldr	r1, [pc, #128]	; (100001ac <__get_current_exception+0x16>)
1000012a:	4a21      	ldr	r2, [pc, #132]	; (100001b0 <__get_current_exception+0x1a>)
1000012c:	2000      	movs	r0, #0
1000012e:	e000      	b.n	10000132 <bss_fill_test>

10000130 <bss_fill_loop>:
10000130:	c101      	stmia	r1!, {r0}

10000132 <bss_fill_test>:
10000132:	4291      	cmp	r1, r2
10000134:	d1fc      	bne.n	10000130 <bss_fill_loop>

10000136 <platform_entry>:
10000136:	491f      	ldr	r1, [pc, #124]	; (100001b4 <__get_current_exception+0x1e>)
10000138:	4788      	blx	r1
1000013a:	491f      	ldr	r1, [pc, #124]	; (100001b8 <__get_current_exception+0x22>)
1000013c:	4788      	blx	r1
1000013e:	491f      	ldr	r1, [pc, #124]	; (100001bc <__get_current_exception+0x26>)
10000140:	4788      	blx	r1
10000142:	be00      	bkpt	0x0000
10000144:	e7fd      	b.n	10000142 <platform_entry+0xc>

10000146 <data_cpy_loop>:
10000146:	c901      	ldmia	r1!, {r0}
10000148:	c201      	stmia	r2!, {r0}

1000014a <data_cpy>:
1000014a:	429a      	cmp	r2, r3
1000014c:	d3fb      	bcc.n	10000146 <data_cpy_loop>
1000014e:	4770      	bx	lr

10000150 <binary_info_header>:
10000150:	7188ebf2 	.word	0x7188ebf2
10000154:	10008dfc 	.word	0x10008dfc
10000158:	10008e20 	.word	0x10008e20
1000015c:	10000164 	.word	0x10000164
10000160:	e71aa390 	.word	0xe71aa390

10000164 <data_cpy_table>:
10000164:	10008e20 	.word	0x10008e20
10000168:	200000c0 	.word	0x200000c0
1000016c:	20000bf8 	.word	0x20000bf8
10000170:	10009958 	.word	0x10009958
10000174:	20040000 	.word	0x20040000
10000178:	20040000 	.word	0x20040000
1000017c:	10009958 	.word	0x10009958
10000180:	20041000 	.word	0x20041000
10000184:	20041000 	.word	0x20041000
10000188:	00000000 	.word	0x00000000
1000018c:	4770      	bx	lr

1000018e <wait_for_vector>:
1000018e:	480c      	ldr	r0, [pc, #48]	; (100001c0 <__get_current_exception+0x2a>)
10000190:	f005 fc28 	bl	100059e4 <rom_func_lookup>
10000194:	4700      	bx	r0

10000196 <__get_current_exception>:
10000196:	f3ef 8005 	mrs	r0, IPSR
1000019a:	b2c0      	uxtb	r0, r0
1000019c:	4770      	bx	lr
1000019e:	0000      	.short	0x0000
100001a0:	10000200 	.word	0x10000200
100001a4:	e000ed00 	.word	0xe000ed00
100001a8:	d0000000 	.word	0xd0000000
100001ac:	20000bf8 	.word	0x20000bf8
100001b0:	20002084 	.word	0x20002084
100001b4:	100054fd 	.word	0x100054fd
100001b8:	100072dd 	.word	0x100072dd
100001bc:	1000561d 	.word	0x1000561d
100001c0:	00005657 	.word	0x00005657

100001c4 <__bi_46>:
100001c4:	50520006 5360b3ab 10008ae4              ..RP..`S....

100001d0 <__bi_34>:
100001d0:	50520006 02031c86 10008af4              ..RP........

100001dc <__bi_26>:
100001dc:	50520006 9da22254 10008b00              ..RPT"......

100001e8 <__bi_18>:
100001e8:	50520005 68f465de 10009958 00000000     ..RP.e.hX.......
	...

10000200 <__reset_end>:
10000200:	20042000 	.word	0x20042000
10000204:	10000113 	.word	0x10000113
10000208:	100002c3 	.word	0x100002c3
1000020c:	100002c5 	.word	0x100002c5
10000210:	100002c1 	.word	0x100002c1
10000214:	100002c1 	.word	0x100002c1
10000218:	100002c1 	.word	0x100002c1
1000021c:	100002c1 	.word	0x100002c1
10000220:	100002c1 	.word	0x100002c1
10000224:	100002c1 	.word	0x100002c1
10000228:	100002c1 	.word	0x100002c1
1000022c:	100002c7 	.word	0x100002c7
10000230:	100002c1 	.word	0x100002c1
10000234:	100002c1 	.word	0x100002c1
10000238:	100002c9 	.word	0x100002c9
1000023c:	100002cb 	.word	0x100002cb
10000240:	100002cd 	.word	0x100002cd
10000244:	100002cd 	.word	0x100002cd
10000248:	100002cd 	.word	0x100002cd
1000024c:	100002cd 	.word	0x100002cd
10000250:	100002cd 	.word	0x100002cd
10000254:	100002cd 	.word	0x100002cd
10000258:	100002cd 	.word	0x100002cd
1000025c:	100002cd 	.word	0x100002cd
10000260:	100002cd 	.word	0x100002cd
10000264:	100002cd 	.word	0x100002cd
10000268:	100002cd 	.word	0x100002cd
1000026c:	100002cd 	.word	0x100002cd
10000270:	100002cd 	.word	0x100002cd
10000274:	100002cd 	.word	0x100002cd
10000278:	100002cd 	.word	0x100002cd
1000027c:	100002cd 	.word	0x100002cd
10000280:	100002cd 	.word	0x100002cd
10000284:	100002cd 	.word	0x100002cd
10000288:	100002cd 	.word	0x100002cd
1000028c:	100002cd 	.word	0x100002cd
10000290:	100002cd 	.word	0x100002cd
10000294:	100002cd 	.word	0x100002cd
10000298:	100002cd 	.word	0x100002cd
1000029c:	100002cd 	.word	0x100002cd
100002a0:	100002cd 	.word	0x100002cd
100002a4:	100002cd 	.word	0x100002cd
100002a8:	100002cd 	.word	0x100002cd
100002ac:	100002cd 	.word	0x100002cd
100002b0:	100002cd 	.word	0x100002cd
100002b4:	100002cd 	.word	0x100002cd
100002b8:	100002cd 	.word	0x100002cd
100002bc:	100002cd 	.word	0x100002cd

100002c0 <isr_invalid>:
100002c0:	be00      	bkpt	0x0000

100002c2 <isr_nmi>:
100002c2:	be00      	bkpt	0x0000

100002c4 <isr_hardfault>:
100002c4:	be00      	bkpt	0x0000

100002c6 <isr_svcall>:
100002c6:	be00      	bkpt	0x0000

100002c8 <isr_pendsv>:
100002c8:	be00      	bkpt	0x0000

100002ca <isr_systick>:
100002ca:	be00      	bkpt	0x0000

100002cc <__unhandled_user_irq>:
100002cc:	f7ff ff63 	bl	10000196 <__get_current_exception>
100002d0:	3810      	subs	r0, #16

100002d2 <unhandled_user_irq_num_in_r0>:
100002d2:	be00      	bkpt	0x0000

100002d4 <_init>:
100002d4:	b5f8      	push	{r3, r4, r5, r6, r7, lr}
100002d6:	46c0      	nop			; (mov r8, r8)

100002d8 <__do_global_dtors_aux>:
100002d8:	b510      	push	{r4, lr}
100002da:	4c06      	ldr	r4, [pc, #24]	; (100002f4 <__do_global_dtors_aux+0x1c>)
100002dc:	7823      	ldrb	r3, [r4, #0]
100002de:	2b00      	cmp	r3, #0
100002e0:	d107      	bne.n	100002f2 <__do_global_dtors_aux+0x1a>
100002e2:	4b05      	ldr	r3, [pc, #20]	; (100002f8 <__do_global_dtors_aux+0x20>)
100002e4:	2b00      	cmp	r3, #0
100002e6:	d002      	beq.n	100002ee <__do_global_dtors_aux+0x16>
100002e8:	4804      	ldr	r0, [pc, #16]	; (100002fc <__do_global_dtors_aux+0x24>)
100002ea:	e000      	b.n	100002ee <__do_global_dtors_aux+0x16>
100002ec:	bf00      	nop
100002ee:	2301      	movs	r3, #1
100002f0:	7023      	strb	r3, [r4, #0]
100002f2:	bd10      	pop	{r4, pc}
100002f4:	20000c00 	.word	0x20000c00
100002f8:	00000000 	.word	0x00000000
100002fc:	10008570 	.word	0x10008570

10000300 <frame_dummy>:
10000300:	4b04      	ldr	r3, [pc, #16]	; (10000314 <frame_dummy+0x14>)
10000302:	b510      	push	{r4, lr}
10000304:	2b00      	cmp	r3, #0
10000306:	d003      	beq.n	10000310 <frame_dummy+0x10>
10000308:	4903      	ldr	r1, [pc, #12]	; (10000318 <frame_dummy+0x18>)
1000030a:	4804      	ldr	r0, [pc, #16]	; (1000031c <frame_dummy+0x1c>)
1000030c:	e000      	b.n	10000310 <frame_dummy+0x10>
1000030e:	bf00      	nop
10000310:	bd10      	pop	{r4, pc}
10000312:	46c0      	nop			; (mov r8, r8)
10000314:	00000000 	.word	0x00000000
10000318:	20000c04 	.word	0x20000c04
1000031c:	10008570 	.word	0x10008570

10000320 <_Z20methodOn2ndProcessorv>:
10000320:	b570      	push	{r4, r5, r6, lr}
10000322:	4d08      	ldr	r5, [pc, #32]	; (10000344 <_Z20methodOn2ndProcessorv+0x24>)
10000324:	4c08      	ldr	r4, [pc, #32]	; (10000348 <_Z20methodOn2ndProcessorv+0x28>)
10000326:	4e09      	ldr	r6, [pc, #36]	; (1000034c <_Z20methodOn2ndProcessorv+0x2c>)
10000328:	0028      	movs	r0, r5
1000032a:	f008 f901 	bl	10008530 <__sem_acquire_blocking_veneer>
1000032e:	6821      	ldr	r1, [r4, #0]
10000330:	220a      	movs	r2, #10
10000332:	1c4b      	adds	r3, r1, #1
10000334:	0030      	movs	r0, r6
10000336:	6023      	str	r3, [r4, #0]
10000338:	f006 fbb0 	bl	10006a9c <_ZN7arduino5Print7printlnEli>
1000033c:	0028      	movs	r0, r5
1000033e:	f008 f8d7 	bl	100084f0 <__sem_release_veneer>
10000342:	e7f1      	b.n	10000328 <_Z20methodOn2ndProcessorv+0x8>
10000344:	20001d6c 	.word	0x20001d6c
10000348:	20001698 	.word	0x20001698
1000034c:	20000c28 	.word	0x20000c28

10000350 <setup>:
10000350:	b570      	push	{r4, r5, r6, lr}
10000352:	2501      	movs	r5, #1
10000354:	4b14      	ldr	r3, [pc, #80]	; (100003a8 <setup+0x58>)
10000356:	4c15      	ldr	r4, [pc, #84]	; (100003ac <setup+0x5c>)
10000358:	4815      	ldr	r0, [pc, #84]	; (100003b0 <setup+0x60>)
1000035a:	741d      	strb	r5, [r3, #16]
1000035c:	6063      	str	r3, [r4, #4]
1000035e:	7225      	strb	r5, [r4, #8]
10000360:	f000 f9d4 	bl	1000070c <__wrap_puts>
10000364:	4e13      	ldr	r6, [pc, #76]	; (100003b4 <setup+0x64>)
10000366:	7833      	ldrb	r3, [r6, #0]
10000368:	2b00      	cmp	r3, #0
1000036a:	d10a      	bne.n	10000382 <setup+0x32>
1000036c:	4812      	ldr	r0, [pc, #72]	; (100003b8 <setup+0x68>)
1000036e:	f006 fa73 	bl	10006858 <multicore_launch_core1>
10000372:	6860      	ldr	r0, [r4, #4]
10000374:	7035      	strb	r5, [r6, #0]
10000376:	2800      	cmp	r0, #0
10000378:	d002      	beq.n	10000380 <setup+0x30>
1000037a:	7a23      	ldrb	r3, [r4, #8]
1000037c:	2b01      	cmp	r3, #1
1000037e:	d908      	bls.n	10000392 <setup+0x42>
10000380:	bd70      	pop	{r4, r5, r6, pc}
10000382:	6860      	ldr	r0, [r4, #4]
10000384:	2800      	cmp	r0, #0
10000386:	d0fb      	beq.n	10000380 <setup+0x30>
10000388:	7a23      	ldrb	r3, [r4, #8]
1000038a:	2b01      	cmp	r3, #1
1000038c:	d8f8      	bhi.n	10000380 <setup+0x30>
1000038e:	490b      	ldr	r1, [pc, #44]	; (100003bc <setup+0x6c>)
10000390:	e000      	b.n	10000394 <setup+0x44>
10000392:	490b      	ldr	r1, [pc, #44]	; (100003c0 <setup+0x70>)
10000394:	f006 fac8 	bl	10006928 <_ZN7arduino5Print5printEPKc>
10000398:	6860      	ldr	r0, [r4, #4]
1000039a:	f006 faf1 	bl	10006980 <_ZN7arduino5Print7printlnEv>
1000039e:	6860      	ldr	r0, [r4, #4]
100003a0:	6803      	ldr	r3, [r0, #0]
100003a2:	68db      	ldr	r3, [r3, #12]
100003a4:	4798      	blx	r3
100003a6:	e7eb      	b.n	10000380 <setup+0x30>
100003a8:	20000c28 	.word	0x20000c28
100003ac:	20000c1c 	.word	0x20000c1c
100003b0:	10008570 	.word	0x10008570
100003b4:	20001d8c 	.word	0x20001d8c
100003b8:	10000321 	.word	0x10000321
100003bc:	10008594 	.word	0x10008594
100003c0:	1000857c 	.word	0x1000857c

100003c4 <loop>:
100003c4:	b510      	push	{r4, lr}
100003c6:	4c08      	ldr	r4, [pc, #32]	; (100003e8 <loop+0x24>)
100003c8:	0020      	movs	r0, r4
100003ca:	f008 f8b1 	bl	10008530 <__sem_acquire_blocking_veneer>
100003ce:	4b07      	ldr	r3, [pc, #28]	; (100003ec <loop+0x28>)
100003d0:	4807      	ldr	r0, [pc, #28]	; (100003f0 <loop+0x2c>)
100003d2:	6819      	ldr	r1, [r3, #0]
100003d4:	1c4a      	adds	r2, r1, #1
100003d6:	601a      	str	r2, [r3, #0]
100003d8:	220a      	movs	r2, #10
100003da:	f006 fb5f 	bl	10006a9c <_ZN7arduino5Print7printlnEli>
100003de:	0020      	movs	r0, r4
100003e0:	f008 f886 	bl	100084f0 <__sem_release_veneer>
100003e4:	bd10      	pop	{r4, pc}
100003e6:	46c0      	nop			; (mov r8, r8)
100003e8:	20001d6c 	.word	0x20001d6c
100003ec:	20001698 	.word	0x20001698
100003f0:	20000c28 	.word	0x20000c28

100003f4 <_GLOBAL__sub_I_semaphore>:
100003f4:	2201      	movs	r2, #1
100003f6:	b510      	push	{r4, lr}
100003f8:	2101      	movs	r1, #1
100003fa:	4803      	ldr	r0, [pc, #12]	; (10000408 <_GLOBAL__sub_I_semaphore+0x14>)
100003fc:	f004 f8c8 	bl	10004590 <sem_init>
10000400:	2200      	movs	r2, #0
10000402:	4b02      	ldr	r3, [pc, #8]	; (1000040c <_GLOBAL__sub_I_semaphore+0x18>)
10000404:	701a      	strb	r2, [r3, #0]
10000406:	bd10      	pop	{r4, pc}
10000408:	20001d6c 	.word	0x20001d6c
1000040c:	20001d8c 	.word	0x20001d8c

10000410 <stdio_uart_out_chars>:
10000410:	b5f0      	push	{r4, r5, r6, r7, lr}
10000412:	2900      	cmp	r1, #0
10000414:	d010      	beq.n	10000438 <stdio_uart_out_chars+0x28>
10000416:	1845      	adds	r5, r0, r1
10000418:	270d      	movs	r7, #13
1000041a:	2120      	movs	r1, #32
1000041c:	4b09      	ldr	r3, [pc, #36]	; (10000444 <stdio_uart_out_chars+0x34>)
1000041e:	4a0a      	ldr	r2, [pc, #40]	; (10000448 <stdio_uart_out_chars+0x38>)
10000420:	2600      	movs	r6, #0
10000422:	5f9e      	ldrsh	r6, [r3, r6]
10000424:	7804      	ldrb	r4, [r0, #0]
10000426:	42a6      	cmp	r6, r4
10000428:	d007      	beq.n	1000043a <stdio_uart_out_chars+0x2a>
1000042a:	6993      	ldr	r3, [r2, #24]
1000042c:	4219      	tst	r1, r3
1000042e:	d1fc      	bne.n	1000042a <stdio_uart_out_chars+0x1a>
10000430:	3001      	adds	r0, #1
10000432:	6014      	str	r4, [r2, #0]
10000434:	42a8      	cmp	r0, r5
10000436:	d1f5      	bne.n	10000424 <stdio_uart_out_chars+0x14>
10000438:	bdf0      	pop	{r4, r5, r6, r7, pc}
1000043a:	6993      	ldr	r3, [r2, #24]
1000043c:	4219      	tst	r1, r3
1000043e:	d1fc      	bne.n	1000043a <stdio_uart_out_chars+0x2a>
10000440:	6017      	str	r7, [r2, #0]
10000442:	e7f2      	b.n	1000042a <stdio_uart_out_chars+0x1a>
10000444:	20001e54 	.word	0x20001e54
10000448:	40034000 	.word	0x40034000

1000044c <stdio_uart_in_chars>:
1000044c:	b530      	push	{r4, r5, lr}
1000044e:	0005      	movs	r5, r0
10000450:	2000      	movs	r0, #0
10000452:	2900      	cmp	r1, #0
10000454:	dd10      	ble.n	10000478 <stdio_uart_in_chars+0x2c>
10000456:	2410      	movs	r4, #16
10000458:	4a09      	ldr	r2, [pc, #36]	; (10000480 <stdio_uart_in_chars+0x34>)
1000045a:	3d01      	subs	r5, #1
1000045c:	6993      	ldr	r3, [r2, #24]
1000045e:	421c      	tst	r4, r3
10000460:	d108      	bne.n	10000474 <stdio_uart_in_chars+0x28>
10000462:	3001      	adds	r0, #1
10000464:	6993      	ldr	r3, [r2, #24]
10000466:	421c      	tst	r4, r3
10000468:	d1fc      	bne.n	10000464 <stdio_uart_in_chars+0x18>
1000046a:	6813      	ldr	r3, [r2, #0]
1000046c:	542b      	strb	r3, [r5, r0]
1000046e:	4281      	cmp	r1, r0
10000470:	d1f4      	bne.n	1000045c <stdio_uart_in_chars+0x10>
10000472:	bd30      	pop	{r4, r5, pc}
10000474:	2800      	cmp	r0, #0
10000476:	d1fc      	bne.n	10000472 <stdio_uart_in_chars+0x26>
10000478:	2003      	movs	r0, #3
1000047a:	4240      	negs	r0, r0
1000047c:	e7f9      	b.n	10000472 <stdio_uart_in_chars+0x26>
1000047e:	46c0      	nop			; (mov r8, r8)
10000480:	40034000 	.word	0x40034000

10000484 <stdio_uart_init>:
10000484:	21e1      	movs	r1, #225	; 0xe1
10000486:	b510      	push	{r4, lr}
10000488:	4b0a      	ldr	r3, [pc, #40]	; (100004b4 <stdio_uart_init+0x30>)
1000048a:	0249      	lsls	r1, r1, #9
1000048c:	781b      	ldrb	r3, [r3, #0]
1000048e:	4b0a      	ldr	r3, [pc, #40]	; (100004b8 <stdio_uart_init+0x34>)
10000490:	480a      	ldr	r0, [pc, #40]	; (100004bc <stdio_uart_init+0x38>)
10000492:	781b      	ldrb	r3, [r3, #0]
10000494:	f004 ffb4 	bl	10005400 <uart_init>
10000498:	2102      	movs	r1, #2
1000049a:	2000      	movs	r0, #0
1000049c:	f004 ff98 	bl	100053d0 <gpio_set_function>
100004a0:	2102      	movs	r1, #2
100004a2:	2001      	movs	r0, #1
100004a4:	f004 ff94 	bl	100053d0 <gpio_set_function>
100004a8:	2101      	movs	r1, #1
100004aa:	4805      	ldr	r0, [pc, #20]	; (100004c0 <stdio_uart_init+0x3c>)
100004ac:	f000 f9a4 	bl	100007f8 <stdio_set_driver_enabled>
100004b0:	bd10      	pop	{r4, pc}
100004b2:	46c0      	nop			; (mov r8, r8)
100004b4:	10008e14 	.word	0x10008e14
100004b8:	10008e18 	.word	0x10008e18
100004bc:	40034000 	.word	0x40034000
100004c0:	200002d0 	.word	0x200002d0

100004c4 <stdio_uart_init_full>:
100004c4:	b570      	push	{r4, r5, r6, lr}
100004c6:	0015      	movs	r5, r2
100004c8:	001c      	movs	r4, r3
100004ca:	f004 ff99 	bl	10005400 <uart_init>
100004ce:	1c6b      	adds	r3, r5, #1
100004d0:	d003      	beq.n	100004da <stdio_uart_init_full+0x16>
100004d2:	2102      	movs	r1, #2
100004d4:	0028      	movs	r0, r5
100004d6:	f004 ff7b 	bl	100053d0 <gpio_set_function>
100004da:	1c63      	adds	r3, r4, #1
100004dc:	d003      	beq.n	100004e6 <stdio_uart_init_full+0x22>
100004de:	2102      	movs	r1, #2
100004e0:	0020      	movs	r0, r4
100004e2:	f004 ff75 	bl	100053d0 <gpio_set_function>
100004e6:	2101      	movs	r1, #1
100004e8:	4801      	ldr	r0, [pc, #4]	; (100004f0 <stdio_uart_init_full+0x2c>)
100004ea:	f000 f985 	bl	100007f8 <stdio_set_driver_enabled>
100004ee:	bd70      	pop	{r4, r5, r6, pc}
100004f0:	200002d0 	.word	0x200002d0

100004f4 <stdio_out_chars_crlf.part.0>:
100004f4:	b5f8      	push	{r3, r4, r5, r6, r7, lr}
100004f6:	4647      	mov	r7, r8
100004f8:	46ce      	mov	lr, r9
100004fa:	000d      	movs	r5, r1
100004fc:	b580      	push	{r7, lr}
100004fe:	0016      	movs	r6, r2
10000500:	0007      	movs	r7, r0
10000502:	2a00      	cmp	r2, #0
10000504:	dd20      	ble.n	10000548 <stdio_out_chars_crlf.part.0+0x54>
10000506:	1e4b      	subs	r3, r1, #1
10000508:	4698      	mov	r8, r3
1000050a:	4b1a      	ldr	r3, [pc, #104]	; (10000574 <stdio_out_chars_crlf.part.0+0x80>)
1000050c:	2400      	movs	r4, #0
1000050e:	2000      	movs	r0, #0
10000510:	4699      	mov	r9, r3
10000512:	2c00      	cmp	r4, #0
10000514:	d02b      	beq.n	1000056e <stdio_out_chars_crlf.part.0+0x7a>
10000516:	4643      	mov	r3, r8
10000518:	5d1b      	ldrb	r3, [r3, r4]
1000051a:	3b0d      	subs	r3, #13
1000051c:	425a      	negs	r2, r3
1000051e:	4153      	adcs	r3, r2
10000520:	b2db      	uxtb	r3, r3
10000522:	5d2a      	ldrb	r2, [r5, r4]
10000524:	2a0a      	cmp	r2, #10
10000526:	d013      	beq.n	10000550 <stdio_out_chars_crlf.part.0+0x5c>
10000528:	3401      	adds	r4, #1
1000052a:	42a6      	cmp	r6, r4
1000052c:	dcf1      	bgt.n	10000512 <stdio_out_chars_crlf.part.0+0x1e>
1000052e:	4286      	cmp	r6, r0
10000530:	dd03      	ble.n	1000053a <stdio_out_chars_crlf.part.0+0x46>
10000532:	1a31      	subs	r1, r6, r0
10000534:	683b      	ldr	r3, [r7, #0]
10000536:	1828      	adds	r0, r5, r0
10000538:	4798      	blx	r3
1000053a:	19ad      	adds	r5, r5, r6
1000053c:	3d01      	subs	r5, #1
1000053e:	782b      	ldrb	r3, [r5, #0]
10000540:	3b0d      	subs	r3, #13
10000542:	425a      	negs	r2, r3
10000544:	4153      	adcs	r3, r2
10000546:	743b      	strb	r3, [r7, #16]
10000548:	bc0c      	pop	{r2, r3}
1000054a:	4690      	mov	r8, r2
1000054c:	4699      	mov	r9, r3
1000054e:	bdf8      	pop	{r3, r4, r5, r6, r7, pc}
10000550:	2b00      	cmp	r3, #0
10000552:	d1e9      	bne.n	10000528 <stdio_out_chars_crlf.part.0+0x34>
10000554:	42a0      	cmp	r0, r4
10000556:	da03      	bge.n	10000560 <stdio_out_chars_crlf.part.0+0x6c>
10000558:	1a21      	subs	r1, r4, r0
1000055a:	683b      	ldr	r3, [r7, #0]
1000055c:	1828      	adds	r0, r5, r0
1000055e:	4798      	blx	r3
10000560:	4648      	mov	r0, r9
10000562:	2102      	movs	r1, #2
10000564:	683b      	ldr	r3, [r7, #0]
10000566:	3401      	adds	r4, #1
10000568:	4798      	blx	r3
1000056a:	0020      	movs	r0, r4
1000056c:	e7dd      	b.n	1000052a <stdio_out_chars_crlf.part.0+0x36>
1000056e:	7c3b      	ldrb	r3, [r7, #16]
10000570:	e7d7      	b.n	10000522 <stdio_out_chars_crlf.part.0+0x2e>
10000572:	46c0      	nop			; (mov r8, r8)
10000574:	10008608 	.word	0x10008608

10000578 <stdio_buffered_printer>:
10000578:	b5f8      	push	{r3, r4, r5, r6, r7, lr}
1000057a:	4647      	mov	r7, r8
1000057c:	46ce      	mov	lr, r9
1000057e:	000c      	movs	r4, r1
10000580:	6809      	ldr	r1, [r1, #0]
10000582:	b580      	push	{r7, lr}
10000584:	0007      	movs	r7, r0
10000586:	2980      	cmp	r1, #128	; 0x80
10000588:	d007      	beq.n	1000059a <stdio_buffered_printer+0x22>
1000058a:	1c4b      	adds	r3, r1, #1
1000058c:	6023      	str	r3, [r4, #0]
1000058e:	1864      	adds	r4, r4, r1
10000590:	7127      	strb	r7, [r4, #4]
10000592:	bc0c      	pop	{r2, r3}
10000594:	4690      	mov	r8, r2
10000596:	4699      	mov	r9, r3
10000598:	bdf8      	pop	{r3, r4, r5, r6, r7, pc}
1000059a:	4b13      	ldr	r3, [pc, #76]	; (100005e8 <stdio_buffered_printer+0x70>)
1000059c:	681d      	ldr	r5, [r3, #0]
1000059e:	2d00      	cmp	r5, #0
100005a0:	d01b      	beq.n	100005da <stdio_buffered_printer+0x62>
100005a2:	4b12      	ldr	r3, [pc, #72]	; (100005ec <stdio_buffered_printer+0x74>)
100005a4:	4698      	mov	r8, r3
100005a6:	1d23      	adds	r3, r4, #4
100005a8:	4699      	mov	r9, r3
100005aa:	e002      	b.n	100005b2 <stdio_buffered_printer+0x3a>
100005ac:	68ed      	ldr	r5, [r5, #12]
100005ae:	2d00      	cmp	r5, #0
100005b0:	d013      	beq.n	100005da <stdio_buffered_printer+0x62>
100005b2:	682e      	ldr	r6, [r5, #0]
100005b4:	2e00      	cmp	r6, #0
100005b6:	d0f9      	beq.n	100005ac <stdio_buffered_printer+0x34>
100005b8:	4643      	mov	r3, r8
100005ba:	681b      	ldr	r3, [r3, #0]
100005bc:	2b00      	cmp	r3, #0
100005be:	d001      	beq.n	100005c4 <stdio_buffered_printer+0x4c>
100005c0:	429d      	cmp	r5, r3
100005c2:	d1f3      	bne.n	100005ac <stdio_buffered_printer+0x34>
100005c4:	7c6b      	ldrb	r3, [r5, #17]
100005c6:	6822      	ldr	r2, [r4, #0]
100005c8:	2b00      	cmp	r3, #0
100005ca:	d009      	beq.n	100005e0 <stdio_buffered_printer+0x68>
100005cc:	0028      	movs	r0, r5
100005ce:	4649      	mov	r1, r9
100005d0:	f7ff ff90 	bl	100004f4 <stdio_out_chars_crlf.part.0>
100005d4:	68ed      	ldr	r5, [r5, #12]
100005d6:	2d00      	cmp	r5, #0
100005d8:	d1eb      	bne.n	100005b2 <stdio_buffered_printer+0x3a>
100005da:	2301      	movs	r3, #1
100005dc:	2100      	movs	r1, #0
100005de:	e7d5      	b.n	1000058c <stdio_buffered_printer+0x14>
100005e0:	0011      	movs	r1, r2
100005e2:	4648      	mov	r0, r9
100005e4:	47b0      	blx	r6
100005e6:	e7e1      	b.n	100005ac <stdio_buffered_printer+0x34>
100005e8:	200016c8 	.word	0x200016c8
100005ec:	200016cc 	.word	0x200016cc

100005f0 <stdio_put_string>:
100005f0:	b5f0      	push	{r4, r5, r6, r7, lr}
100005f2:	4657      	mov	r7, sl
100005f4:	4645      	mov	r5, r8
100005f6:	46de      	mov	lr, fp
100005f8:	464e      	mov	r6, r9
100005fa:	23d0      	movs	r3, #208	; 0xd0
100005fc:	b5e0      	push	{r5, r6, r7, lr}
100005fe:	061b      	lsls	r3, r3, #24
10000600:	681c      	ldr	r4, [r3, #0]
10000602:	4b37      	ldr	r3, [pc, #220]	; (100006e0 <stdio_put_string+0xf0>)
10000604:	b083      	sub	sp, #12
10000606:	0007      	movs	r7, r0
10000608:	000d      	movs	r5, r1
1000060a:	0018      	movs	r0, r3
1000060c:	a901      	add	r1, sp, #4
1000060e:	4690      	mov	r8, r2
10000610:	469a      	mov	sl, r3
10000612:	f007 ff95 	bl	10008540 <__mutex_try_enter_veneer>
10000616:	4681      	mov	r9, r0
10000618:	2800      	cmp	r0, #0
1000061a:	d107      	bne.n	1000062c <stdio_put_string+0x3c>
1000061c:	9b01      	ldr	r3, [sp, #4]
1000061e:	429c      	cmp	r4, r3
10000620:	d004      	beq.n	1000062c <stdio_put_string+0x3c>
10000622:	4650      	mov	r0, sl
10000624:	f007 ff9c 	bl	10008560 <__mutex_enter_blocking_veneer>
10000628:	2301      	movs	r3, #1
1000062a:	4699      	mov	r9, r3
1000062c:	1c6b      	adds	r3, r5, #1
1000062e:	d103      	bne.n	10000638 <stdio_put_string+0x48>
10000630:	0038      	movs	r0, r7
10000632:	f007 f9a7 	bl	10007984 <strlen>
10000636:	0005      	movs	r5, r0
10000638:	4b2a      	ldr	r3, [pc, #168]	; (100006e4 <stdio_put_string+0xf4>)
1000063a:	681c      	ldr	r4, [r3, #0]
1000063c:	2c00      	cmp	r4, #0
1000063e:	d02f      	beq.n	100006a0 <stdio_put_string+0xb0>
10000640:	230a      	movs	r3, #10
10000642:	4e29      	ldr	r6, [pc, #164]	; (100006e8 <stdio_put_string+0xf8>)
10000644:	469b      	mov	fp, r3
10000646:	e002      	b.n	1000064e <stdio_put_string+0x5e>
10000648:	68e4      	ldr	r4, [r4, #12]
1000064a:	2c00      	cmp	r4, #0
1000064c:	d028      	beq.n	100006a0 <stdio_put_string+0xb0>
1000064e:	6822      	ldr	r2, [r4, #0]
10000650:	2a00      	cmp	r2, #0
10000652:	d0f9      	beq.n	10000648 <stdio_put_string+0x58>
10000654:	6833      	ldr	r3, [r6, #0]
10000656:	2b00      	cmp	r3, #0
10000658:	d001      	beq.n	1000065e <stdio_put_string+0x6e>
1000065a:	42a3      	cmp	r3, r4
1000065c:	d1f4      	bne.n	10000648 <stdio_put_string+0x58>
1000065e:	7c63      	ldrb	r3, [r4, #17]
10000660:	2b00      	cmp	r3, #0
10000662:	d02a      	beq.n	100006ba <stdio_put_string+0xca>
10000664:	002a      	movs	r2, r5
10000666:	0039      	movs	r1, r7
10000668:	0020      	movs	r0, r4
1000066a:	f7ff ff43 	bl	100004f4 <stdio_out_chars_crlf.part.0>
1000066e:	4643      	mov	r3, r8
10000670:	2b00      	cmp	r3, #0
10000672:	d0e9      	beq.n	10000648 <stdio_put_string+0x58>
10000674:	466b      	mov	r3, sp
10000676:	465a      	mov	r2, fp
10000678:	711a      	strb	r2, [r3, #4]
1000067a:	7c63      	ldrb	r3, [r4, #17]
1000067c:	2b00      	cmp	r3, #0
1000067e:	d020      	beq.n	100006c2 <stdio_put_string+0xd2>
10000680:	7c23      	ldrb	r3, [r4, #16]
10000682:	2b00      	cmp	r3, #0
10000684:	d026      	beq.n	100006d4 <stdio_put_string+0xe4>
10000686:	2101      	movs	r1, #1
10000688:	6823      	ldr	r3, [r4, #0]
1000068a:	a801      	add	r0, sp, #4
1000068c:	4798      	blx	r3
1000068e:	466b      	mov	r3, sp
10000690:	791b      	ldrb	r3, [r3, #4]
10000692:	3b0d      	subs	r3, #13
10000694:	425a      	negs	r2, r3
10000696:	4153      	adcs	r3, r2
10000698:	7423      	strb	r3, [r4, #16]
1000069a:	68e4      	ldr	r4, [r4, #12]
1000069c:	2c00      	cmp	r4, #0
1000069e:	d1d6      	bne.n	1000064e <stdio_put_string+0x5e>
100006a0:	464b      	mov	r3, r9
100006a2:	2b00      	cmp	r3, #0
100006a4:	d112      	bne.n	100006cc <stdio_put_string+0xdc>
100006a6:	1e68      	subs	r0, r5, #1
100006a8:	4185      	sbcs	r5, r0
100006aa:	b2e8      	uxtb	r0, r5
100006ac:	b003      	add	sp, #12
100006ae:	bc3c      	pop	{r2, r3, r4, r5}
100006b0:	4690      	mov	r8, r2
100006b2:	4699      	mov	r9, r3
100006b4:	46a2      	mov	sl, r4
100006b6:	46ab      	mov	fp, r5
100006b8:	bdf0      	pop	{r4, r5, r6, r7, pc}
100006ba:	0029      	movs	r1, r5
100006bc:	0038      	movs	r0, r7
100006be:	4790      	blx	r2
100006c0:	e7d5      	b.n	1000066e <stdio_put_string+0x7e>
100006c2:	2101      	movs	r1, #1
100006c4:	6823      	ldr	r3, [r4, #0]
100006c6:	a801      	add	r0, sp, #4
100006c8:	4798      	blx	r3
100006ca:	e7bd      	b.n	10000648 <stdio_put_string+0x58>
100006cc:	4650      	mov	r0, sl
100006ce:	f007 ff17 	bl	10008500 <__mutex_exit_veneer>
100006d2:	e7e8      	b.n	100006a6 <stdio_put_string+0xb6>
100006d4:	2102      	movs	r1, #2
100006d6:	4805      	ldr	r0, [pc, #20]	; (100006ec <stdio_put_string+0xfc>)
100006d8:	6823      	ldr	r3, [r4, #0]
100006da:	4798      	blx	r3
100006dc:	e7d7      	b.n	1000068e <stdio_put_string+0x9e>
100006de:	46c0      	nop			; (mov r8, r8)
100006e0:	20000bd0 	.word	0x20000bd0
100006e4:	200016c8 	.word	0x200016c8
100006e8:	200016cc 	.word	0x200016cc
100006ec:	10008608 	.word	0x10008608

100006f0 <__wrap_putchar>:
100006f0:	b510      	push	{r4, lr}
100006f2:	b082      	sub	sp, #8
100006f4:	466b      	mov	r3, sp
100006f6:	0004      	movs	r4, r0
100006f8:	2200      	movs	r2, #0
100006fa:	1dd8      	adds	r0, r3, #7
100006fc:	2101      	movs	r1, #1
100006fe:	7004      	strb	r4, [r0, #0]
10000700:	f7ff ff76 	bl	100005f0 <stdio_put_string>
10000704:	0020      	movs	r0, r4
10000706:	b002      	add	sp, #8
10000708:	bd10      	pop	{r4, pc}
1000070a:	46c0      	nop			; (mov r8, r8)

1000070c <__wrap_puts>:
1000070c:	b570      	push	{r4, r5, r6, lr}
1000070e:	0004      	movs	r4, r0
10000710:	f007 f938 	bl	10007984 <strlen>
10000714:	2201      	movs	r2, #1
10000716:	0001      	movs	r1, r0
10000718:	0005      	movs	r5, r0
1000071a:	0020      	movs	r0, r4
1000071c:	f7ff ff68 	bl	100005f0 <stdio_put_string>
10000720:	4b08      	ldr	r3, [pc, #32]	; (10000744 <__wrap_puts+0x38>)
10000722:	681c      	ldr	r4, [r3, #0]
10000724:	2c00      	cmp	r4, #0
10000726:	d006      	beq.n	10000736 <__wrap_puts+0x2a>
10000728:	6863      	ldr	r3, [r4, #4]
1000072a:	2b00      	cmp	r3, #0
1000072c:	d005      	beq.n	1000073a <__wrap_puts+0x2e>
1000072e:	4798      	blx	r3
10000730:	68e4      	ldr	r4, [r4, #12]
10000732:	2c00      	cmp	r4, #0
10000734:	d1f8      	bne.n	10000728 <__wrap_puts+0x1c>
10000736:	0028      	movs	r0, r5
10000738:	bd70      	pop	{r4, r5, r6, pc}
1000073a:	68e4      	ldr	r4, [r4, #12]
1000073c:	2c00      	cmp	r4, #0
1000073e:	d1f3      	bne.n	10000728 <__wrap_puts+0x1c>
10000740:	e7f9      	b.n	10000736 <__wrap_puts+0x2a>
10000742:	46c0      	nop			; (mov r8, r8)
10000744:	200016c8 	.word	0x200016c8

10000748 <_read>:
10000748:	b5f0      	push	{r4, r5, r6, r7, lr}
1000074a:	46ce      	mov	lr, r9
1000074c:	4647      	mov	r7, r8
1000074e:	b580      	push	{r7, lr}
10000750:	000d      	movs	r5, r1
10000752:	0016      	movs	r6, r2
10000754:	b083      	sub	sp, #12
10000756:	2800      	cmp	r0, #0
10000758:	d12c      	bne.n	100007b4 <_read+0x6c>
1000075a:	4b1b      	ldr	r3, [pc, #108]	; (100007c8 <_read+0x80>)
1000075c:	4f1b      	ldr	r7, [pc, #108]	; (100007cc <_read+0x84>)
1000075e:	681a      	ldr	r2, [r3, #0]
10000760:	685b      	ldr	r3, [r3, #4]
10000762:	9201      	str	r2, [sp, #4]
10000764:	9300      	str	r3, [sp, #0]
10000766:	4b1a      	ldr	r3, [pc, #104]	; (100007d0 <_read+0x88>)
10000768:	4699      	mov	r9, r3
1000076a:	4b1a      	ldr	r3, [pc, #104]	; (100007d4 <_read+0x8c>)
1000076c:	4698      	mov	r8, r3
1000076e:	464b      	mov	r3, r9
10000770:	681c      	ldr	r4, [r3, #0]
10000772:	2c00      	cmp	r4, #0
10000774:	d103      	bne.n	1000077e <_read+0x36>
10000776:	e015      	b.n	100007a4 <_read+0x5c>
10000778:	68e4      	ldr	r4, [r4, #12]
1000077a:	2c00      	cmp	r4, #0
1000077c:	d012      	beq.n	100007a4 <_read+0x5c>
1000077e:	4643      	mov	r3, r8
10000780:	681b      	ldr	r3, [r3, #0]
10000782:	2b00      	cmp	r3, #0
10000784:	d001      	beq.n	1000078a <_read+0x42>
10000786:	42a3      	cmp	r3, r4
10000788:	d1f6      	bne.n	10000778 <_read+0x30>
1000078a:	68a3      	ldr	r3, [r4, #8]
1000078c:	2b00      	cmp	r3, #0
1000078e:	d0f3      	beq.n	10000778 <_read+0x30>
10000790:	0031      	movs	r1, r6
10000792:	0028      	movs	r0, r5
10000794:	4798      	blx	r3
10000796:	2800      	cmp	r0, #0
10000798:	ddee      	ble.n	10000778 <_read+0x30>
1000079a:	b003      	add	sp, #12
1000079c:	bc0c      	pop	{r2, r3}
1000079e:	4690      	mov	r8, r2
100007a0:	4699      	mov	r9, r3
100007a2:	bdf0      	pop	{r4, r5, r6, r7, pc}
100007a4:	6a7b      	ldr	r3, [r7, #36]	; 0x24
100007a6:	9a00      	ldr	r2, [sp, #0]
100007a8:	429a      	cmp	r2, r3
100007aa:	d8e0      	bhi.n	1000076e <_read+0x26>
100007ac:	6aba      	ldr	r2, [r7, #40]	; 0x28
100007ae:	9901      	ldr	r1, [sp, #4]
100007b0:	428a      	cmp	r2, r1
100007b2:	d302      	bcc.n	100007ba <_read+0x72>
100007b4:	2001      	movs	r0, #1
100007b6:	4240      	negs	r0, r0
100007b8:	e7ef      	b.n	1000079a <_read+0x52>
100007ba:	9a00      	ldr	r2, [sp, #0]
100007bc:	429a      	cmp	r2, r3
100007be:	d0d6      	beq.n	1000076e <_read+0x26>
100007c0:	2001      	movs	r0, #1
100007c2:	4240      	negs	r0, r0
100007c4:	e7e9      	b.n	1000079a <_read+0x52>
100007c6:	46c0      	nop			; (mov r8, r8)
100007c8:	10008a90 	.word	0x10008a90
100007cc:	40054000 	.word	0x40054000
100007d0:	200016c8 	.word	0x200016c8
100007d4:	200016cc 	.word	0x200016cc

100007d8 <_write>:
100007d8:	b510      	push	{r4, lr}
100007da:	000b      	movs	r3, r1
100007dc:	0014      	movs	r4, r2
100007de:	2801      	cmp	r0, #1
100007e0:	d106      	bne.n	100007f0 <_write+0x18>
100007e2:	2200      	movs	r2, #0
100007e4:	0021      	movs	r1, r4
100007e6:	0018      	movs	r0, r3
100007e8:	f7ff ff02 	bl	100005f0 <stdio_put_string>
100007ec:	0020      	movs	r0, r4
100007ee:	bd10      	pop	{r4, pc}
100007f0:	2001      	movs	r0, #1
100007f2:	4240      	negs	r0, r0
100007f4:	e7fb      	b.n	100007ee <_write+0x16>
100007f6:	46c0      	nop			; (mov r8, r8)

100007f8 <stdio_set_driver_enabled>:
100007f8:	4a0d      	ldr	r2, [pc, #52]	; (10000830 <stdio_set_driver_enabled+0x38>)
100007fa:	6813      	ldr	r3, [r2, #0]
100007fc:	2b00      	cmp	r3, #0
100007fe:	d013      	beq.n	10000828 <stdio_set_driver_enabled+0x30>
10000800:	4283      	cmp	r3, r0
10000802:	d102      	bne.n	1000080a <stdio_set_driver_enabled+0x12>
10000804:	e009      	b.n	1000081a <stdio_set_driver_enabled+0x22>
10000806:	4298      	cmp	r0, r3
10000808:	d008      	beq.n	1000081c <stdio_set_driver_enabled+0x24>
1000080a:	001a      	movs	r2, r3
1000080c:	68db      	ldr	r3, [r3, #12]
1000080e:	2b00      	cmp	r3, #0
10000810:	d1f9      	bne.n	10000806 <stdio_set_driver_enabled+0xe>
10000812:	2900      	cmp	r1, #0
10000814:	d000      	beq.n	10000818 <stdio_set_driver_enabled+0x20>
10000816:	60d0      	str	r0, [r2, #12]
10000818:	4770      	bx	lr
1000081a:	001a      	movs	r2, r3
1000081c:	2900      	cmp	r1, #0
1000081e:	d1fb      	bne.n	10000818 <stdio_set_driver_enabled+0x20>
10000820:	68db      	ldr	r3, [r3, #12]
10000822:	60d3      	str	r3, [r2, #12]
10000824:	60c1      	str	r1, [r0, #12]
10000826:	e7f7      	b.n	10000818 <stdio_set_driver_enabled+0x20>
10000828:	2900      	cmp	r1, #0
1000082a:	d0f5      	beq.n	10000818 <stdio_set_driver_enabled+0x20>
1000082c:	6010      	str	r0, [r2, #0]
1000082e:	e7f3      	b.n	10000818 <stdio_set_driver_enabled+0x20>
10000830:	200016c8 	.word	0x200016c8

10000834 <stdio_flush>:
10000834:	4b08      	ldr	r3, [pc, #32]	; (10000858 <stdio_flush+0x24>)
10000836:	b510      	push	{r4, lr}
10000838:	681c      	ldr	r4, [r3, #0]
1000083a:	2c00      	cmp	r4, #0
1000083c:	d006      	beq.n	1000084c <stdio_flush+0x18>
1000083e:	6863      	ldr	r3, [r4, #4]
10000840:	2b00      	cmp	r3, #0
10000842:	d004      	beq.n	1000084e <stdio_flush+0x1a>
10000844:	4798      	blx	r3
10000846:	68e4      	ldr	r4, [r4, #12]
10000848:	2c00      	cmp	r4, #0
1000084a:	d1f8      	bne.n	1000083e <stdio_flush+0xa>
1000084c:	bd10      	pop	{r4, pc}
1000084e:	68e4      	ldr	r4, [r4, #12]
10000850:	2c00      	cmp	r4, #0
10000852:	d1f4      	bne.n	1000083e <stdio_flush+0xa>
10000854:	e7fa      	b.n	1000084c <stdio_flush+0x18>
10000856:	46c0      	nop			; (mov r8, r8)
10000858:	200016c8 	.word	0x200016c8

1000085c <__wrap_vprintf>:
1000085c:	b5f0      	push	{r4, r5, r6, r7, lr}
1000085e:	4646      	mov	r6, r8
10000860:	46d6      	mov	lr, sl
10000862:	464f      	mov	r7, r9
10000864:	23d0      	movs	r3, #208	; 0xd0
10000866:	b5c0      	push	{r6, r7, lr}
10000868:	061b      	lsls	r3, r3, #24
1000086a:	681f      	ldr	r7, [r3, #0]
1000086c:	4b31      	ldr	r3, [pc, #196]	; (10000934 <__wrap_vprintf+0xd8>)
1000086e:	b0a2      	sub	sp, #136	; 0x88
10000870:	0004      	movs	r4, r0
10000872:	000d      	movs	r5, r1
10000874:	0018      	movs	r0, r3
10000876:	a901      	add	r1, sp, #4
10000878:	4698      	mov	r8, r3
1000087a:	f007 fe61 	bl	10008540 <__mutex_try_enter_veneer>
1000087e:	1e06      	subs	r6, r0, #0
10000880:	d106      	bne.n	10000890 <__wrap_vprintf+0x34>
10000882:	9b01      	ldr	r3, [sp, #4]
10000884:	429f      	cmp	r7, r3
10000886:	d003      	beq.n	10000890 <__wrap_vprintf+0x34>
10000888:	4640      	mov	r0, r8
1000088a:	f007 fe69 	bl	10008560 <__mutex_enter_blocking_veneer>
1000088e:	3601      	adds	r6, #1
10000890:	2284      	movs	r2, #132	; 0x84
10000892:	2100      	movs	r1, #0
10000894:	a801      	add	r0, sp, #4
10000896:	f005 ffcb 	bl	10006830 <__wrap_memset>
1000089a:	002b      	movs	r3, r5
1000089c:	0022      	movs	r2, r4
1000089e:	4826      	ldr	r0, [pc, #152]	; (10000938 <__wrap_vprintf+0xdc>)
100008a0:	a901      	add	r1, sp, #4
100008a2:	f001 fb5d 	bl	10001f60 <vfctprintf>
100008a6:	9b01      	ldr	r3, [sp, #4]
100008a8:	0007      	movs	r7, r0
100008aa:	2b00      	cmp	r3, #0
100008ac:	d115      	bne.n	100008da <__wrap_vprintf+0x7e>
100008ae:	4b23      	ldr	r3, [pc, #140]	; (1000093c <__wrap_vprintf+0xe0>)
100008b0:	681c      	ldr	r4, [r3, #0]
100008b2:	2c00      	cmp	r4, #0
100008b4:	d006      	beq.n	100008c4 <__wrap_vprintf+0x68>
100008b6:	6863      	ldr	r3, [r4, #4]
100008b8:	2b00      	cmp	r3, #0
100008ba:	d00c      	beq.n	100008d6 <__wrap_vprintf+0x7a>
100008bc:	4798      	blx	r3
100008be:	68e4      	ldr	r4, [r4, #12]
100008c0:	2c00      	cmp	r4, #0
100008c2:	d1f8      	bne.n	100008b6 <__wrap_vprintf+0x5a>
100008c4:	2e00      	cmp	r6, #0
100008c6:	d12f      	bne.n	10000928 <__wrap_vprintf+0xcc>
100008c8:	0038      	movs	r0, r7
100008ca:	b022      	add	sp, #136	; 0x88
100008cc:	bc1c      	pop	{r2, r3, r4}
100008ce:	4690      	mov	r8, r2
100008d0:	4699      	mov	r9, r3
100008d2:	46a2      	mov	sl, r4
100008d4:	bdf0      	pop	{r4, r5, r6, r7, pc}
100008d6:	68e4      	ldr	r4, [r4, #12]
100008d8:	e7eb      	b.n	100008b2 <__wrap_vprintf+0x56>
100008da:	4b18      	ldr	r3, [pc, #96]	; (1000093c <__wrap_vprintf+0xe0>)
100008dc:	681d      	ldr	r5, [r3, #0]
100008de:	469a      	mov	sl, r3
100008e0:	2d00      	cmp	r5, #0
100008e2:	d025      	beq.n	10000930 <__wrap_vprintf+0xd4>
100008e4:	4b16      	ldr	r3, [pc, #88]	; (10000940 <__wrap_vprintf+0xe4>)
100008e6:	4699      	mov	r9, r3
100008e8:	e002      	b.n	100008f0 <__wrap_vprintf+0x94>
100008ea:	68ed      	ldr	r5, [r5, #12]
100008ec:	2d00      	cmp	r5, #0
100008ee:	d013      	beq.n	10000918 <__wrap_vprintf+0xbc>
100008f0:	682c      	ldr	r4, [r5, #0]
100008f2:	2c00      	cmp	r4, #0
100008f4:	d0f9      	beq.n	100008ea <__wrap_vprintf+0x8e>
100008f6:	464b      	mov	r3, r9
100008f8:	681b      	ldr	r3, [r3, #0]
100008fa:	2b00      	cmp	r3, #0
100008fc:	d001      	beq.n	10000902 <__wrap_vprintf+0xa6>
100008fe:	429d      	cmp	r5, r3
10000900:	d1f3      	bne.n	100008ea <__wrap_vprintf+0x8e>
10000902:	7c6b      	ldrb	r3, [r5, #17]
10000904:	9a01      	ldr	r2, [sp, #4]
10000906:	2b00      	cmp	r3, #0
10000908:	d00a      	beq.n	10000920 <__wrap_vprintf+0xc4>
1000090a:	0028      	movs	r0, r5
1000090c:	a902      	add	r1, sp, #8
1000090e:	f7ff fdf1 	bl	100004f4 <stdio_out_chars_crlf.part.0>
10000912:	68ed      	ldr	r5, [r5, #12]
10000914:	2d00      	cmp	r5, #0
10000916:	d1eb      	bne.n	100008f0 <__wrap_vprintf+0x94>
10000918:	4653      	mov	r3, sl
1000091a:	9501      	str	r5, [sp, #4]
1000091c:	681c      	ldr	r4, [r3, #0]
1000091e:	e7c8      	b.n	100008b2 <__wrap_vprintf+0x56>
10000920:	0011      	movs	r1, r2
10000922:	a802      	add	r0, sp, #8
10000924:	47a0      	blx	r4
10000926:	e7e0      	b.n	100008ea <__wrap_vprintf+0x8e>
10000928:	4640      	mov	r0, r8
1000092a:	f007 fde9 	bl	10008500 <__mutex_exit_veneer>
1000092e:	e7cb      	b.n	100008c8 <__wrap_vprintf+0x6c>
10000930:	9501      	str	r5, [sp, #4]
10000932:	e7c7      	b.n	100008c4 <__wrap_vprintf+0x68>
10000934:	20000bd0 	.word	0x20000bd0
10000938:	10000579 	.word	0x10000579
1000093c:	200016c8 	.word	0x200016c8
10000940:	200016cc 	.word	0x200016cc

10000944 <__wrap_printf>:
10000944:	b40f      	push	{r0, r1, r2, r3}
10000946:	b500      	push	{lr}
10000948:	b083      	sub	sp, #12
1000094a:	a904      	add	r1, sp, #16
1000094c:	c901      	ldmia	r1!, {r0}
1000094e:	9101      	str	r1, [sp, #4]
10000950:	f7ff ff84 	bl	1000085c <__wrap_vprintf>
10000954:	b003      	add	sp, #12
10000956:	bc08      	pop	{r3}
10000958:	b004      	add	sp, #16
1000095a:	4718      	bx	r3

1000095c <stdio_init_all>:
1000095c:	b510      	push	{r4, lr}
1000095e:	f7ff fd91 	bl	10000484 <stdio_uart_init>
10000962:	f001 fbe9 	bl	10002138 <stdio_usb_init>
10000966:	bd10      	pop	{r4, pc}

10000968 <_out_null>:
10000968:	4770      	bx	lr
1000096a:	46c0      	nop			; (mov r8, r8)

1000096c <_out_rev>:
1000096c:	b5f8      	push	{r3, r4, r5, r6, r7, lr}
1000096e:	4657      	mov	r7, sl
10000970:	464e      	mov	r6, r9
10000972:	46de      	mov	lr, fp
10000974:	4645      	mov	r5, r8
10000976:	b5e0      	push	{r5, r6, r7, lr}
10000978:	001f      	movs	r7, r3
1000097a:	9b0a      	ldr	r3, [sp, #40]	; 0x28
1000097c:	0005      	movs	r5, r0
1000097e:	469b      	mov	fp, r3
10000980:	9b0d      	ldr	r3, [sp, #52]	; 0x34
10000982:	000e      	movs	r6, r1
10000984:	4691      	mov	r9, r2
10000986:	4692      	mov	sl, r2
10000988:	079b      	lsls	r3, r3, #30
1000098a:	d118      	bne.n	100009be <_out_rev+0x52>
1000098c:	9b0b      	ldr	r3, [sp, #44]	; 0x2c
1000098e:	9a0c      	ldr	r2, [sp, #48]	; 0x30
10000990:	4293      	cmp	r3, r2
10000992:	d214      	bcs.n	100009be <_out_rev+0x52>
10000994:	0013      	movs	r3, r2
10000996:	9a0b      	ldr	r2, [sp, #44]	; 0x2c
10000998:	46b8      	mov	r8, r7
1000099a:	1a9b      	subs	r3, r3, r2
1000099c:	444b      	add	r3, r9
1000099e:	464c      	mov	r4, r9
100009a0:	000f      	movs	r7, r1
100009a2:	0006      	movs	r6, r0
100009a4:	001d      	movs	r5, r3
100009a6:	0022      	movs	r2, r4
100009a8:	4643      	mov	r3, r8
100009aa:	3401      	adds	r4, #1
100009ac:	0039      	movs	r1, r7
100009ae:	2020      	movs	r0, #32
100009b0:	47b0      	blx	r6
100009b2:	42ac      	cmp	r4, r5
100009b4:	d1f7      	bne.n	100009a6 <_out_rev+0x3a>
100009b6:	46aa      	mov	sl, r5
100009b8:	0035      	movs	r5, r6
100009ba:	003e      	movs	r6, r7
100009bc:	4647      	mov	r7, r8
100009be:	9b0b      	ldr	r3, [sp, #44]	; 0x2c
100009c0:	2b00      	cmp	r3, #0
100009c2:	d038      	beq.n	10000a36 <_out_rev+0xca>
100009c4:	449a      	add	sl, r3
100009c6:	001c      	movs	r4, r3
100009c8:	46d0      	mov	r8, sl
100009ca:	4653      	mov	r3, sl
100009cc:	1b1a      	subs	r2, r3, r4
100009ce:	465b      	mov	r3, fp
100009d0:	3c01      	subs	r4, #1
100009d2:	5d18      	ldrb	r0, [r3, r4]
100009d4:	0031      	movs	r1, r6
100009d6:	003b      	movs	r3, r7
100009d8:	47a8      	blx	r5
100009da:	2c00      	cmp	r4, #0
100009dc:	d1f5      	bne.n	100009ca <_out_rev+0x5e>
100009de:	9b0d      	ldr	r3, [sp, #52]	; 0x34
100009e0:	079b      	lsls	r3, r3, #30
100009e2:	d521      	bpl.n	10000a28 <_out_rev+0xbc>
100009e4:	4643      	mov	r3, r8
100009e6:	464a      	mov	r2, r9
100009e8:	1a9c      	subs	r4, r3, r2
100009ea:	9b0c      	ldr	r3, [sp, #48]	; 0x30
100009ec:	42a3      	cmp	r3, r4
100009ee:	d91b      	bls.n	10000a28 <_out_rev+0xbc>
100009f0:	003a      	movs	r2, r7
100009f2:	469a      	mov	sl, r3
100009f4:	464f      	mov	r7, r9
100009f6:	4691      	mov	r9, r2
100009f8:	19e2      	adds	r2, r4, r7
100009fa:	464b      	mov	r3, r9
100009fc:	0031      	movs	r1, r6
100009fe:	2020      	movs	r0, #32
10000a00:	3401      	adds	r4, #1
10000a02:	47a8      	blx	r5
10000a04:	4554      	cmp	r4, sl
10000a06:	d3f7      	bcc.n	100009f8 <_out_rev+0x8c>
10000a08:	4643      	mov	r3, r8
10000a0a:	990c      	ldr	r1, [sp, #48]	; 0x30
10000a0c:	1bdb      	subs	r3, r3, r7
10000a0e:	3301      	adds	r3, #1
10000a10:	46b9      	mov	r9, r7
10000a12:	2200      	movs	r2, #0
10000a14:	4299      	cmp	r1, r3
10000a16:	d303      	bcc.n	10000a20 <_out_rev+0xb4>
10000a18:	4643      	mov	r3, r8
10000a1a:	1e4a      	subs	r2, r1, #1
10000a1c:	444a      	add	r2, r9
10000a1e:	1ad2      	subs	r2, r2, r3
10000a20:	4643      	mov	r3, r8
10000a22:	4690      	mov	r8, r2
10000a24:	3301      	adds	r3, #1
10000a26:	4498      	add	r8, r3
10000a28:	4640      	mov	r0, r8
10000a2a:	bc3c      	pop	{r2, r3, r4, r5}
10000a2c:	4690      	mov	r8, r2
10000a2e:	4699      	mov	r9, r3
10000a30:	46a2      	mov	sl, r4
10000a32:	46ab      	mov	fp, r5
10000a34:	bdf8      	pop	{r3, r4, r5, r6, r7, pc}
10000a36:	46d0      	mov	r8, sl
10000a38:	e7d1      	b.n	100009de <_out_rev+0x72>
10000a3a:	46c0      	nop			; (mov r8, r8)

10000a3c <_ntoa_format>:
10000a3c:	b5f0      	push	{r4, r5, r6, r7, lr}
10000a3e:	464f      	mov	r7, r9
10000a40:	4646      	mov	r6, r8
10000a42:	46d6      	mov	lr, sl
10000a44:	b5c0      	push	{r6, r7, lr}
10000a46:	b084      	sub	sp, #16
10000a48:	4698      	mov	r8, r3
10000a4a:	ab0e      	add	r3, sp, #56	; 0x38
10000a4c:	781b      	ldrb	r3, [r3, #0]
10000a4e:	9f12      	ldr	r7, [sp, #72]	; 0x48
10000a50:	4699      	mov	r9, r3
10000a52:	4694      	mov	ip, r2
10000a54:	9c0d      	ldr	r4, [sp, #52]	; 0x34
10000a56:	9b10      	ldr	r3, [sp, #64]	; 0x40
10000a58:	9e11      	ldr	r6, [sp, #68]	; 0x44
10000a5a:	07ba      	lsls	r2, r7, #30
10000a5c:	d425      	bmi.n	10000aaa <_ntoa_format+0x6e>
10000a5e:	2e00      	cmp	r6, #0
10000a60:	d169      	bne.n	10000b36 <_ntoa_format+0xfa>
10000a62:	429c      	cmp	r4, r3
10000a64:	d300      	bcc.n	10000a68 <_ntoa_format+0x2c>
10000a66:	e0c2      	b.n	10000bee <_ntoa_format+0x1b2>
10000a68:	2201      	movs	r2, #1
10000a6a:	403a      	ands	r2, r7
10000a6c:	4692      	mov	sl, r2
10000a6e:	2c1f      	cmp	r4, #31
10000a70:	d900      	bls.n	10000a74 <_ntoa_format+0x38>
10000a72:	e0bb      	b.n	10000bec <_ntoa_format+0x1b0>
10000a74:	9a0c      	ldr	r2, [sp, #48]	; 0x30
10000a76:	1e55      	subs	r5, r2, #1
10000a78:	2230      	movs	r2, #48	; 0x30
10000a7a:	e001      	b.n	10000a80 <_ntoa_format+0x44>
10000a7c:	2c20      	cmp	r4, #32
10000a7e:	d003      	beq.n	10000a88 <_ntoa_format+0x4c>
10000a80:	3401      	adds	r4, #1
10000a82:	552a      	strb	r2, [r5, r4]
10000a84:	42a3      	cmp	r3, r4
10000a86:	d8f9      	bhi.n	10000a7c <_ntoa_format+0x40>
10000a88:	4652      	mov	r2, sl
10000a8a:	2a00      	cmp	r2, #0
10000a8c:	d00d      	beq.n	10000aaa <_ntoa_format+0x6e>
10000a8e:	42b4      	cmp	r4, r6
10000a90:	d20b      	bcs.n	10000aaa <_ntoa_format+0x6e>
10000a92:	2c1f      	cmp	r4, #31
10000a94:	d862      	bhi.n	10000b5c <_ntoa_format+0x120>
10000a96:	9a0c      	ldr	r2, [sp, #48]	; 0x30
10000a98:	1e55      	subs	r5, r2, #1
10000a9a:	2230      	movs	r2, #48	; 0x30
10000a9c:	e001      	b.n	10000aa2 <_ntoa_format+0x66>
10000a9e:	2c20      	cmp	r4, #32
10000aa0:	d05c      	beq.n	10000b5c <_ntoa_format+0x120>
10000aa2:	3401      	adds	r4, #1
10000aa4:	552a      	strb	r2, [r5, r4]
10000aa6:	42b4      	cmp	r4, r6
10000aa8:	d1f9      	bne.n	10000a9e <_ntoa_format+0x62>
10000aaa:	06fa      	lsls	r2, r7, #27
10000aac:	d535      	bpl.n	10000b1a <_ntoa_format+0xde>
10000aae:	057a      	lsls	r2, r7, #21
10000ab0:	d45d      	bmi.n	10000b6e <_ntoa_format+0x132>
10000ab2:	2c00      	cmp	r4, #0
10000ab4:	d157      	bne.n	10000b66 <_ntoa_format+0x12a>
10000ab6:	9b0f      	ldr	r3, [sp, #60]	; 0x3c
10000ab8:	2b10      	cmp	r3, #16
10000aba:	d100      	bne.n	10000abe <_ntoa_format+0x82>
10000abc:	e07c      	b.n	10000bb8 <_ntoa_format+0x17c>
10000abe:	9b0f      	ldr	r3, [sp, #60]	; 0x3c
10000ac0:	2b02      	cmp	r3, #2
10000ac2:	d100      	bne.n	10000ac6 <_ntoa_format+0x8a>
10000ac4:	e08d      	b.n	10000be2 <_ntoa_format+0x1a6>
10000ac6:	2330      	movs	r3, #48	; 0x30
10000ac8:	9a0c      	ldr	r2, [sp, #48]	; 0x30
10000aca:	2401      	movs	r4, #1
10000acc:	7013      	strb	r3, [r2, #0]
10000ace:	464b      	mov	r3, r9
10000ad0:	2b00      	cmp	r3, #0
10000ad2:	d027      	beq.n	10000b24 <_ntoa_format+0xe8>
10000ad4:	232d      	movs	r3, #45	; 0x2d
10000ad6:	9a0c      	ldr	r2, [sp, #48]	; 0x30
10000ad8:	5513      	strb	r3, [r2, r4]
10000ada:	3401      	adds	r4, #1
10000adc:	9b0c      	ldr	r3, [sp, #48]	; 0x30
10000ade:	4662      	mov	r2, ip
10000ae0:	9300      	str	r3, [sp, #0]
10000ae2:	9703      	str	r7, [sp, #12]
10000ae4:	4643      	mov	r3, r8
10000ae6:	9602      	str	r6, [sp, #8]
10000ae8:	9401      	str	r4, [sp, #4]
10000aea:	f7ff ff3f 	bl	1000096c <_out_rev>
10000aee:	b004      	add	sp, #16
10000af0:	bc1c      	pop	{r2, r3, r4}
10000af2:	4690      	mov	r8, r2
10000af4:	4699      	mov	r9, r3
10000af6:	46a2      	mov	sl, r4
10000af8:	bdf0      	pop	{r4, r5, r6, r7, pc}
10000afa:	06bb      	lsls	r3, r7, #26
10000afc:	d463      	bmi.n	10000bc6 <_ntoa_format+0x18a>
10000afe:	2c20      	cmp	r4, #32
10000b00:	d0ec      	beq.n	10000adc <_ntoa_format+0xa0>
10000b02:	9b0c      	ldr	r3, [sp, #48]	; 0x30
10000b04:	191a      	adds	r2, r3, r4
10000b06:	3401      	adds	r4, #1
10000b08:	2378      	movs	r3, #120	; 0x78
10000b0a:	7013      	strb	r3, [r2, #0]
10000b0c:	2c20      	cmp	r4, #32
10000b0e:	d0e5      	beq.n	10000adc <_ntoa_format+0xa0>
10000b10:	2230      	movs	r2, #48	; 0x30
10000b12:	9b0c      	ldr	r3, [sp, #48]	; 0x30
10000b14:	191b      	adds	r3, r3, r4
10000b16:	701a      	strb	r2, [r3, #0]
10000b18:	3401      	adds	r4, #1
10000b1a:	2c20      	cmp	r4, #32
10000b1c:	d0de      	beq.n	10000adc <_ntoa_format+0xa0>
10000b1e:	464b      	mov	r3, r9
10000b20:	2b00      	cmp	r3, #0
10000b22:	d1d7      	bne.n	10000ad4 <_ntoa_format+0x98>
10000b24:	077b      	lsls	r3, r7, #29
10000b26:	d435      	bmi.n	10000b94 <_ntoa_format+0x158>
10000b28:	073b      	lsls	r3, r7, #28
10000b2a:	d5d7      	bpl.n	10000adc <_ntoa_format+0xa0>
10000b2c:	2320      	movs	r3, #32
10000b2e:	9a0c      	ldr	r2, [sp, #48]	; 0x30
10000b30:	5513      	strb	r3, [r2, r4]
10000b32:	3401      	adds	r4, #1
10000b34:	e7d2      	b.n	10000adc <_ntoa_format+0xa0>
10000b36:	2201      	movs	r2, #1
10000b38:	0015      	movs	r5, r2
10000b3a:	403d      	ands	r5, r7
10000b3c:	46aa      	mov	sl, r5
10000b3e:	423a      	tst	r2, r7
10000b40:	d020      	beq.n	10000b84 <_ntoa_format+0x148>
10000b42:	464a      	mov	r2, r9
10000b44:	2a00      	cmp	r2, #0
10000b46:	d12a      	bne.n	10000b9e <_ntoa_format+0x162>
10000b48:	320c      	adds	r2, #12
10000b4a:	423a      	tst	r2, r7
10000b4c:	d127      	bne.n	10000b9e <_ntoa_format+0x162>
10000b4e:	429c      	cmp	r4, r3
10000b50:	d29d      	bcs.n	10000a8e <_ntoa_format+0x52>
10000b52:	2c1f      	cmp	r4, #31
10000b54:	d800      	bhi.n	10000b58 <_ntoa_format+0x11c>
10000b56:	e78d      	b.n	10000a74 <_ntoa_format+0x38>
10000b58:	2e20      	cmp	r6, #32
10000b5a:	d919      	bls.n	10000b90 <_ntoa_format+0x154>
10000b5c:	2420      	movs	r4, #32
10000b5e:	06fa      	lsls	r2, r7, #27
10000b60:	d5bc      	bpl.n	10000adc <_ntoa_format+0xa0>
10000b62:	057a      	lsls	r2, r7, #21
10000b64:	d403      	bmi.n	10000b6e <_ntoa_format+0x132>
10000b66:	42a3      	cmp	r3, r4
10000b68:	d01b      	beq.n	10000ba2 <_ntoa_format+0x166>
10000b6a:	42a6      	cmp	r6, r4
10000b6c:	d019      	beq.n	10000ba2 <_ntoa_format+0x166>
10000b6e:	9b0f      	ldr	r3, [sp, #60]	; 0x3c
10000b70:	2b10      	cmp	r3, #16
10000b72:	d0c2      	beq.n	10000afa <_ntoa_format+0xbe>
10000b74:	2b02      	cmp	r3, #2
10000b76:	d1c9      	bne.n	10000b0c <_ntoa_format+0xd0>
10000b78:	2c20      	cmp	r4, #32
10000b7a:	d0af      	beq.n	10000adc <_ntoa_format+0xa0>
10000b7c:	9b0c      	ldr	r3, [sp, #48]	; 0x30
10000b7e:	191b      	adds	r3, r3, r4
10000b80:	3401      	adds	r4, #1
10000b82:	e040      	b.n	10000c06 <_ntoa_format+0x1ca>
10000b84:	429c      	cmp	r4, r3
10000b86:	d300      	bcc.n	10000b8a <_ntoa_format+0x14e>
10000b88:	e78f      	b.n	10000aaa <_ntoa_format+0x6e>
10000b8a:	2c1f      	cmp	r4, #31
10000b8c:	d800      	bhi.n	10000b90 <_ntoa_format+0x154>
10000b8e:	e771      	b.n	10000a74 <_ntoa_format+0x38>
10000b90:	2420      	movs	r4, #32
10000b92:	e78a      	b.n	10000aaa <_ntoa_format+0x6e>
10000b94:	232b      	movs	r3, #43	; 0x2b
10000b96:	9a0c      	ldr	r2, [sp, #48]	; 0x30
10000b98:	5513      	strb	r3, [r2, r4]
10000b9a:	3401      	adds	r4, #1
10000b9c:	e79e      	b.n	10000adc <_ntoa_format+0xa0>
10000b9e:	3e01      	subs	r6, #1
10000ba0:	e7d5      	b.n	10000b4e <_ntoa_format+0x112>
10000ba2:	1e63      	subs	r3, r4, #1
10000ba4:	2c01      	cmp	r4, #1
10000ba6:	d100      	bne.n	10000baa <_ntoa_format+0x16e>
10000ba8:	e785      	b.n	10000ab6 <_ntoa_format+0x7a>
10000baa:	9a0f      	ldr	r2, [sp, #60]	; 0x3c
10000bac:	2a10      	cmp	r2, #16
10000bae:	d020      	beq.n	10000bf2 <_ntoa_format+0x1b6>
10000bb0:	2a02      	cmp	r2, #2
10000bb2:	d025      	beq.n	10000c00 <_ntoa_format+0x1c4>
10000bb4:	001c      	movs	r4, r3
10000bb6:	e7ab      	b.n	10000b10 <_ntoa_format+0xd4>
10000bb8:	06bb      	lsls	r3, r7, #26
10000bba:	d40d      	bmi.n	10000bd8 <_ntoa_format+0x19c>
10000bbc:	2378      	movs	r3, #120	; 0x78
10000bbe:	9a0c      	ldr	r2, [sp, #48]	; 0x30
10000bc0:	2401      	movs	r4, #1
10000bc2:	7013      	strb	r3, [r2, #0]
10000bc4:	e7a4      	b.n	10000b10 <_ntoa_format+0xd4>
10000bc6:	2c20      	cmp	r4, #32
10000bc8:	d100      	bne.n	10000bcc <_ntoa_format+0x190>
10000bca:	e787      	b.n	10000adc <_ntoa_format+0xa0>
10000bcc:	2258      	movs	r2, #88	; 0x58
10000bce:	9b0c      	ldr	r3, [sp, #48]	; 0x30
10000bd0:	191b      	adds	r3, r3, r4
10000bd2:	701a      	strb	r2, [r3, #0]
10000bd4:	3401      	adds	r4, #1
10000bd6:	e799      	b.n	10000b0c <_ntoa_format+0xd0>
10000bd8:	2358      	movs	r3, #88	; 0x58
10000bda:	9a0c      	ldr	r2, [sp, #48]	; 0x30
10000bdc:	2401      	movs	r4, #1
10000bde:	7013      	strb	r3, [r2, #0]
10000be0:	e796      	b.n	10000b10 <_ntoa_format+0xd4>
10000be2:	9a0c      	ldr	r2, [sp, #48]	; 0x30
10000be4:	3360      	adds	r3, #96	; 0x60
10000be6:	2401      	movs	r4, #1
10000be8:	7013      	strb	r3, [r2, #0]
10000bea:	e791      	b.n	10000b10 <_ntoa_format+0xd4>
10000bec:	2420      	movs	r4, #32
10000bee:	2600      	movs	r6, #0
10000bf0:	e75b      	b.n	10000aaa <_ntoa_format+0x6e>
10000bf2:	3c02      	subs	r4, #2
10000bf4:	06ba      	lsls	r2, r7, #26
10000bf6:	d4e9      	bmi.n	10000bcc <_ntoa_format+0x190>
10000bf8:	9a0c      	ldr	r2, [sp, #48]	; 0x30
10000bfa:	1912      	adds	r2, r2, r4
10000bfc:	001c      	movs	r4, r3
10000bfe:	e783      	b.n	10000b08 <_ntoa_format+0xcc>
10000c00:	9a0c      	ldr	r2, [sp, #48]	; 0x30
10000c02:	4692      	mov	sl, r2
10000c04:	4453      	add	r3, sl
10000c06:	2262      	movs	r2, #98	; 0x62
10000c08:	701a      	strb	r2, [r3, #0]
10000c0a:	e77f      	b.n	10000b0c <_ntoa_format+0xd0>

10000c0c <_out_char>:
10000c0c:	b510      	push	{r4, lr}
10000c0e:	2800      	cmp	r0, #0
10000c10:	d100      	bne.n	10000c14 <_out_char+0x8>
10000c12:	bd10      	pop	{r4, pc}
10000c14:	f7ff fd6c 	bl	100006f0 <__wrap_putchar>
10000c18:	e7fb      	b.n	10000c12 <_out_char+0x6>
10000c1a:	46c0      	nop			; (mov r8, r8)

10000c1c <_out_fct>:
10000c1c:	000b      	movs	r3, r1
10000c1e:	b510      	push	{r4, lr}
10000c20:	2800      	cmp	r0, #0
10000c22:	d002      	beq.n	10000c2a <_out_fct+0xe>
10000c24:	6849      	ldr	r1, [r1, #4]
10000c26:	681b      	ldr	r3, [r3, #0]
10000c28:	4798      	blx	r3
10000c2a:	bd10      	pop	{r4, pc}

10000c2c <_etoa>:
10000c2c:	b5f0      	push	{r4, r5, r6, r7, lr}
10000c2e:	46de      	mov	lr, fp
10000c30:	4657      	mov	r7, sl
10000c32:	464e      	mov	r6, r9
10000c34:	4645      	mov	r5, r8
10000c36:	b5e0      	push	{r5, r6, r7, lr}
10000c38:	b09b      	sub	sp, #108	; 0x6c
10000c3a:	469a      	mov	sl, r3
10000c3c:	9b24      	ldr	r3, [sp, #144]	; 0x90
10000c3e:	468b      	mov	fp, r1
10000c40:	4699      	mov	r9, r3
10000c42:	9b25      	ldr	r3, [sp, #148]	; 0x94
10000c44:	900b      	str	r0, [sp, #44]	; 0x2c
10000c46:	4698      	mov	r8, r3
10000c48:	920c      	str	r2, [sp, #48]	; 0x30
10000c4a:	4643      	mov	r3, r8
10000c4c:	464a      	mov	r2, r9
10000c4e:	4648      	mov	r0, r9
10000c50:	4641      	mov	r1, r8
10000c52:	f005 f9de 	bl	10006012 <__wrap___aeabi_dcmpun>
10000c56:	2800      	cmp	r0, #0
10000c58:	d000      	beq.n	10000c5c <_etoa+0x30>
10000c5a:	e1a3      	b.n	10000fa4 <_etoa+0x378>
10000c5c:	2201      	movs	r2, #1
10000c5e:	4648      	mov	r0, r9
10000c60:	4641      	mov	r1, r8
10000c62:	4be2      	ldr	r3, [pc, #904]	; (10000fec <_etoa+0x3c0>)
10000c64:	4252      	negs	r2, r2
10000c66:	f005 f9cf 	bl	10006008 <__wrap___aeabi_dcmpgt>
10000c6a:	2800      	cmp	r0, #0
10000c6c:	d000      	beq.n	10000c70 <_etoa+0x44>
10000c6e:	e199      	b.n	10000fa4 <_etoa+0x378>
10000c70:	2201      	movs	r2, #1
10000c72:	4648      	mov	r0, r9
10000c74:	4641      	mov	r1, r8
10000c76:	4bde      	ldr	r3, [pc, #888]	; (10000ff0 <_etoa+0x3c4>)
10000c78:	4252      	negs	r2, r2
10000c7a:	f005 f9af 	bl	10005fdc <__wrap___aeabi_dcmplt>
10000c7e:	2800      	cmp	r0, #0
10000c80:	d000      	beq.n	10000c84 <_etoa+0x58>
10000c82:	e18f      	b.n	10000fa4 <_etoa+0x378>
10000c84:	2200      	movs	r2, #0
10000c86:	2300      	movs	r3, #0
10000c88:	4648      	mov	r0, r9
10000c8a:	4641      	mov	r1, r8
10000c8c:	f005 f9a6 	bl	10005fdc <__wrap___aeabi_dcmplt>
10000c90:	2800      	cmp	r0, #0
10000c92:	d000      	beq.n	10000c96 <_etoa+0x6a>
10000c94:	e1de      	b.n	10001054 <_etoa+0x428>
10000c96:	464a      	mov	r2, r9
10000c98:	4643      	mov	r3, r8
10000c9a:	920a      	str	r2, [sp, #40]	; 0x28
10000c9c:	9309      	str	r3, [sp, #36]	; 0x24
10000c9e:	2380      	movs	r3, #128	; 0x80
10000ca0:	9a28      	ldr	r2, [sp, #160]	; 0xa0
10000ca2:	00db      	lsls	r3, r3, #3
10000ca4:	401a      	ands	r2, r3
10000ca6:	9211      	str	r2, [sp, #68]	; 0x44
10000ca8:	9a28      	ldr	r2, [sp, #160]	; 0xa0
10000caa:	421a      	tst	r2, r3
10000cac:	d101      	bne.n	10000cb2 <_etoa+0x86>
10000cae:	2306      	movs	r3, #6
10000cb0:	9326      	str	r3, [sp, #152]	; 0x98
10000cb2:	4bd0      	ldr	r3, [pc, #832]	; (10000ff4 <_etoa+0x3c8>)
10000cb4:	9f09      	ldr	r7, [sp, #36]	; 0x24
10000cb6:	469c      	mov	ip, r3
10000cb8:	0078      	lsls	r0, r7, #1
10000cba:	0d40      	lsrs	r0, r0, #21
10000cbc:	4460      	add	r0, ip
10000cbe:	f005 f9bb 	bl	10006038 <__wrap___aeabi_i2d>
10000cc2:	4acd      	ldr	r2, [pc, #820]	; (10000ff8 <_etoa+0x3cc>)
10000cc4:	4bcd      	ldr	r3, [pc, #820]	; (10000ffc <_etoa+0x3d0>)
10000cc6:	f005 f947 	bl	10005f58 <__wrap___aeabi_dmul>
10000cca:	4acd      	ldr	r2, [pc, #820]	; (10001000 <_etoa+0x3d4>)
10000ccc:	4bcd      	ldr	r3, [pc, #820]	; (10001004 <_etoa+0x3d8>)
10000cce:	f005 f931 	bl	10005f34 <__wrap___aeabi_dadd>
10000cd2:	033b      	lsls	r3, r7, #12
10000cd4:	4acc      	ldr	r2, [pc, #816]	; (10001008 <_etoa+0x3dc>)
10000cd6:	9e0a      	ldr	r6, [sp, #40]	; 0x28
10000cd8:	0b1b      	lsrs	r3, r3, #12
10000cda:	431a      	orrs	r2, r3
10000cdc:	0004      	movs	r4, r0
10000cde:	000d      	movs	r5, r1
10000ce0:	0030      	movs	r0, r6
10000ce2:	0011      	movs	r1, r2
10000ce4:	4bc9      	ldr	r3, [pc, #804]	; (1000100c <_etoa+0x3e0>)
10000ce6:	2200      	movs	r2, #0
10000ce8:	9709      	str	r7, [sp, #36]	; 0x24
10000cea:	f005 f91a 	bl	10005f22 <__wrap___aeabi_dsub>
10000cee:	4ac8      	ldr	r2, [pc, #800]	; (10001010 <_etoa+0x3e4>)
10000cf0:	4bc8      	ldr	r3, [pc, #800]	; (10001014 <_etoa+0x3e8>)
10000cf2:	f005 f931 	bl	10005f58 <__wrap___aeabi_dmul>
10000cf6:	0002      	movs	r2, r0
10000cf8:	000b      	movs	r3, r1
10000cfa:	0020      	movs	r0, r4
10000cfc:	0029      	movs	r1, r5
10000cfe:	f005 f919 	bl	10005f34 <__wrap___aeabi_dadd>
10000d02:	f005 f9b1 	bl	10006068 <__wrap___aeabi_d2iz>
10000d06:	900d      	str	r0, [sp, #52]	; 0x34
10000d08:	f005 f996 	bl	10006038 <__wrap___aeabi_i2d>
10000d0c:	4ac2      	ldr	r2, [pc, #776]	; (10001018 <_etoa+0x3ec>)
10000d0e:	4bc3      	ldr	r3, [pc, #780]	; (1000101c <_etoa+0x3f0>)
10000d10:	0004      	movs	r4, r0
10000d12:	000d      	movs	r5, r1
10000d14:	f005 f920 	bl	10005f58 <__wrap___aeabi_dmul>
10000d18:	2200      	movs	r2, #0
10000d1a:	4bc1      	ldr	r3, [pc, #772]	; (10001020 <_etoa+0x3f4>)
10000d1c:	f005 f90a 	bl	10005f34 <__wrap___aeabi_dadd>
10000d20:	f005 f9a2 	bl	10006068 <__wrap___aeabi_d2iz>
10000d24:	4abf      	ldr	r2, [pc, #764]	; (10001024 <_etoa+0x3f8>)
10000d26:	0006      	movs	r6, r0
10000d28:	4bbf      	ldr	r3, [pc, #764]	; (10001028 <_etoa+0x3fc>)
10000d2a:	0020      	movs	r0, r4
10000d2c:	0029      	movs	r1, r5
10000d2e:	f005 f913 	bl	10005f58 <__wrap___aeabi_dmul>
10000d32:	0004      	movs	r4, r0
10000d34:	0030      	movs	r0, r6
10000d36:	000d      	movs	r5, r1
10000d38:	9610      	str	r6, [sp, #64]	; 0x40
10000d3a:	f005 f97d 	bl	10006038 <__wrap___aeabi_i2d>
10000d3e:	4abb      	ldr	r2, [pc, #748]	; (1000102c <_etoa+0x400>)
10000d40:	4bbb      	ldr	r3, [pc, #748]	; (10001030 <_etoa+0x404>)
10000d42:	f005 f909 	bl	10005f58 <__wrap___aeabi_dmul>
10000d46:	0002      	movs	r2, r0
10000d48:	000b      	movs	r3, r1
10000d4a:	0020      	movs	r0, r4
10000d4c:	0029      	movs	r1, r5
10000d4e:	f005 f8e8 	bl	10005f22 <__wrap___aeabi_dsub>
10000d52:	0002      	movs	r2, r0
10000d54:	000b      	movs	r3, r1
10000d56:	0006      	movs	r6, r0
10000d58:	000f      	movs	r7, r1
10000d5a:	f005 f8fd 	bl	10005f58 <__wrap___aeabi_dmul>
10000d5e:	0032      	movs	r2, r6
10000d60:	0004      	movs	r4, r0
10000d62:	000d      	movs	r5, r1
10000d64:	003b      	movs	r3, r7
10000d66:	0030      	movs	r0, r6
10000d68:	0039      	movs	r1, r7
10000d6a:	f005 f8e3 	bl	10005f34 <__wrap___aeabi_dadd>
10000d6e:	2200      	movs	r2, #0
10000d70:	900e      	str	r0, [sp, #56]	; 0x38
10000d72:	910f      	str	r1, [sp, #60]	; 0x3c
10000d74:	4baf      	ldr	r3, [pc, #700]	; (10001034 <_etoa+0x408>)
10000d76:	0020      	movs	r0, r4
10000d78:	0029      	movs	r1, r5
10000d7a:	f005 f8e4 	bl	10005f46 <__wrap___aeabi_ddiv>
10000d7e:	2200      	movs	r2, #0
10000d80:	4bad      	ldr	r3, [pc, #692]	; (10001038 <_etoa+0x40c>)
10000d82:	f005 f8d7 	bl	10005f34 <__wrap___aeabi_dadd>
10000d86:	0002      	movs	r2, r0
10000d88:	000b      	movs	r3, r1
10000d8a:	0020      	movs	r0, r4
10000d8c:	0029      	movs	r1, r5
10000d8e:	f005 f8da 	bl	10005f46 <__wrap___aeabi_ddiv>
10000d92:	2200      	movs	r2, #0
10000d94:	4ba9      	ldr	r3, [pc, #676]	; (1000103c <_etoa+0x410>)
10000d96:	f005 f8cd 	bl	10005f34 <__wrap___aeabi_dadd>
10000d9a:	0002      	movs	r2, r0
10000d9c:	000b      	movs	r3, r1
10000d9e:	0020      	movs	r0, r4
10000da0:	0029      	movs	r1, r5
10000da2:	f005 f8d0 	bl	10005f46 <__wrap___aeabi_ddiv>
10000da6:	000d      	movs	r5, r1
10000da8:	2180      	movs	r1, #128	; 0x80
10000daa:	0004      	movs	r4, r0
10000dac:	0032      	movs	r2, r6
10000dae:	003b      	movs	r3, r7
10000db0:	2000      	movs	r0, #0
10000db2:	05c9      	lsls	r1, r1, #23
10000db4:	f005 f8b5 	bl	10005f22 <__wrap___aeabi_dsub>
10000db8:	0002      	movs	r2, r0
10000dba:	000b      	movs	r3, r1
10000dbc:	0020      	movs	r0, r4
10000dbe:	0029      	movs	r1, r5
10000dc0:	f005 f8b8 	bl	10005f34 <__wrap___aeabi_dadd>
10000dc4:	0002      	movs	r2, r0
10000dc6:	000b      	movs	r3, r1
10000dc8:	980e      	ldr	r0, [sp, #56]	; 0x38
10000dca:	990f      	ldr	r1, [sp, #60]	; 0x3c
10000dcc:	f005 f8bb 	bl	10005f46 <__wrap___aeabi_ddiv>
10000dd0:	2200      	movs	r2, #0
10000dd2:	4b8d      	ldr	r3, [pc, #564]	; (10001008 <_etoa+0x3dc>)
10000dd4:	f005 f8ae 	bl	10005f34 <__wrap___aeabi_dadd>
10000dd8:	9b10      	ldr	r3, [sp, #64]	; 0x40
10000dda:	4a99      	ldr	r2, [pc, #612]	; (10001040 <_etoa+0x414>)
10000ddc:	001c      	movs	r4, r3
10000dde:	4694      	mov	ip, r2
10000de0:	4464      	add	r4, ip
10000de2:	2200      	movs	r2, #0
10000de4:	0523      	lsls	r3, r4, #20
10000de6:	f005 f8b7 	bl	10005f58 <__wrap___aeabi_dmul>
10000dea:	0006      	movs	r6, r0
10000dec:	000f      	movs	r7, r1
10000dee:	0002      	movs	r2, r0
10000df0:	000b      	movs	r3, r1
10000df2:	980a      	ldr	r0, [sp, #40]	; 0x28
10000df4:	9909      	ldr	r1, [sp, #36]	; 0x24
10000df6:	f005 f8f1 	bl	10005fdc <__wrap___aeabi_dcmplt>
10000dfa:	2800      	cmp	r0, #0
10000dfc:	d00a      	beq.n	10000e14 <_etoa+0x1e8>
10000dfe:	9b0d      	ldr	r3, [sp, #52]	; 0x34
10000e00:	0030      	movs	r0, r6
10000e02:	3b01      	subs	r3, #1
10000e04:	0039      	movs	r1, r7
10000e06:	930d      	str	r3, [sp, #52]	; 0x34
10000e08:	2200      	movs	r2, #0
10000e0a:	4b8b      	ldr	r3, [pc, #556]	; (10001038 <_etoa+0x40c>)
10000e0c:	f005 f89b 	bl	10005f46 <__wrap___aeabi_ddiv>
10000e10:	0006      	movs	r6, r0
10000e12:	000f      	movs	r7, r1
10000e14:	9d0d      	ldr	r5, [sp, #52]	; 0x34
10000e16:	24c6      	movs	r4, #198	; 0xc6
10000e18:	002b      	movs	r3, r5
10000e1a:	3363      	adds	r3, #99	; 0x63
10000e1c:	429c      	cmp	r4, r3
10000e1e:	41a4      	sbcs	r4, r4
10000e20:	9b28      	ldr	r3, [sp, #160]	; 0xa0
10000e22:	4264      	negs	r4, r4
10000e24:	3404      	adds	r4, #4
10000e26:	051b      	lsls	r3, r3, #20
10000e28:	d51f      	bpl.n	10000e6a <_etoa+0x23e>
10000e2a:	4a86      	ldr	r2, [pc, #536]	; (10001044 <_etoa+0x418>)
10000e2c:	4b86      	ldr	r3, [pc, #536]	; (10001048 <_etoa+0x41c>)
10000e2e:	980a      	ldr	r0, [sp, #40]	; 0x28
10000e30:	9909      	ldr	r1, [sp, #36]	; 0x24
10000e32:	f005 f8e1 	bl	10005ff8 <__wrap___aeabi_dcmpge>
10000e36:	2800      	cmp	r0, #0
10000e38:	d100      	bne.n	10000e3c <_etoa+0x210>
10000e3a:	e0cc      	b.n	10000fd6 <_etoa+0x3aa>
10000e3c:	2200      	movs	r2, #0
10000e3e:	4b83      	ldr	r3, [pc, #524]	; (1000104c <_etoa+0x420>)
10000e40:	980a      	ldr	r0, [sp, #40]	; 0x28
10000e42:	9909      	ldr	r1, [sp, #36]	; 0x24
10000e44:	f005 f8ca 	bl	10005fdc <__wrap___aeabi_dcmplt>
10000e48:	2800      	cmp	r0, #0
10000e4a:	d100      	bne.n	10000e4e <_etoa+0x222>
10000e4c:	e0c3      	b.n	10000fd6 <_etoa+0x3aa>
10000e4e:	9a26      	ldr	r2, [sp, #152]	; 0x98
10000e50:	4295      	cmp	r5, r2
10000e52:	da00      	bge.n	10000e56 <_etoa+0x22a>
10000e54:	e10b      	b.n	1000106e <_etoa+0x442>
10000e56:	2300      	movs	r3, #0
10000e58:	9326      	str	r3, [sp, #152]	; 0x98
10000e5a:	2380      	movs	r3, #128	; 0x80
10000e5c:	9a28      	ldr	r2, [sp, #160]	; 0xa0
10000e5e:	00db      	lsls	r3, r3, #3
10000e60:	431a      	orrs	r2, r3
10000e62:	2300      	movs	r3, #0
10000e64:	2400      	movs	r4, #0
10000e66:	9228      	str	r2, [sp, #160]	; 0xa0
10000e68:	930d      	str	r3, [sp, #52]	; 0x34
10000e6a:	9b27      	ldr	r3, [sp, #156]	; 0x9c
10000e6c:	2500      	movs	r5, #0
10000e6e:	42a3      	cmp	r3, r4
10000e70:	d900      	bls.n	10000e74 <_etoa+0x248>
10000e72:	1b1d      	subs	r5, r3, r4
10000e74:	2302      	movs	r3, #2
10000e76:	9a28      	ldr	r2, [sp, #160]	; 0xa0
10000e78:	401a      	ands	r2, r3
10000e7a:	9210      	str	r2, [sp, #64]	; 0x40
10000e7c:	9a28      	ldr	r2, [sp, #160]	; 0xa0
10000e7e:	4213      	tst	r3, r2
10000e80:	d003      	beq.n	10000e8a <_etoa+0x25e>
10000e82:	4263      	negs	r3, r4
10000e84:	4163      	adcs	r3, r4
10000e86:	425b      	negs	r3, r3
10000e88:	401d      	ands	r5, r3
10000e8a:	9b0d      	ldr	r3, [sp, #52]	; 0x34
10000e8c:	2b00      	cmp	r3, #0
10000e8e:	d007      	beq.n	10000ea0 <_etoa+0x274>
10000e90:	980a      	ldr	r0, [sp, #40]	; 0x28
10000e92:	9909      	ldr	r1, [sp, #36]	; 0x24
10000e94:	0032      	movs	r2, r6
10000e96:	003b      	movs	r3, r7
10000e98:	f005 f855 	bl	10005f46 <__wrap___aeabi_ddiv>
10000e9c:	900a      	str	r0, [sp, #40]	; 0x28
10000e9e:	9109      	str	r1, [sp, #36]	; 0x24
10000ea0:	2200      	movs	r2, #0
10000ea2:	2300      	movs	r3, #0
10000ea4:	4648      	mov	r0, r9
10000ea6:	4641      	mov	r1, r8
10000ea8:	f005 f898 	bl	10005fdc <__wrap___aeabi_dcmplt>
10000eac:	2800      	cmp	r0, #0
10000eae:	d005      	beq.n	10000ebc <_etoa+0x290>
10000eb0:	2080      	movs	r0, #128	; 0x80
10000eb2:	0600      	lsls	r0, r0, #24
10000eb4:	4684      	mov	ip, r0
10000eb6:	9909      	ldr	r1, [sp, #36]	; 0x24
10000eb8:	4461      	add	r1, ip
10000eba:	9109      	str	r1, [sp, #36]	; 0x24
10000ebc:	9a28      	ldr	r2, [sp, #160]	; 0xa0
10000ebe:	4b64      	ldr	r3, [pc, #400]	; (10001050 <_etoa+0x424>)
10000ec0:	9e0b      	ldr	r6, [sp, #44]	; 0x2c
10000ec2:	4013      	ands	r3, r2
10000ec4:	9304      	str	r3, [sp, #16]
10000ec6:	9b26      	ldr	r3, [sp, #152]	; 0x98
10000ec8:	9a0a      	ldr	r2, [sp, #40]	; 0x28
10000eca:	9302      	str	r3, [sp, #8]
10000ecc:	9b09      	ldr	r3, [sp, #36]	; 0x24
10000ece:	9503      	str	r5, [sp, #12]
10000ed0:	9200      	str	r2, [sp, #0]
10000ed2:	9301      	str	r3, [sp, #4]
10000ed4:	4659      	mov	r1, fp
10000ed6:	4653      	mov	r3, sl
10000ed8:	0030      	movs	r0, r6
10000eda:	9a0c      	ldr	r2, [sp, #48]	; 0x30
10000edc:	f000 f8cc 	bl	10001078 <_ftoa>
10000ee0:	0005      	movs	r5, r0
10000ee2:	2c00      	cmp	r4, #0
10000ee4:	d06f      	beq.n	10000fc6 <_etoa+0x39a>
10000ee6:	9b28      	ldr	r3, [sp, #160]	; 0xa0
10000ee8:	002a      	movs	r2, r5
10000eea:	0698      	lsls	r0, r3, #26
10000eec:	231f      	movs	r3, #31
10000eee:	17c0      	asrs	r0, r0, #31
10000ef0:	4398      	bics	r0, r3
10000ef2:	1c6b      	adds	r3, r5, #1
10000ef4:	4698      	mov	r8, r3
10000ef6:	4659      	mov	r1, fp
10000ef8:	4653      	mov	r3, sl
10000efa:	3065      	adds	r0, #101	; 0x65
10000efc:	47b0      	blx	r6
10000efe:	9b0d      	ldr	r3, [sp, #52]	; 0x34
10000f00:	2600      	movs	r6, #0
10000f02:	17da      	asrs	r2, r3, #31
10000f04:	189d      	adds	r5, r3, r2
10000f06:	0fdb      	lsrs	r3, r3, #31
10000f08:	4699      	mov	r9, r3
10000f0a:	4055      	eors	r5, r2
10000f0c:	3c01      	subs	r4, #1
10000f0e:	e001      	b.n	10000f14 <_etoa+0x2e8>
10000f10:	2e20      	cmp	r6, #32
10000f12:	d013      	beq.n	10000f3c <_etoa+0x310>
10000f14:	aa0a      	add	r2, sp, #40	; 0x28
10000f16:	4694      	mov	ip, r2
10000f18:	231f      	movs	r3, #31
10000f1a:	0028      	movs	r0, r5
10000f1c:	4463      	add	r3, ip
10000f1e:	210a      	movs	r1, #10
10000f20:	3601      	adds	r6, #1
10000f22:	199f      	adds	r7, r3, r6
10000f24:	f004 fdb8 	bl	10005a98 <__wrap___aeabi_uidiv>
10000f28:	3130      	adds	r1, #48	; 0x30
10000f2a:	7039      	strb	r1, [r7, #0]
10000f2c:	0028      	movs	r0, r5
10000f2e:	210a      	movs	r1, #10
10000f30:	f004 fdb2 	bl	10005a98 <__wrap___aeabi_uidiv>
10000f34:	002f      	movs	r7, r5
10000f36:	0005      	movs	r5, r0
10000f38:	2f09      	cmp	r7, #9
10000f3a:	d8e9      	bhi.n	10000f10 <_etoa+0x2e4>
10000f3c:	2305      	movs	r3, #5
10000f3e:	9306      	str	r3, [sp, #24]
10000f40:	2300      	movs	r3, #0
10000f42:	9304      	str	r3, [sp, #16]
10000f44:	330a      	adds	r3, #10
10000f46:	9303      	str	r3, [sp, #12]
10000f48:	464b      	mov	r3, r9
10000f4a:	9601      	str	r6, [sp, #4]
10000f4c:	9e0b      	ldr	r6, [sp, #44]	; 0x2c
10000f4e:	9302      	str	r3, [sp, #8]
10000f50:	ab12      	add	r3, sp, #72	; 0x48
10000f52:	9300      	str	r3, [sp, #0]
10000f54:	4642      	mov	r2, r8
10000f56:	4653      	mov	r3, sl
10000f58:	4659      	mov	r1, fp
10000f5a:	0030      	movs	r0, r6
10000f5c:	9405      	str	r4, [sp, #20]
10000f5e:	f7ff fd6d 	bl	10000a3c <_ntoa_format>
10000f62:	9b10      	ldr	r3, [sp, #64]	; 0x40
10000f64:	0005      	movs	r5, r0
10000f66:	2b00      	cmp	r3, #0
10000f68:	d02d      	beq.n	10000fc6 <_etoa+0x39a>
10000f6a:	9b0c      	ldr	r3, [sp, #48]	; 0x30
10000f6c:	9a27      	ldr	r2, [sp, #156]	; 0x9c
10000f6e:	1ac4      	subs	r4, r0, r3
10000f70:	42a2      	cmp	r2, r4
10000f72:	d928      	bls.n	10000fc6 <_etoa+0x39a>
10000f74:	4681      	mov	r9, r0
10000f76:	465d      	mov	r5, fp
10000f78:	4698      	mov	r8, r3
10000f7a:	0017      	movs	r7, r2
10000f7c:	4643      	mov	r3, r8
10000f7e:	0029      	movs	r1, r5
10000f80:	191a      	adds	r2, r3, r4
10000f82:	2020      	movs	r0, #32
10000f84:	4653      	mov	r3, sl
10000f86:	3401      	adds	r4, #1
10000f88:	47b0      	blx	r6
10000f8a:	42a7      	cmp	r7, r4
10000f8c:	d8f6      	bhi.n	10000f7c <_etoa+0x350>
10000f8e:	464d      	mov	r5, r9
10000f90:	990c      	ldr	r1, [sp, #48]	; 0x30
10000f92:	9827      	ldr	r0, [sp, #156]	; 0x9c
10000f94:	1a6b      	subs	r3, r5, r1
10000f96:	3301      	adds	r3, #1
10000f98:	2200      	movs	r2, #0
10000f9a:	4298      	cmp	r0, r3
10000f9c:	d261      	bcs.n	10001062 <_etoa+0x436>
10000f9e:	3501      	adds	r5, #1
10000fa0:	1955      	adds	r5, r2, r5
10000fa2:	e010      	b.n	10000fc6 <_etoa+0x39a>
10000fa4:	9b28      	ldr	r3, [sp, #160]	; 0xa0
10000fa6:	464a      	mov	r2, r9
10000fa8:	9304      	str	r3, [sp, #16]
10000faa:	9b27      	ldr	r3, [sp, #156]	; 0x9c
10000fac:	4659      	mov	r1, fp
10000fae:	9303      	str	r3, [sp, #12]
10000fb0:	9b26      	ldr	r3, [sp, #152]	; 0x98
10000fb2:	980b      	ldr	r0, [sp, #44]	; 0x2c
10000fb4:	9302      	str	r3, [sp, #8]
10000fb6:	4643      	mov	r3, r8
10000fb8:	9200      	str	r2, [sp, #0]
10000fba:	9301      	str	r3, [sp, #4]
10000fbc:	4653      	mov	r3, sl
10000fbe:	9a0c      	ldr	r2, [sp, #48]	; 0x30
10000fc0:	f000 f85a 	bl	10001078 <_ftoa>
10000fc4:	0005      	movs	r5, r0
10000fc6:	0028      	movs	r0, r5
10000fc8:	b01b      	add	sp, #108	; 0x6c
10000fca:	bc3c      	pop	{r2, r3, r4, r5}
10000fcc:	4690      	mov	r8, r2
10000fce:	4699      	mov	r9, r3
10000fd0:	46a2      	mov	sl, r4
10000fd2:	46ab      	mov	fp, r5
10000fd4:	bdf0      	pop	{r4, r5, r6, r7, pc}
10000fd6:	9b26      	ldr	r3, [sp, #152]	; 0x98
10000fd8:	2b00      	cmp	r3, #0
10000fda:	d100      	bne.n	10000fde <_etoa+0x3b2>
10000fdc:	e745      	b.n	10000e6a <_etoa+0x23e>
10000fde:	9b11      	ldr	r3, [sp, #68]	; 0x44
10000fe0:	1e5a      	subs	r2, r3, #1
10000fe2:	4193      	sbcs	r3, r2
10000fe4:	9a26      	ldr	r2, [sp, #152]	; 0x98
10000fe6:	1ad3      	subs	r3, r2, r3
10000fe8:	9326      	str	r3, [sp, #152]	; 0x98
10000fea:	e73e      	b.n	10000e6a <_etoa+0x23e>
10000fec:	7fefffff 	.word	0x7fefffff
10000ff0:	ffefffff 	.word	0xffefffff
10000ff4:	fffffc01 	.word	0xfffffc01
10000ff8:	509f79fb 	.word	0x509f79fb
10000ffc:	3fd34413 	.word	0x3fd34413
10001000:	8b60c8b3 	.word	0x8b60c8b3
10001004:	3fc68a28 	.word	0x3fc68a28
10001008:	3ff00000 	.word	0x3ff00000
1000100c:	3ff80000 	.word	0x3ff80000
10001010:	636f4361 	.word	0x636f4361
10001014:	3fd287a7 	.word	0x3fd287a7
10001018:	0979a371 	.word	0x0979a371
1000101c:	400a934f 	.word	0x400a934f
10001020:	3fe00000 	.word	0x3fe00000
10001024:	bbb55516 	.word	0xbbb55516
10001028:	40026bb1 	.word	0x40026bb1
1000102c:	fefa39ef 	.word	0xfefa39ef
10001030:	3fe62e42 	.word	0x3fe62e42
10001034:	402c0000 	.word	0x402c0000
10001038:	40240000 	.word	0x40240000
1000103c:	40180000 	.word	0x40180000
10001040:	000003ff 	.word	0x000003ff
10001044:	eb1c432d 	.word	0xeb1c432d
10001048:	3f1a36e2 	.word	0x3f1a36e2
1000104c:	412e8480 	.word	0x412e8480
10001050:	fffff7ff 	.word	0xfffff7ff
10001054:	464b      	mov	r3, r9
10001056:	930a      	str	r3, [sp, #40]	; 0x28
10001058:	2380      	movs	r3, #128	; 0x80
1000105a:	061b      	lsls	r3, r3, #24
1000105c:	4443      	add	r3, r8
1000105e:	9309      	str	r3, [sp, #36]	; 0x24
10001060:	e61d      	b.n	10000c9e <_etoa+0x72>
10001062:	000a      	movs	r2, r1
10001064:	4684      	mov	ip, r0
10001066:	3a01      	subs	r2, #1
10001068:	4462      	add	r2, ip
1000106a:	1b52      	subs	r2, r2, r5
1000106c:	e797      	b.n	10000f9e <_etoa+0x372>
1000106e:	1b50      	subs	r0, r2, r5
10001070:	1e43      	subs	r3, r0, #1
10001072:	9326      	str	r3, [sp, #152]	; 0x98
10001074:	e6f1      	b.n	10000e5a <_etoa+0x22e>
10001076:	46c0      	nop			; (mov r8, r8)

10001078 <_ftoa>:
10001078:	b5f0      	push	{r4, r5, r6, r7, lr}
1000107a:	464e      	mov	r6, r9
1000107c:	46de      	mov	lr, fp
1000107e:	4657      	mov	r7, sl
10001080:	4645      	mov	r5, r8
10001082:	b5e0      	push	{r5, r6, r7, lr}
10001084:	b097      	sub	sp, #92	; 0x5c
10001086:	4699      	mov	r9, r3
10001088:	9e20      	ldr	r6, [sp, #128]	; 0x80
1000108a:	9f21      	ldr	r7, [sp, #132]	; 0x84
1000108c:	9b22      	ldr	r3, [sp, #136]	; 0x88
1000108e:	4683      	mov	fp, r0
10001090:	4698      	mov	r8, r3
10001092:	9107      	str	r1, [sp, #28]
10001094:	920c      	str	r2, [sp, #48]	; 0x30
10001096:	003b      	movs	r3, r7
10001098:	0032      	movs	r2, r6
1000109a:	0030      	movs	r0, r6
1000109c:	0039      	movs	r1, r7
1000109e:	f004 ffb8 	bl	10006012 <__wrap___aeabi_dcmpun>
100010a2:	2800      	cmp	r0, #0
100010a4:	d000      	beq.n	100010a8 <_ftoa+0x30>
100010a6:	e1c1      	b.n	1000142c <_ftoa+0x3b4>
100010a8:	2201      	movs	r2, #1
100010aa:	0030      	movs	r0, r6
100010ac:	0039      	movs	r1, r7
100010ae:	4bca      	ldr	r3, [pc, #808]	; (100013d8 <_ftoa+0x360>)
100010b0:	4252      	negs	r2, r2
100010b2:	f004 ff93 	bl	10005fdc <__wrap___aeabi_dcmplt>
100010b6:	2800      	cmp	r0, #0
100010b8:	d000      	beq.n	100010bc <_ftoa+0x44>
100010ba:	e0e0      	b.n	1000127e <_ftoa+0x206>
100010bc:	2201      	movs	r2, #1
100010be:	0030      	movs	r0, r6
100010c0:	0039      	movs	r1, r7
100010c2:	4bc6      	ldr	r3, [pc, #792]	; (100013dc <_ftoa+0x364>)
100010c4:	4252      	negs	r2, r2
100010c6:	f004 ff9f 	bl	10006008 <__wrap___aeabi_dcmpgt>
100010ca:	2800      	cmp	r0, #0
100010cc:	d000      	beq.n	100010d0 <_ftoa+0x58>
100010ce:	e0b6      	b.n	1000123e <_ftoa+0x1c6>
100010d0:	2200      	movs	r2, #0
100010d2:	0030      	movs	r0, r6
100010d4:	0039      	movs	r1, r7
100010d6:	4bc2      	ldr	r3, [pc, #776]	; (100013e0 <_ftoa+0x368>)
100010d8:	f004 ff96 	bl	10006008 <__wrap___aeabi_dcmpgt>
100010dc:	2800      	cmp	r0, #0
100010de:	d000      	beq.n	100010e2 <_ftoa+0x6a>
100010e0:	e098      	b.n	10001214 <_ftoa+0x19c>
100010e2:	2200      	movs	r2, #0
100010e4:	0030      	movs	r0, r6
100010e6:	0039      	movs	r1, r7
100010e8:	4bbe      	ldr	r3, [pc, #760]	; (100013e4 <_ftoa+0x36c>)
100010ea:	f004 ff77 	bl	10005fdc <__wrap___aeabi_dcmplt>
100010ee:	2800      	cmp	r0, #0
100010f0:	d000      	beq.n	100010f4 <_ftoa+0x7c>
100010f2:	e08f      	b.n	10001214 <_ftoa+0x19c>
100010f4:	2200      	movs	r2, #0
100010f6:	2300      	movs	r3, #0
100010f8:	0030      	movs	r0, r6
100010fa:	0039      	movs	r1, r7
100010fc:	f004 ff6e 	bl	10005fdc <__wrap___aeabi_dcmplt>
10001100:	2800      	cmp	r0, #0
10001102:	d000      	beq.n	10001106 <_ftoa+0x8e>
10001104:	e0b0      	b.n	10001268 <_ftoa+0x1f0>
10001106:	2300      	movs	r3, #0
10001108:	930d      	str	r3, [sp, #52]	; 0x34
1000110a:	9b24      	ldr	r3, [sp, #144]	; 0x90
1000110c:	055b      	lsls	r3, r3, #21
1000110e:	d401      	bmi.n	10001114 <_ftoa+0x9c>
10001110:	2306      	movs	r3, #6
10001112:	4698      	mov	r8, r3
10001114:	ab08      	add	r3, sp, #32
10001116:	469c      	mov	ip, r3
10001118:	2217      	movs	r2, #23
1000111a:	2400      	movs	r4, #0
1000111c:	2330      	movs	r3, #48	; 0x30
1000111e:	4641      	mov	r1, r8
10001120:	4462      	add	r2, ip
10001122:	e004      	b.n	1000112e <_ftoa+0xb6>
10001124:	3401      	adds	r4, #1
10001126:	5513      	strb	r3, [r2, r4]
10001128:	3901      	subs	r1, #1
1000112a:	2c20      	cmp	r4, #32
1000112c:	d001      	beq.n	10001132 <_ftoa+0xba>
1000112e:	2909      	cmp	r1, #9
10001130:	d8f8      	bhi.n	10001124 <_ftoa+0xac>
10001132:	4688      	mov	r8, r1
10001134:	0030      	movs	r0, r6
10001136:	0039      	movs	r1, r7
10001138:	f004 ff96 	bl	10006068 <__wrap___aeabi_d2iz>
1000113c:	4643      	mov	r3, r8
1000113e:	00da      	lsls	r2, r3, #3
10001140:	4ba9      	ldr	r3, [pc, #676]	; (100013e8 <_ftoa+0x370>)
10001142:	0005      	movs	r5, r0
10001144:	189b      	adds	r3, r3, r2
10001146:	681a      	ldr	r2, [r3, #0]
10001148:	685b      	ldr	r3, [r3, #4]
1000114a:	9208      	str	r2, [sp, #32]
1000114c:	9309      	str	r3, [sp, #36]	; 0x24
1000114e:	f004 ff73 	bl	10006038 <__wrap___aeabi_i2d>
10001152:	0002      	movs	r2, r0
10001154:	000b      	movs	r3, r1
10001156:	0030      	movs	r0, r6
10001158:	0039      	movs	r1, r7
1000115a:	f004 fee2 	bl	10005f22 <__wrap___aeabi_dsub>
1000115e:	9a08      	ldr	r2, [sp, #32]
10001160:	9b09      	ldr	r3, [sp, #36]	; 0x24
10001162:	f004 fef9 	bl	10005f58 <__wrap___aeabi_dmul>
10001166:	900a      	str	r0, [sp, #40]	; 0x28
10001168:	910b      	str	r1, [sp, #44]	; 0x2c
1000116a:	f004 ffa1 	bl	100060b0 <__wrap___aeabi_d2uiz>
1000116e:	4682      	mov	sl, r0
10001170:	f004 ff5e 	bl	10006030 <__wrap___aeabi_ui2d>
10001174:	0002      	movs	r2, r0
10001176:	000b      	movs	r3, r1
10001178:	980a      	ldr	r0, [sp, #40]	; 0x28
1000117a:	990b      	ldr	r1, [sp, #44]	; 0x2c
1000117c:	f004 fed1 	bl	10005f22 <__wrap___aeabi_dsub>
10001180:	2200      	movs	r2, #0
10001182:	4b9a      	ldr	r3, [pc, #616]	; (100013ec <_ftoa+0x374>)
10001184:	900a      	str	r0, [sp, #40]	; 0x28
10001186:	910b      	str	r1, [sp, #44]	; 0x2c
10001188:	f004 ff3e 	bl	10006008 <__wrap___aeabi_dcmpgt>
1000118c:	2800      	cmp	r0, #0
1000118e:	d100      	bne.n	10001192 <_ftoa+0x11a>
10001190:	e0c0      	b.n	10001314 <_ftoa+0x29c>
10001192:	2301      	movs	r3, #1
10001194:	469c      	mov	ip, r3
10001196:	44e2      	add	sl, ip
10001198:	4650      	mov	r0, sl
1000119a:	f004 ff49 	bl	10006030 <__wrap___aeabi_ui2d>
1000119e:	0002      	movs	r2, r0
100011a0:	000b      	movs	r3, r1
100011a2:	9808      	ldr	r0, [sp, #32]
100011a4:	9909      	ldr	r1, [sp, #36]	; 0x24
100011a6:	f004 ff1f 	bl	10005fe8 <__wrap___aeabi_dcmple>
100011aa:	2800      	cmp	r0, #0
100011ac:	d002      	beq.n	100011b4 <_ftoa+0x13c>
100011ae:	2300      	movs	r3, #0
100011b0:	469a      	mov	sl, r3
100011b2:	3501      	adds	r5, #1
100011b4:	4643      	mov	r3, r8
100011b6:	2b00      	cmp	r3, #0
100011b8:	d069      	beq.n	1000128e <_ftoa+0x216>
100011ba:	ab08      	add	r3, sp, #32
100011bc:	2617      	movs	r6, #23
100011be:	469c      	mov	ip, r3
100011c0:	9508      	str	r5, [sp, #32]
100011c2:	4466      	add	r6, ip
100011c4:	4655      	mov	r5, sl
100011c6:	e014      	b.n	100011f2 <_ftoa+0x17a>
100011c8:	2301      	movs	r3, #1
100011ca:	425b      	negs	r3, r3
100011cc:	4443      	add	r3, r8
100011ce:	210a      	movs	r1, #10
100011d0:	0028      	movs	r0, r5
100011d2:	469a      	mov	sl, r3
100011d4:	f004 fc60 	bl	10005a98 <__wrap___aeabi_uidiv>
100011d8:	3401      	adds	r4, #1
100011da:	3130      	adds	r1, #48	; 0x30
100011dc:	1937      	adds	r7, r6, r4
100011de:	7039      	strb	r1, [r7, #0]
100011e0:	0028      	movs	r0, r5
100011e2:	210a      	movs	r1, #10
100011e4:	f004 fc58 	bl	10005a98 <__wrap___aeabi_uidiv>
100011e8:	2d09      	cmp	r5, #9
100011ea:	d800      	bhi.n	100011ee <_ftoa+0x176>
100011ec:	e0d5      	b.n	1000139a <_ftoa+0x322>
100011ee:	46d0      	mov	r8, sl
100011f0:	0005      	movs	r5, r0
100011f2:	2c20      	cmp	r4, #32
100011f4:	d1e8      	bne.n	100011c8 <_ftoa+0x150>
100011f6:	2303      	movs	r3, #3
100011f8:	9a24      	ldr	r2, [sp, #144]	; 0x90
100011fa:	4013      	ands	r3, r2
100011fc:	2b01      	cmp	r3, #1
100011fe:	d100      	bne.n	10001202 <_ftoa+0x18a>
10001200:	e100      	b.n	10001404 <_ftoa+0x38c>
10001202:	ab0e      	add	r3, sp, #56	; 0x38
10001204:	4698      	mov	r8, r3
10001206:	9b24      	ldr	r3, [sp, #144]	; 0x90
10001208:	9401      	str	r4, [sp, #4]
1000120a:	9303      	str	r3, [sp, #12]
1000120c:	9b23      	ldr	r3, [sp, #140]	; 0x8c
1000120e:	9302      	str	r3, [sp, #8]
10001210:	4643      	mov	r3, r8
10001212:	e01e      	b.n	10001252 <_ftoa+0x1da>
10001214:	9b24      	ldr	r3, [sp, #144]	; 0x90
10001216:	4658      	mov	r0, fp
10001218:	9304      	str	r3, [sp, #16]
1000121a:	9b23      	ldr	r3, [sp, #140]	; 0x8c
1000121c:	9600      	str	r6, [sp, #0]
1000121e:	9701      	str	r7, [sp, #4]
10001220:	9303      	str	r3, [sp, #12]
10001222:	4643      	mov	r3, r8
10001224:	9a0c      	ldr	r2, [sp, #48]	; 0x30
10001226:	9302      	str	r3, [sp, #8]
10001228:	9907      	ldr	r1, [sp, #28]
1000122a:	464b      	mov	r3, r9
1000122c:	f7ff fcfe 	bl	10000c2c <_etoa>
10001230:	b017      	add	sp, #92	; 0x5c
10001232:	bc3c      	pop	{r2, r3, r4, r5}
10001234:	4690      	mov	r8, r2
10001236:	4699      	mov	r9, r3
10001238:	46a2      	mov	sl, r4
1000123a:	46ab      	mov	fp, r5
1000123c:	bdf0      	pop	{r4, r5, r6, r7, pc}
1000123e:	9b24      	ldr	r3, [sp, #144]	; 0x90
10001240:	075b      	lsls	r3, r3, #29
10001242:	d40e      	bmi.n	10001262 <_ftoa+0x1ea>
10001244:	2203      	movs	r2, #3
10001246:	4b6a      	ldr	r3, [pc, #424]	; (100013f0 <_ftoa+0x378>)
10001248:	9924      	ldr	r1, [sp, #144]	; 0x90
1000124a:	9201      	str	r2, [sp, #4]
1000124c:	9103      	str	r1, [sp, #12]
1000124e:	9923      	ldr	r1, [sp, #140]	; 0x8c
10001250:	9102      	str	r1, [sp, #8]
10001252:	9300      	str	r3, [sp, #0]
10001254:	4658      	mov	r0, fp
10001256:	464b      	mov	r3, r9
10001258:	9a0c      	ldr	r2, [sp, #48]	; 0x30
1000125a:	9907      	ldr	r1, [sp, #28]
1000125c:	f7ff fb86 	bl	1000096c <_out_rev>
10001260:	e7e6      	b.n	10001230 <_ftoa+0x1b8>
10001262:	2204      	movs	r2, #4
10001264:	4b63      	ldr	r3, [pc, #396]	; (100013f4 <_ftoa+0x37c>)
10001266:	e7ef      	b.n	10001248 <_ftoa+0x1d0>
10001268:	003b      	movs	r3, r7
1000126a:	0032      	movs	r2, r6
1000126c:	2000      	movs	r0, #0
1000126e:	2100      	movs	r1, #0
10001270:	f004 fe57 	bl	10005f22 <__wrap___aeabi_dsub>
10001274:	2301      	movs	r3, #1
10001276:	0006      	movs	r6, r0
10001278:	000f      	movs	r7, r1
1000127a:	930d      	str	r3, [sp, #52]	; 0x34
1000127c:	e745      	b.n	1000110a <_ftoa+0x92>
1000127e:	9b24      	ldr	r3, [sp, #144]	; 0x90
10001280:	9303      	str	r3, [sp, #12]
10001282:	9b23      	ldr	r3, [sp, #140]	; 0x8c
10001284:	9302      	str	r3, [sp, #8]
10001286:	2304      	movs	r3, #4
10001288:	9301      	str	r3, [sp, #4]
1000128a:	4b5b      	ldr	r3, [pc, #364]	; (100013f8 <_ftoa+0x380>)
1000128c:	e7e1      	b.n	10001252 <_ftoa+0x1da>
1000128e:	0028      	movs	r0, r5
10001290:	f004 fed2 	bl	10006038 <__wrap___aeabi_i2d>
10001294:	0002      	movs	r2, r0
10001296:	000b      	movs	r3, r1
10001298:	0030      	movs	r0, r6
1000129a:	0039      	movs	r1, r7
1000129c:	f004 fe41 	bl	10005f22 <__wrap___aeabi_dsub>
100012a0:	4b52      	ldr	r3, [pc, #328]	; (100013ec <_ftoa+0x374>)
100012a2:	2200      	movs	r2, #0
100012a4:	0006      	movs	r6, r0
100012a6:	000f      	movs	r7, r1
100012a8:	f004 fe98 	bl	10005fdc <__wrap___aeabi_dcmplt>
100012ac:	ab0e      	add	r3, sp, #56	; 0x38
100012ae:	4698      	mov	r8, r3
100012b0:	2800      	cmp	r0, #0
100012b2:	d10a      	bne.n	100012ca <_ftoa+0x252>
100012b4:	2200      	movs	r2, #0
100012b6:	0030      	movs	r0, r6
100012b8:	0039      	movs	r1, r7
100012ba:	4b4c      	ldr	r3, [pc, #304]	; (100013ec <_ftoa+0x374>)
100012bc:	f004 fea4 	bl	10006008 <__wrap___aeabi_dcmpgt>
100012c0:	2800      	cmp	r0, #0
100012c2:	d102      	bne.n	100012ca <_ftoa+0x252>
100012c4:	07eb      	lsls	r3, r5, #31
100012c6:	d500      	bpl.n	100012ca <_ftoa+0x252>
100012c8:	3501      	adds	r5, #1
100012ca:	2c20      	cmp	r4, #32
100012cc:	d032      	beq.n	10001334 <_ftoa+0x2bc>
100012ce:	aa08      	add	r2, sp, #32
100012d0:	4694      	mov	ip, r2
100012d2:	2317      	movs	r3, #23
100012d4:	0028      	movs	r0, r5
100012d6:	4463      	add	r3, ip
100012d8:	210a      	movs	r1, #10
100012da:	3401      	adds	r4, #1
100012dc:	191e      	adds	r6, r3, r4
100012de:	f004 fbaf 	bl	10005a40 <__wrap___aeabi_idiv>
100012e2:	3130      	adds	r1, #48	; 0x30
100012e4:	0028      	movs	r0, r5
100012e6:	7031      	strb	r1, [r6, #0]
100012e8:	210a      	movs	r1, #10
100012ea:	f004 fba9 	bl	10005a40 <__wrap___aeabi_idiv>
100012ee:	1e05      	subs	r5, r0, #0
100012f0:	d1eb      	bne.n	100012ca <_ftoa+0x252>
100012f2:	2303      	movs	r3, #3
100012f4:	9a24      	ldr	r2, [sp, #144]	; 0x90
100012f6:	4013      	ands	r3, r2
100012f8:	2b01      	cmp	r3, #1
100012fa:	d100      	bne.n	100012fe <_ftoa+0x286>
100012fc:	e091      	b.n	10001422 <_ftoa+0x3aa>
100012fe:	2c1f      	cmp	r4, #31
10001300:	d900      	bls.n	10001304 <_ftoa+0x28c>
10001302:	e780      	b.n	10001206 <_ftoa+0x18e>
10001304:	9b0d      	ldr	r3, [sp, #52]	; 0x34
10001306:	2b00      	cmp	r3, #0
10001308:	d03b      	beq.n	10001382 <_ftoa+0x30a>
1000130a:	232d      	movs	r3, #45	; 0x2d
1000130c:	4642      	mov	r2, r8
1000130e:	5513      	strb	r3, [r2, r4]
10001310:	3401      	adds	r4, #1
10001312:	e778      	b.n	10001206 <_ftoa+0x18e>
10001314:	2200      	movs	r2, #0
10001316:	980a      	ldr	r0, [sp, #40]	; 0x28
10001318:	990b      	ldr	r1, [sp, #44]	; 0x2c
1000131a:	4b34      	ldr	r3, [pc, #208]	; (100013ec <_ftoa+0x374>)
1000131c:	f004 fe5e 	bl	10005fdc <__wrap___aeabi_dcmplt>
10001320:	2800      	cmp	r0, #0
10001322:	d000      	beq.n	10001326 <_ftoa+0x2ae>
10001324:	e746      	b.n	100011b4 <_ftoa+0x13c>
10001326:	4653      	mov	r3, sl
10001328:	2b00      	cmp	r3, #0
1000132a:	d167      	bne.n	100013fc <_ftoa+0x384>
1000132c:	2301      	movs	r3, #1
1000132e:	469c      	mov	ip, r3
10001330:	44e2      	add	sl, ip
10001332:	e73f      	b.n	100011b4 <_ftoa+0x13c>
10001334:	2303      	movs	r3, #3
10001336:	9a24      	ldr	r2, [sp, #144]	; 0x90
10001338:	4013      	ands	r3, r2
1000133a:	2b01      	cmp	r3, #1
1000133c:	d000      	beq.n	10001340 <_ftoa+0x2c8>
1000133e:	e762      	b.n	10001206 <_ftoa+0x18e>
10001340:	9b23      	ldr	r3, [sp, #140]	; 0x8c
10001342:	2b00      	cmp	r3, #0
10001344:	d100      	bne.n	10001348 <_ftoa+0x2d0>
10001346:	e75e      	b.n	10001206 <_ftoa+0x18e>
10001348:	9b0d      	ldr	r3, [sp, #52]	; 0x34
1000134a:	2b00      	cmp	r3, #0
1000134c:	d103      	bne.n	10001356 <_ftoa+0x2de>
1000134e:	9a24      	ldr	r2, [sp, #144]	; 0x90
10001350:	330c      	adds	r3, #12
10001352:	4213      	tst	r3, r2
10001354:	d002      	beq.n	1000135c <_ftoa+0x2e4>
10001356:	9b23      	ldr	r3, [sp, #140]	; 0x8c
10001358:	3b01      	subs	r3, #1
1000135a:	9323      	str	r3, [sp, #140]	; 0x8c
1000135c:	9b23      	ldr	r3, [sp, #140]	; 0x8c
1000135e:	429c      	cmp	r4, r3
10001360:	d2cd      	bcs.n	100012fe <_ftoa+0x286>
10001362:	ab08      	add	r3, sp, #32
10001364:	469c      	mov	ip, r3
10001366:	2217      	movs	r2, #23
10001368:	2330      	movs	r3, #48	; 0x30
1000136a:	4462      	add	r2, ip
1000136c:	2c1f      	cmp	r4, #31
1000136e:	d806      	bhi.n	1000137e <_ftoa+0x306>
10001370:	9923      	ldr	r1, [sp, #140]	; 0x8c
10001372:	3401      	adds	r4, #1
10001374:	5513      	strb	r3, [r2, r4]
10001376:	428c      	cmp	r4, r1
10001378:	d0c1      	beq.n	100012fe <_ftoa+0x286>
1000137a:	2c20      	cmp	r4, #32
1000137c:	d1f8      	bne.n	10001370 <_ftoa+0x2f8>
1000137e:	2420      	movs	r4, #32
10001380:	e741      	b.n	10001206 <_ftoa+0x18e>
10001382:	9b24      	ldr	r3, [sp, #144]	; 0x90
10001384:	075b      	lsls	r3, r3, #29
10001386:	d421      	bmi.n	100013cc <_ftoa+0x354>
10001388:	9b24      	ldr	r3, [sp, #144]	; 0x90
1000138a:	071b      	lsls	r3, r3, #28
1000138c:	d400      	bmi.n	10001390 <_ftoa+0x318>
1000138e:	e73a      	b.n	10001206 <_ftoa+0x18e>
10001390:	2320      	movs	r3, #32
10001392:	4642      	mov	r2, r8
10001394:	5513      	strb	r3, [r2, r4]
10001396:	3401      	adds	r4, #1
10001398:	e735      	b.n	10001206 <_ftoa+0x18e>
1000139a:	4657      	mov	r7, sl
1000139c:	9d08      	ldr	r5, [sp, #32]
1000139e:	2c20      	cmp	r4, #32
100013a0:	d037      	beq.n	10001412 <_ftoa+0x39a>
100013a2:	0022      	movs	r2, r4
100013a4:	2130      	movs	r1, #48	; 0x30
100013a6:	4640      	mov	r0, r8
100013a8:	2f00      	cmp	r7, #0
100013aa:	d008      	beq.n	100013be <_ftoa+0x346>
100013ac:	3201      	adds	r2, #1
100013ae:	54b1      	strb	r1, [r6, r2]
100013b0:	2a20      	cmp	r2, #32
100013b2:	d043      	beq.n	1000143c <_ftoa+0x3c4>
100013b4:	43d3      	mvns	r3, r2
100013b6:	191b      	adds	r3, r3, r4
100013b8:	181b      	adds	r3, r3, r0
100013ba:	2b00      	cmp	r3, #0
100013bc:	d1f6      	bne.n	100013ac <_ftoa+0x334>
100013be:	ab0e      	add	r3, sp, #56	; 0x38
100013c0:	4698      	mov	r8, r3
100013c2:	232e      	movs	r3, #46	; 0x2e
100013c4:	4641      	mov	r1, r8
100013c6:	1c54      	adds	r4, r2, #1
100013c8:	548b      	strb	r3, [r1, r2]
100013ca:	e77e      	b.n	100012ca <_ftoa+0x252>
100013cc:	232b      	movs	r3, #43	; 0x2b
100013ce:	4642      	mov	r2, r8
100013d0:	5513      	strb	r3, [r2, r4]
100013d2:	3401      	adds	r4, #1
100013d4:	e717      	b.n	10001206 <_ftoa+0x18e>
100013d6:	46c0      	nop			; (mov r8, r8)
100013d8:	ffefffff 	.word	0xffefffff
100013dc:	7fefffff 	.word	0x7fefffff
100013e0:	41cdcd65 	.word	0x41cdcd65
100013e4:	c1cdcd65 	.word	0xc1cdcd65
100013e8:	10008808 	.word	0x10008808
100013ec:	3fe00000 	.word	0x3fe00000
100013f0:	1000860c 	.word	0x1000860c
100013f4:	10008610 	.word	0x10008610
100013f8:	1000861c 	.word	0x1000861c
100013fc:	07db      	lsls	r3, r3, #31
100013fe:	d400      	bmi.n	10001402 <_ftoa+0x38a>
10001400:	e6d8      	b.n	100011b4 <_ftoa+0x13c>
10001402:	e793      	b.n	1000132c <_ftoa+0x2b4>
10001404:	9b23      	ldr	r3, [sp, #140]	; 0x8c
10001406:	2b00      	cmp	r3, #0
10001408:	d100      	bne.n	1000140c <_ftoa+0x394>
1000140a:	e6fa      	b.n	10001202 <_ftoa+0x18a>
1000140c:	ab0e      	add	r3, sp, #56	; 0x38
1000140e:	4698      	mov	r8, r3
10001410:	e79a      	b.n	10001348 <_ftoa+0x2d0>
10001412:	2303      	movs	r3, #3
10001414:	9a24      	ldr	r2, [sp, #144]	; 0x90
10001416:	4013      	ands	r3, r2
10001418:	2b01      	cmp	r3, #1
1000141a:	d000      	beq.n	1000141e <_ftoa+0x3a6>
1000141c:	e6f1      	b.n	10001202 <_ftoa+0x18a>
1000141e:	ab0e      	add	r3, sp, #56	; 0x38
10001420:	4698      	mov	r8, r3
10001422:	9b23      	ldr	r3, [sp, #140]	; 0x8c
10001424:	2b00      	cmp	r3, #0
10001426:	d100      	bne.n	1000142a <_ftoa+0x3b2>
10001428:	e769      	b.n	100012fe <_ftoa+0x286>
1000142a:	e78d      	b.n	10001348 <_ftoa+0x2d0>
1000142c:	9b24      	ldr	r3, [sp, #144]	; 0x90
1000142e:	9303      	str	r3, [sp, #12]
10001430:	9b23      	ldr	r3, [sp, #140]	; 0x8c
10001432:	9302      	str	r3, [sp, #8]
10001434:	2303      	movs	r3, #3
10001436:	9301      	str	r3, [sp, #4]
10001438:	4b06      	ldr	r3, [pc, #24]	; (10001454 <_ftoa+0x3dc>)
1000143a:	e70a      	b.n	10001252 <_ftoa+0x1da>
1000143c:	2303      	movs	r3, #3
1000143e:	9a24      	ldr	r2, [sp, #144]	; 0x90
10001440:	2420      	movs	r4, #32
10001442:	4013      	ands	r3, r2
10001444:	2b01      	cmp	r3, #1
10001446:	d000      	beq.n	1000144a <_ftoa+0x3d2>
10001448:	e6db      	b.n	10001202 <_ftoa+0x18a>
1000144a:	9b23      	ldr	r3, [sp, #140]	; 0x8c
1000144c:	2420      	movs	r4, #32
1000144e:	2b00      	cmp	r3, #0
10001450:	d1dc      	bne.n	1000140c <_ftoa+0x394>
10001452:	e6d6      	b.n	10001202 <_ftoa+0x18a>
10001454:	10008618 	.word	0x10008618

10001458 <_vsnprintf>:
10001458:	b5f0      	push	{r4, r5, r6, r7, lr}
1000145a:	46de      	mov	lr, fp
1000145c:	464e      	mov	r6, r9
1000145e:	4657      	mov	r7, sl
10001460:	4645      	mov	r5, r8
10001462:	b5e0      	push	{r5, r6, r7, lr}
10001464:	b09f      	sub	sp, #124	; 0x7c
10001466:	001c      	movs	r4, r3
10001468:	9b28      	ldr	r3, [sp, #160]	; 0xa0
1000146a:	4693      	mov	fp, r2
1000146c:	9309      	str	r3, [sp, #36]	; 0x24
1000146e:	4acf      	ldr	r2, [pc, #828]	; (100017ac <_vsnprintf+0x354>)
10001470:	4bcf      	ldr	r3, [pc, #828]	; (100017b0 <_vsnprintf+0x358>)
10001472:	4689      	mov	r9, r1
10001474:	9008      	str	r0, [sp, #32]
10001476:	601a      	str	r2, [r3, #0]
10001478:	2900      	cmp	r1, #0
1000147a:	d100      	bne.n	1000147e <_vsnprintf+0x26>
1000147c:	e216      	b.n	100018ac <_vsnprintf+0x454>
1000147e:	2300      	movs	r3, #0
10001480:	7820      	ldrb	r0, [r4, #0]
10001482:	469a      	mov	sl, r3
10001484:	2800      	cmp	r0, #0
10001486:	d100      	bne.n	1000148a <_vsnprintf+0x32>
10001488:	e218      	b.n	100018bc <_vsnprintf+0x464>
1000148a:	0026      	movs	r6, r4
1000148c:	001d      	movs	r5, r3
1000148e:	464c      	mov	r4, r9
10001490:	e00a      	b.n	100014a8 <_vsnprintf+0x50>
10001492:	002a      	movs	r2, r5
10001494:	1c6f      	adds	r7, r5, #1
10001496:	465b      	mov	r3, fp
10001498:	9d08      	ldr	r5, [sp, #32]
1000149a:	0021      	movs	r1, r4
1000149c:	47a8      	blx	r5
1000149e:	003d      	movs	r5, r7
100014a0:	3601      	adds	r6, #1
100014a2:	7830      	ldrb	r0, [r6, #0]
100014a4:	2800      	cmp	r0, #0
100014a6:	d07a      	beq.n	1000159e <_vsnprintf+0x146>
100014a8:	2825      	cmp	r0, #37	; 0x25
100014aa:	d1f2      	bne.n	10001492 <_vsnprintf+0x3a>
100014ac:	2310      	movs	r3, #16
100014ae:	469a      	mov	sl, r3
100014b0:	3b08      	subs	r3, #8
100014b2:	4699      	mov	r9, r3
100014b4:	3b04      	subs	r3, #4
100014b6:	4698      	mov	r8, r3
100014b8:	3b02      	subs	r3, #2
100014ba:	2100      	movs	r1, #0
100014bc:	469c      	mov	ip, r3
100014be:	1c72      	adds	r2, r6, #1
100014c0:	7810      	ldrb	r0, [r2, #0]
100014c2:	0016      	movs	r6, r2
100014c4:	0003      	movs	r3, r0
100014c6:	3b20      	subs	r3, #32
100014c8:	b2db      	uxtb	r3, r3
100014ca:	2b10      	cmp	r3, #16
100014cc:	d803      	bhi.n	100014d6 <_vsnprintf+0x7e>
100014ce:	4fb9      	ldr	r7, [pc, #740]	; (100017b4 <_vsnprintf+0x35c>)
100014d0:	009b      	lsls	r3, r3, #2
100014d2:	58fb      	ldr	r3, [r7, r3]
100014d4:	469f      	mov	pc, r3
100014d6:	0003      	movs	r3, r0
100014d8:	3b30      	subs	r3, #48	; 0x30
100014da:	2b09      	cmp	r3, #9
100014dc:	d93c      	bls.n	10001558 <_vsnprintf+0x100>
100014de:	2300      	movs	r3, #0
100014e0:	930a      	str	r3, [sp, #40]	; 0x28
100014e2:	282a      	cmp	r0, #42	; 0x2a
100014e4:	d100      	bne.n	100014e8 <_vsnprintf+0x90>
100014e6:	e071      	b.n	100015cc <_vsnprintf+0x174>
100014e8:	2300      	movs	r3, #0
100014ea:	4698      	mov	r8, r3
100014ec:	282e      	cmp	r0, #46	; 0x2e
100014ee:	d047      	beq.n	10001580 <_vsnprintf+0x128>
100014f0:	0003      	movs	r3, r0
100014f2:	3b68      	subs	r3, #104	; 0x68
100014f4:	b2db      	uxtb	r3, r3
100014f6:	2b12      	cmp	r3, #18
100014f8:	d81f      	bhi.n	1000153a <_vsnprintf+0xe2>
100014fa:	4aaf      	ldr	r2, [pc, #700]	; (100017b8 <_vsnprintf+0x360>)
100014fc:	009b      	lsls	r3, r3, #2
100014fe:	58d3      	ldr	r3, [r2, r3]
10001500:	469f      	mov	pc, r3
10001502:	2301      	movs	r3, #1
10001504:	3201      	adds	r2, #1
10001506:	4319      	orrs	r1, r3
10001508:	e7da      	b.n	100014c0 <_vsnprintf+0x68>
1000150a:	4663      	mov	r3, ip
1000150c:	3201      	adds	r2, #1
1000150e:	4319      	orrs	r1, r3
10001510:	e7d6      	b.n	100014c0 <_vsnprintf+0x68>
10001512:	4643      	mov	r3, r8
10001514:	3201      	adds	r2, #1
10001516:	4319      	orrs	r1, r3
10001518:	e7d2      	b.n	100014c0 <_vsnprintf+0x68>
1000151a:	4653      	mov	r3, sl
1000151c:	3201      	adds	r2, #1
1000151e:	4319      	orrs	r1, r3
10001520:	e7ce      	b.n	100014c0 <_vsnprintf+0x68>
10001522:	464b      	mov	r3, r9
10001524:	3201      	adds	r2, #1
10001526:	4319      	orrs	r1, r3
10001528:	e7ca      	b.n	100014c0 <_vsnprintf+0x68>
1000152a:	7870      	ldrb	r0, [r6, #1]
1000152c:	286c      	cmp	r0, #108	; 0x6c
1000152e:	d100      	bne.n	10001532 <_vsnprintf+0xda>
10001530:	e2bf      	b.n	10001ab2 <_vsnprintf+0x65a>
10001532:	2380      	movs	r3, #128	; 0x80
10001534:	005b      	lsls	r3, r3, #1
10001536:	4319      	orrs	r1, r3
10001538:	3601      	adds	r6, #1
1000153a:	0003      	movs	r3, r0
1000153c:	3b25      	subs	r3, #37	; 0x25
1000153e:	b2db      	uxtb	r3, r3
10001540:	2b53      	cmp	r3, #83	; 0x53
10001542:	d8a6      	bhi.n	10001492 <_vsnprintf+0x3a>
10001544:	4a9d      	ldr	r2, [pc, #628]	; (100017bc <_vsnprintf+0x364>)
10001546:	009b      	lsls	r3, r3, #2
10001548:	58d3      	ldr	r3, [r2, r3]
1000154a:	469f      	mov	pc, r3
1000154c:	2380      	movs	r3, #128	; 0x80
1000154e:	005b      	lsls	r3, r3, #1
10001550:	7870      	ldrb	r0, [r6, #1]
10001552:	4319      	orrs	r1, r3
10001554:	3601      	adds	r6, #1
10001556:	e7f0      	b.n	1000153a <_vsnprintf+0xe2>
10001558:	2700      	movs	r7, #0
1000155a:	0003      	movs	r3, r0
1000155c:	00b8      	lsls	r0, r7, #2
1000155e:	19c0      	adds	r0, r0, r7
10001560:	3601      	adds	r6, #1
10001562:	0040      	lsls	r0, r0, #1
10001564:	18c0      	adds	r0, r0, r3
10001566:	7833      	ldrb	r3, [r6, #0]
10001568:	3830      	subs	r0, #48	; 0x30
1000156a:	001a      	movs	r2, r3
1000156c:	3a30      	subs	r2, #48	; 0x30
1000156e:	0007      	movs	r7, r0
10001570:	2a09      	cmp	r2, #9
10001572:	d9f3      	bls.n	1000155c <_vsnprintf+0x104>
10001574:	900a      	str	r0, [sp, #40]	; 0x28
10001576:	0018      	movs	r0, r3
10001578:	2300      	movs	r3, #0
1000157a:	4698      	mov	r8, r3
1000157c:	282e      	cmp	r0, #46	; 0x2e
1000157e:	d1b7      	bne.n	100014f0 <_vsnprintf+0x98>
10001580:	2380      	movs	r3, #128	; 0x80
10001582:	7870      	ldrb	r0, [r6, #1]
10001584:	00db      	lsls	r3, r3, #3
10001586:	4319      	orrs	r1, r3
10001588:	0003      	movs	r3, r0
1000158a:	3b30      	subs	r3, #48	; 0x30
1000158c:	1c72      	adds	r2, r6, #1
1000158e:	2b09      	cmp	r3, #9
10001590:	d800      	bhi.n	10001594 <_vsnprintf+0x13c>
10001592:	e195      	b.n	100018c0 <_vsnprintf+0x468>
10001594:	282a      	cmp	r0, #42	; 0x2a
10001596:	d100      	bne.n	1000159a <_vsnprintf+0x142>
10001598:	e1a6      	b.n	100018e8 <_vsnprintf+0x490>
1000159a:	0016      	movs	r6, r2
1000159c:	e7a8      	b.n	100014f0 <_vsnprintf+0x98>
1000159e:	46a1      	mov	r9, r4
100015a0:	46aa      	mov	sl, r5
100015a2:	002c      	movs	r4, r5
100015a4:	45d3      	cmp	fp, sl
100015a6:	d803      	bhi.n	100015b0 <_vsnprintf+0x158>
100015a8:	2301      	movs	r3, #1
100015aa:	425b      	negs	r3, r3
100015ac:	445b      	add	r3, fp
100015ae:	469a      	mov	sl, r3
100015b0:	465b      	mov	r3, fp
100015b2:	4652      	mov	r2, sl
100015b4:	4649      	mov	r1, r9
100015b6:	2000      	movs	r0, #0
100015b8:	9d08      	ldr	r5, [sp, #32]
100015ba:	47a8      	blx	r5
100015bc:	0020      	movs	r0, r4
100015be:	b01f      	add	sp, #124	; 0x7c
100015c0:	bc3c      	pop	{r2, r3, r4, r5}
100015c2:	4690      	mov	r8, r2
100015c4:	4699      	mov	r9, r3
100015c6:	46a2      	mov	sl, r4
100015c8:	46ab      	mov	fp, r5
100015ca:	bdf0      	pop	{r4, r5, r6, r7, pc}
100015cc:	9b09      	ldr	r3, [sp, #36]	; 0x24
100015ce:	cb40      	ldmia	r3!, {r6}
100015d0:	960a      	str	r6, [sp, #40]	; 0x28
100015d2:	2e00      	cmp	r6, #0
100015d4:	db03      	blt.n	100015de <_vsnprintf+0x186>
100015d6:	7850      	ldrb	r0, [r2, #1]
100015d8:	9309      	str	r3, [sp, #36]	; 0x24
100015da:	1c56      	adds	r6, r2, #1
100015dc:	e784      	b.n	100014e8 <_vsnprintf+0x90>
100015de:	3828      	subs	r0, #40	; 0x28
100015e0:	4301      	orrs	r1, r0
100015e2:	4270      	negs	r0, r6
100015e4:	900a      	str	r0, [sp, #40]	; 0x28
100015e6:	9309      	str	r3, [sp, #36]	; 0x24
100015e8:	7850      	ldrb	r0, [r2, #1]
100015ea:	1c56      	adds	r6, r2, #1
100015ec:	e77c      	b.n	100014e8 <_vsnprintf+0x90>
100015ee:	2878      	cmp	r0, #120	; 0x78
100015f0:	d100      	bne.n	100015f4 <_vsnprintf+0x19c>
100015f2:	e1d4      	b.n	1000199e <_vsnprintf+0x546>
100015f4:	2858      	cmp	r0, #88	; 0x58
100015f6:	d100      	bne.n	100015fa <_vsnprintf+0x1a2>
100015f8:	e268      	b.n	10001acc <_vsnprintf+0x674>
100015fa:	286f      	cmp	r0, #111	; 0x6f
100015fc:	d100      	bne.n	10001600 <_vsnprintf+0x1a8>
100015fe:	e352      	b.n	10001ca6 <_vsnprintf+0x84e>
10001600:	2862      	cmp	r0, #98	; 0x62
10001602:	d100      	bne.n	10001606 <_vsnprintf+0x1ae>
10001604:	e1d8      	b.n	100019b8 <_vsnprintf+0x560>
10001606:	2310      	movs	r3, #16
10001608:	000a      	movs	r2, r1
1000160a:	439a      	bics	r2, r3
1000160c:	920b      	str	r2, [sp, #44]	; 0x2c
1000160e:	2869      	cmp	r0, #105	; 0x69
10001610:	d001      	beq.n	10001616 <_vsnprintf+0x1be>
10001612:	f000 fca2 	bl	10001f5a <_vsnprintf+0xb02>
10001616:	230a      	movs	r3, #10
10001618:	930c      	str	r3, [sp, #48]	; 0x30
1000161a:	054b      	lsls	r3, r1, #21
1000161c:	d400      	bmi.n	10001620 <_vsnprintf+0x1c8>
1000161e:	e1d5      	b.n	100019cc <_vsnprintf+0x574>
10001620:	2301      	movs	r3, #1
10001622:	9a0b      	ldr	r2, [sp, #44]	; 0x2c
10001624:	439a      	bics	r2, r3
10001626:	920b      	str	r2, [sp, #44]	; 0x2c
10001628:	2869      	cmp	r0, #105	; 0x69
1000162a:	d100      	bne.n	1000162e <_vsnprintf+0x1d6>
1000162c:	e1ce      	b.n	100019cc <_vsnprintf+0x574>
1000162e:	2864      	cmp	r0, #100	; 0x64
10001630:	d100      	bne.n	10001634 <_vsnprintf+0x1dc>
10001632:	e1cb      	b.n	100019cc <_vsnprintf+0x574>
10001634:	9a0b      	ldr	r2, [sp, #44]	; 0x2c
10001636:	2380      	movs	r3, #128	; 0x80
10001638:	0011      	movs	r1, r2
1000163a:	009b      	lsls	r3, r3, #2
1000163c:	4019      	ands	r1, r3
1000163e:	468a      	mov	sl, r1
10001640:	421a      	tst	r2, r3
10001642:	d000      	beq.n	10001646 <_vsnprintf+0x1ee>
10001644:	e332      	b.n	10001cac <_vsnprintf+0x854>
10001646:	2380      	movs	r3, #128	; 0x80
10001648:	0011      	movs	r1, r2
1000164a:	005b      	lsls	r3, r3, #1
1000164c:	4019      	ands	r1, r3
1000164e:	4689      	mov	r9, r1
10001650:	421a      	tst	r2, r3
10001652:	d001      	beq.n	10001658 <_vsnprintf+0x200>
10001654:	f000 fc02 	bl	10001e5c <_vsnprintf+0xa04>
10001658:	0013      	movs	r3, r2
1000165a:	065b      	lsls	r3, r3, #25
1000165c:	d500      	bpl.n	10001660 <_vsnprintf+0x208>
1000165e:	e310      	b.n	10001c82 <_vsnprintf+0x82a>
10001660:	9b0b      	ldr	r3, [sp, #44]	; 0x2c
10001662:	061b      	lsls	r3, r3, #24
10001664:	d401      	bmi.n	1000166a <_vsnprintf+0x212>
10001666:	f000 fc6e 	bl	10001f46 <_vsnprintf+0xaee>
1000166a:	9b09      	ldr	r3, [sp, #36]	; 0x24
1000166c:	cb04      	ldmia	r3!, {r2}
1000166e:	0412      	lsls	r2, r2, #16
10001670:	0c12      	lsrs	r2, r2, #16
10001672:	4692      	mov	sl, r2
10001674:	9309      	str	r3, [sp, #36]	; 0x24
10001676:	4653      	mov	r3, sl
10001678:	2b00      	cmp	r3, #0
1000167a:	d000      	beq.n	1000167e <_vsnprintf+0x226>
1000167c:	e364      	b.n	10001d48 <_vsnprintf+0x8f0>
1000167e:	9a0b      	ldr	r2, [sp, #44]	; 0x2c
10001680:	3310      	adds	r3, #16
10001682:	0011      	movs	r1, r2
10001684:	4399      	bics	r1, r3
10001686:	910b      	str	r1, [sp, #44]	; 0x2c
10001688:	0552      	lsls	r2, r2, #21
1000168a:	d400      	bmi.n	1000168e <_vsnprintf+0x236>
1000168c:	e35c      	b.n	10001d48 <_vsnprintf+0x8f0>
1000168e:	2300      	movs	r3, #0
10001690:	4699      	mov	r9, r3
10001692:	9b0b      	ldr	r3, [sp, #44]	; 0x2c
10001694:	9306      	str	r3, [sp, #24]
10001696:	9b0a      	ldr	r3, [sp, #40]	; 0x28
10001698:	9305      	str	r3, [sp, #20]
1000169a:	4643      	mov	r3, r8
1000169c:	9304      	str	r3, [sp, #16]
1000169e:	9b0c      	ldr	r3, [sp, #48]	; 0x30
100016a0:	9303      	str	r3, [sp, #12]
100016a2:	2300      	movs	r3, #0
100016a4:	e2de      	b.n	10001c64 <_vsnprintf+0x80c>
100016a6:	7870      	ldrb	r0, [r6, #1]
100016a8:	2868      	cmp	r0, #104	; 0x68
100016aa:	d100      	bne.n	100016ae <_vsnprintf+0x256>
100016ac:	e207      	b.n	10001abe <_vsnprintf+0x666>
100016ae:	2380      	movs	r3, #128	; 0x80
100016b0:	3601      	adds	r6, #1
100016b2:	4319      	orrs	r1, r3
100016b4:	e741      	b.n	1000153a <_vsnprintf+0xe2>
100016b6:	2380      	movs	r3, #128	; 0x80
100016b8:	009b      	lsls	r3, r3, #2
100016ba:	7870      	ldrb	r0, [r6, #1]
100016bc:	4319      	orrs	r1, r3
100016be:	3601      	adds	r6, #1
100016c0:	e73b      	b.n	1000153a <_vsnprintf+0xe2>
100016c2:	2846      	cmp	r0, #70	; 0x46
100016c4:	d100      	bne.n	100016c8 <_vsnprintf+0x270>
100016c6:	e174      	b.n	100019b2 <_vsnprintf+0x55a>
100016c8:	2207      	movs	r2, #7
100016ca:	9b09      	ldr	r3, [sp, #36]	; 0x24
100016cc:	9104      	str	r1, [sp, #16]
100016ce:	3307      	adds	r3, #7
100016d0:	4393      	bics	r3, r2
100016d2:	9a0a      	ldr	r2, [sp, #40]	; 0x28
100016d4:	0019      	movs	r1, r3
100016d6:	9203      	str	r2, [sp, #12]
100016d8:	4642      	mov	r2, r8
100016da:	9202      	str	r2, [sp, #8]
100016dc:	c90c      	ldmia	r1!, {r2, r3}
100016de:	9808      	ldr	r0, [sp, #32]
100016e0:	9200      	str	r2, [sp, #0]
100016e2:	9301      	str	r3, [sp, #4]
100016e4:	9109      	str	r1, [sp, #36]	; 0x24
100016e6:	002a      	movs	r2, r5
100016e8:	465b      	mov	r3, fp
100016ea:	0021      	movs	r1, r4
100016ec:	f7ff fcc4 	bl	10001078 <_ftoa>
100016f0:	3601      	adds	r6, #1
100016f2:	0005      	movs	r5, r0
100016f4:	e6d5      	b.n	100014a2 <_vsnprintf+0x4a>
100016f6:	9b09      	ldr	r3, [sp, #36]	; 0x24
100016f8:	001a      	movs	r2, r3
100016fa:	ca08      	ldmia	r2!, {r3}
100016fc:	4691      	mov	r9, r2
100016fe:	2b00      	cmp	r3, #0
10001700:	d100      	bne.n	10001704 <_vsnprintf+0x2ac>
10001702:	e105      	b.n	10001910 <_vsnprintf+0x4b8>
10001704:	2221      	movs	r2, #33	; 0x21
10001706:	4311      	orrs	r1, r2
10001708:	468a      	mov	sl, r1
1000170a:	a80e      	add	r0, sp, #56	; 0x38
1000170c:	4684      	mov	ip, r0
1000170e:	211f      	movs	r1, #31
10001710:	4461      	add	r1, ip
10001712:	9509      	str	r5, [sp, #36]	; 0x24
10001714:	2200      	movs	r2, #0
10001716:	270f      	movs	r7, #15
10001718:	46a4      	mov	ip, r4
1000171a:	000d      	movs	r5, r1
1000171c:	e002      	b.n	10001724 <_vsnprintf+0x2cc>
1000171e:	2a20      	cmp	r2, #32
10001720:	d00c      	beq.n	1000173c <_vsnprintf+0x2e4>
10001722:	000b      	movs	r3, r1
10001724:	003c      	movs	r4, r7
10001726:	401c      	ands	r4, r3
10001728:	0020      	movs	r0, r4
1000172a:	3037      	adds	r0, #55	; 0x37
1000172c:	2c09      	cmp	r4, #9
1000172e:	d800      	bhi.n	10001732 <_vsnprintf+0x2da>
10001730:	3807      	subs	r0, #7
10001732:	3201      	adds	r2, #1
10001734:	54a8      	strb	r0, [r5, r2]
10001736:	0919      	lsrs	r1, r3, #4
10001738:	2b0f      	cmp	r3, #15
1000173a:	d8f0      	bhi.n	1000171e <_vsnprintf+0x2c6>
1000173c:	4664      	mov	r4, ip
1000173e:	9d09      	ldr	r5, [sp, #36]	; 0x24
10001740:	e0f0      	b.n	10001924 <_vsnprintf+0x4cc>
10001742:	078b      	lsls	r3, r1, #30
10001744:	d400      	bmi.n	10001748 <_vsnprintf+0x2f0>
10001746:	e1d1      	b.n	10001aec <_vsnprintf+0x694>
10001748:	9b09      	ldr	r3, [sp, #36]	; 0x24
1000174a:	002a      	movs	r2, r5
1000174c:	4699      	mov	r9, r3
1000174e:	1c6b      	adds	r3, r5, #1
10001750:	4698      	mov	r8, r3
10001752:	464b      	mov	r3, r9
10001754:	cb01      	ldmia	r3!, {r0}
10001756:	0021      	movs	r1, r4
10001758:	4699      	mov	r9, r3
1000175a:	9f08      	ldr	r7, [sp, #32]
1000175c:	465b      	mov	r3, fp
1000175e:	b2c0      	uxtb	r0, r0
10001760:	47b8      	blx	r7
10001762:	9b0a      	ldr	r3, [sp, #40]	; 0x28
10001764:	469c      	mov	ip, r3
10001766:	4465      	add	r5, ip
10001768:	2b01      	cmp	r3, #1
1000176a:	d800      	bhi.n	1000176e <_vsnprintf+0x316>
1000176c:	e290      	b.n	10001c90 <_vsnprintf+0x838>
1000176e:	46b2      	mov	sl, r6
10001770:	465e      	mov	r6, fp
10001772:	4647      	mov	r7, r8
10001774:	46a8      	mov	r8, r5
10001776:	9d08      	ldr	r5, [sp, #32]
10001778:	003a      	movs	r2, r7
1000177a:	0033      	movs	r3, r6
1000177c:	3701      	adds	r7, #1
1000177e:	0021      	movs	r1, r4
10001780:	2020      	movs	r0, #32
10001782:	47a8      	blx	r5
10001784:	4547      	cmp	r7, r8
10001786:	d1f7      	bne.n	10001778 <_vsnprintf+0x320>
10001788:	46b3      	mov	fp, r6
1000178a:	464b      	mov	r3, r9
1000178c:	4656      	mov	r6, sl
1000178e:	003d      	movs	r5, r7
10001790:	9309      	str	r3, [sp, #36]	; 0x24
10001792:	3601      	adds	r6, #1
10001794:	e685      	b.n	100014a2 <_vsnprintf+0x4a>
10001796:	002a      	movs	r2, r5
10001798:	1c6f      	adds	r7, r5, #1
1000179a:	465b      	mov	r3, fp
1000179c:	9d08      	ldr	r5, [sp, #32]
1000179e:	0021      	movs	r1, r4
100017a0:	2025      	movs	r0, #37	; 0x25
100017a2:	47a8      	blx	r5
100017a4:	3601      	adds	r6, #1
100017a6:	003d      	movs	r5, r7
100017a8:	e67b      	b.n	100014a2 <_vsnprintf+0x4a>
100017aa:	46c0      	nop			; (mov r8, r8)
100017ac:	10001459 	.word	0x10001459
100017b0:	20001d54 	.word	0x20001d54
100017b4:	10008624 	.word	0x10008624
100017b8:	10008668 	.word	0x10008668
100017bc:	100086b4 	.word	0x100086b4
100017c0:	9b09      	ldr	r3, [sp, #36]	; 0x24
100017c2:	cb04      	ldmia	r3!, {r2}
100017c4:	4699      	mov	r9, r3
100017c6:	4643      	mov	r3, r8
100017c8:	9209      	str	r2, [sp, #36]	; 0x24
100017ca:	2b00      	cmp	r3, #0
100017cc:	d000      	beq.n	100017d0 <_vsnprintf+0x378>
100017ce:	e097      	b.n	10001900 <_vsnprintf+0x4a8>
100017d0:	7813      	ldrb	r3, [r2, #0]
100017d2:	469c      	mov	ip, r3
100017d4:	2b00      	cmp	r3, #0
100017d6:	d100      	bne.n	100017da <_vsnprintf+0x382>
100017d8:	e3b3      	b.n	10001f42 <_vsnprintf+0xaea>
100017da:	2302      	movs	r3, #2
100017dc:	425b      	negs	r3, r3
100017de:	1c5a      	adds	r2, r3, #1
100017e0:	9b09      	ldr	r3, [sp, #36]	; 0x24
100017e2:	4692      	mov	sl, r2
100017e4:	0018      	movs	r0, r3
100017e6:	9f0a      	ldr	r7, [sp, #40]	; 0x28
100017e8:	920b      	str	r2, [sp, #44]	; 0x2c
100017ea:	4450      	add	r0, sl
100017ec:	e002      	b.n	100017f4 <_vsnprintf+0x39c>
100017ee:	4283      	cmp	r3, r0
100017f0:	d100      	bne.n	100017f4 <_vsnprintf+0x39c>
100017f2:	e169      	b.n	10001ac8 <_vsnprintf+0x670>
100017f4:	785a      	ldrb	r2, [r3, #1]
100017f6:	3301      	adds	r3, #1
100017f8:	2a00      	cmp	r2, #0
100017fa:	d1f8      	bne.n	100017ee <_vsnprintf+0x396>
100017fc:	9a09      	ldr	r2, [sp, #36]	; 0x24
100017fe:	970a      	str	r7, [sp, #40]	; 0x28
10001800:	1a9b      	subs	r3, r3, r2
10001802:	930b      	str	r3, [sp, #44]	; 0x2c
10001804:	2380      	movs	r3, #128	; 0x80
10001806:	000a      	movs	r2, r1
10001808:	00db      	lsls	r3, r3, #3
1000180a:	401a      	ands	r2, r3
1000180c:	920c      	str	r2, [sp, #48]	; 0x30
1000180e:	4219      	tst	r1, r3
10001810:	d004      	beq.n	1000181c <_vsnprintf+0x3c4>
10001812:	9b0b      	ldr	r3, [sp, #44]	; 0x2c
10001814:	4543      	cmp	r3, r8
10001816:	d901      	bls.n	1000181c <_vsnprintf+0x3c4>
10001818:	4643      	mov	r3, r8
1000181a:	930b      	str	r3, [sp, #44]	; 0x2c
1000181c:	2302      	movs	r3, #2
1000181e:	001a      	movs	r2, r3
10001820:	400a      	ands	r2, r1
10001822:	920d      	str	r2, [sp, #52]	; 0x34
10001824:	420b      	tst	r3, r1
10001826:	d100      	bne.n	1000182a <_vsnprintf+0x3d2>
10001828:	e184      	b.n	10001b34 <_vsnprintf+0x6dc>
1000182a:	4660      	mov	r0, ip
1000182c:	2800      	cmp	r0, #0
1000182e:	d023      	beq.n	10001878 <_vsnprintf+0x420>
10001830:	9b0c      	ldr	r3, [sp, #48]	; 0x30
10001832:	2b00      	cmp	r3, #0
10001834:	d100      	bne.n	10001838 <_vsnprintf+0x3e0>
10001836:	e124      	b.n	10001a82 <_vsnprintf+0x62a>
10001838:	44a8      	add	r8, r5
1000183a:	46c2      	mov	sl, r8
1000183c:	9b09      	ldr	r3, [sp, #36]	; 0x24
1000183e:	4657      	mov	r7, sl
10001840:	1b5b      	subs	r3, r3, r5
10001842:	4698      	mov	r8, r3
10001844:	9b08      	ldr	r3, [sp, #32]
10001846:	46b2      	mov	sl, r6
10001848:	002a      	movs	r2, r5
1000184a:	0026      	movs	r6, r4
1000184c:	465c      	mov	r4, fp
1000184e:	469b      	mov	fp, r3
10001850:	e009      	b.n	10001866 <_vsnprintf+0x40e>
10001852:	0023      	movs	r3, r4
10001854:	0031      	movs	r1, r6
10001856:	1c55      	adds	r5, r2, #1
10001858:	47d8      	blx	fp
1000185a:	4643      	mov	r3, r8
1000185c:	5d58      	ldrb	r0, [r3, r5]
1000185e:	2800      	cmp	r0, #0
10001860:	d100      	bne.n	10001864 <_vsnprintf+0x40c>
10001862:	e13f      	b.n	10001ae4 <_vsnprintf+0x68c>
10001864:	002a      	movs	r2, r5
10001866:	4297      	cmp	r7, r2
10001868:	d1f3      	bne.n	10001852 <_vsnprintf+0x3fa>
1000186a:	46a3      	mov	fp, r4
1000186c:	003d      	movs	r5, r7
1000186e:	0034      	movs	r4, r6
10001870:	4656      	mov	r6, sl
10001872:	9b0d      	ldr	r3, [sp, #52]	; 0x34
10001874:	2b00      	cmp	r3, #0
10001876:	d069      	beq.n	1000194c <_vsnprintf+0x4f4>
10001878:	9b0b      	ldr	r3, [sp, #44]	; 0x2c
1000187a:	990a      	ldr	r1, [sp, #40]	; 0x28
1000187c:	46a8      	mov	r8, r5
1000187e:	4299      	cmp	r1, r3
10001880:	d964      	bls.n	1000194c <_vsnprintf+0x4f4>
10001882:	468c      	mov	ip, r1
10001884:	4465      	add	r5, ip
10001886:	1aed      	subs	r5, r5, r3
10001888:	9b08      	ldr	r3, [sp, #32]
1000188a:	4647      	mov	r7, r8
1000188c:	469a      	mov	sl, r3
1000188e:	46b0      	mov	r8, r6
10001890:	0026      	movs	r6, r4
10001892:	465c      	mov	r4, fp
10001894:	003a      	movs	r2, r7
10001896:	0023      	movs	r3, r4
10001898:	3701      	adds	r7, #1
1000189a:	0031      	movs	r1, r6
1000189c:	2020      	movs	r0, #32
1000189e:	47d0      	blx	sl
100018a0:	42af      	cmp	r7, r5
100018a2:	d1f7      	bne.n	10001894 <_vsnprintf+0x43c>
100018a4:	46a3      	mov	fp, r4
100018a6:	0034      	movs	r4, r6
100018a8:	4646      	mov	r6, r8
100018aa:	e04f      	b.n	1000194c <_vsnprintf+0x4f4>
100018ac:	4bd2      	ldr	r3, [pc, #840]	; (10001bf8 <_vsnprintf+0x7a0>)
100018ae:	7820      	ldrb	r0, [r4, #0]
100018b0:	9308      	str	r3, [sp, #32]
100018b2:	2300      	movs	r3, #0
100018b4:	469a      	mov	sl, r3
100018b6:	2800      	cmp	r0, #0
100018b8:	d000      	beq.n	100018bc <_vsnprintf+0x464>
100018ba:	e5e6      	b.n	1000148a <_vsnprintf+0x32>
100018bc:	2400      	movs	r4, #0
100018be:	e671      	b.n	100015a4 <_vsnprintf+0x14c>
100018c0:	4643      	mov	r3, r8
100018c2:	0006      	movs	r6, r0
100018c4:	9f0a      	ldr	r7, [sp, #40]	; 0x28
100018c6:	0098      	lsls	r0, r3, #2
100018c8:	18c0      	adds	r0, r0, r3
100018ca:	3201      	adds	r2, #1
100018cc:	0040      	lsls	r0, r0, #1
100018ce:	1980      	adds	r0, r0, r6
100018d0:	7816      	ldrb	r6, [r2, #0]
100018d2:	0003      	movs	r3, r0
100018d4:	0030      	movs	r0, r6
100018d6:	3830      	subs	r0, #48	; 0x30
100018d8:	3b30      	subs	r3, #48	; 0x30
100018da:	2809      	cmp	r0, #9
100018dc:	d9f3      	bls.n	100018c6 <_vsnprintf+0x46e>
100018de:	0030      	movs	r0, r6
100018e0:	4698      	mov	r8, r3
100018e2:	0016      	movs	r6, r2
100018e4:	970a      	str	r7, [sp, #40]	; 0x28
100018e6:	e603      	b.n	100014f0 <_vsnprintf+0x98>
100018e8:	9b09      	ldr	r3, [sp, #36]	; 0x24
100018ea:	3602      	adds	r6, #2
100018ec:	cb04      	ldmia	r3!, {r2}
100018ee:	4690      	mov	r8, r2
100018f0:	43d2      	mvns	r2, r2
100018f2:	4640      	mov	r0, r8
100018f4:	17d2      	asrs	r2, r2, #31
100018f6:	4010      	ands	r0, r2
100018f8:	4680      	mov	r8, r0
100018fa:	9309      	str	r3, [sp, #36]	; 0x24
100018fc:	7830      	ldrb	r0, [r6, #0]
100018fe:	e5f7      	b.n	100014f0 <_vsnprintf+0x98>
10001900:	7813      	ldrb	r3, [r2, #0]
10001902:	469c      	mov	ip, r3
10001904:	2b00      	cmp	r3, #0
10001906:	d100      	bne.n	1000190a <_vsnprintf+0x4b2>
10001908:	e31a      	b.n	10001f40 <_vsnprintf+0xae8>
1000190a:	4643      	mov	r3, r8
1000190c:	3b01      	subs	r3, #1
1000190e:	e766      	b.n	100017de <_vsnprintf+0x386>
10001910:	2210      	movs	r2, #16
10001912:	0008      	movs	r0, r1
10001914:	4390      	bics	r0, r2
10001916:	3211      	adds	r2, #17
10001918:	4310      	orrs	r0, r2
1000191a:	4682      	mov	sl, r0
1000191c:	2200      	movs	r2, #0
1000191e:	0549      	lsls	r1, r1, #21
10001920:	d400      	bmi.n	10001924 <_vsnprintf+0x4cc>
10001922:	e6f2      	b.n	1000170a <_vsnprintf+0x2b2>
10001924:	4653      	mov	r3, sl
10001926:	9306      	str	r3, [sp, #24]
10001928:	2308      	movs	r3, #8
1000192a:	9305      	str	r3, [sp, #20]
1000192c:	4643      	mov	r3, r8
1000192e:	9304      	str	r3, [sp, #16]
10001930:	2310      	movs	r3, #16
10001932:	9303      	str	r3, [sp, #12]
10001934:	2300      	movs	r3, #0
10001936:	9302      	str	r3, [sp, #8]
10001938:	ab16      	add	r3, sp, #88	; 0x58
1000193a:	9201      	str	r2, [sp, #4]
1000193c:	9300      	str	r3, [sp, #0]
1000193e:	002a      	movs	r2, r5
10001940:	465b      	mov	r3, fp
10001942:	0021      	movs	r1, r4
10001944:	9808      	ldr	r0, [sp, #32]
10001946:	f7ff f879 	bl	10000a3c <_ntoa_format>
1000194a:	0005      	movs	r5, r0
1000194c:	464b      	mov	r3, r9
1000194e:	3601      	adds	r6, #1
10001950:	9309      	str	r3, [sp, #36]	; 0x24
10001952:	e5a6      	b.n	100014a2 <_vsnprintf+0x4a>
10001954:	2320      	movs	r3, #32
10001956:	0002      	movs	r2, r0
10001958:	439a      	bics	r2, r3
1000195a:	2a47      	cmp	r2, #71	; 0x47
1000195c:	d104      	bne.n	10001968 <_vsnprintf+0x510>
1000195e:	2380      	movs	r3, #128	; 0x80
10001960:	011b      	lsls	r3, r3, #4
10001962:	4319      	orrs	r1, r3
10001964:	2302      	movs	r3, #2
10001966:	4398      	bics	r0, r3
10001968:	2845      	cmp	r0, #69	; 0x45
1000196a:	d101      	bne.n	10001970 <_vsnprintf+0x518>
1000196c:	2320      	movs	r3, #32
1000196e:	4319      	orrs	r1, r3
10001970:	2207      	movs	r2, #7
10001972:	9b09      	ldr	r3, [sp, #36]	; 0x24
10001974:	9104      	str	r1, [sp, #16]
10001976:	3307      	adds	r3, #7
10001978:	4393      	bics	r3, r2
1000197a:	9a0a      	ldr	r2, [sp, #40]	; 0x28
1000197c:	0019      	movs	r1, r3
1000197e:	9203      	str	r2, [sp, #12]
10001980:	4642      	mov	r2, r8
10001982:	9202      	str	r2, [sp, #8]
10001984:	c90c      	ldmia	r1!, {r2, r3}
10001986:	9808      	ldr	r0, [sp, #32]
10001988:	9200      	str	r2, [sp, #0]
1000198a:	9301      	str	r3, [sp, #4]
1000198c:	9109      	str	r1, [sp, #36]	; 0x24
1000198e:	002a      	movs	r2, r5
10001990:	465b      	mov	r3, fp
10001992:	0021      	movs	r1, r4
10001994:	f7ff f94a 	bl	10000c2c <_etoa>
10001998:	3601      	adds	r6, #1
1000199a:	0005      	movs	r5, r0
1000199c:	e581      	b.n	100014a2 <_vsnprintf+0x4a>
1000199e:	2310      	movs	r3, #16
100019a0:	930c      	str	r3, [sp, #48]	; 0x30
100019a2:	230c      	movs	r3, #12
100019a4:	000a      	movs	r2, r1
100019a6:	439a      	bics	r2, r3
100019a8:	920b      	str	r2, [sp, #44]	; 0x2c
100019aa:	054b      	lsls	r3, r1, #21
100019ac:	d400      	bmi.n	100019b0 <_vsnprintf+0x558>
100019ae:	e63b      	b.n	10001628 <_vsnprintf+0x1d0>
100019b0:	e636      	b.n	10001620 <_vsnprintf+0x1c8>
100019b2:	2320      	movs	r3, #32
100019b4:	4319      	orrs	r1, r3
100019b6:	e687      	b.n	100016c8 <_vsnprintf+0x270>
100019b8:	2302      	movs	r3, #2
100019ba:	930c      	str	r3, [sp, #48]	; 0x30
100019bc:	910b      	str	r1, [sp, #44]	; 0x2c
100019be:	990b      	ldr	r1, [sp, #44]	; 0x2c
100019c0:	2864      	cmp	r0, #100	; 0x64
100019c2:	d1ee      	bne.n	100019a2 <_vsnprintf+0x54a>
100019c4:	9b0b      	ldr	r3, [sp, #44]	; 0x2c
100019c6:	055b      	lsls	r3, r3, #21
100019c8:	d500      	bpl.n	100019cc <_vsnprintf+0x574>
100019ca:	e629      	b.n	10001620 <_vsnprintf+0x1c8>
100019cc:	9a0b      	ldr	r2, [sp, #44]	; 0x2c
100019ce:	2380      	movs	r3, #128	; 0x80
100019d0:	0011      	movs	r1, r2
100019d2:	009b      	lsls	r3, r3, #2
100019d4:	4019      	ands	r1, r3
100019d6:	468a      	mov	sl, r1
100019d8:	421a      	tst	r2, r3
100019da:	d000      	beq.n	100019de <_vsnprintf+0x586>
100019dc:	e0ce      	b.n	10001b7c <_vsnprintf+0x724>
100019de:	2380      	movs	r3, #128	; 0x80
100019e0:	0011      	movs	r1, r2
100019e2:	005b      	lsls	r3, r3, #1
100019e4:	4019      	ands	r1, r3
100019e6:	4689      	mov	r9, r1
100019e8:	421a      	tst	r2, r3
100019ea:	d000      	beq.n	100019ee <_vsnprintf+0x596>
100019ec:	e1db      	b.n	10001da6 <_vsnprintf+0x94e>
100019ee:	0013      	movs	r3, r2
100019f0:	065b      	lsls	r3, r3, #25
100019f2:	d500      	bpl.n	100019f6 <_vsnprintf+0x59e>
100019f4:	e11d      	b.n	10001c32 <_vsnprintf+0x7da>
100019f6:	9b0b      	ldr	r3, [sp, #44]	; 0x2c
100019f8:	9909      	ldr	r1, [sp, #36]	; 0x24
100019fa:	061b      	lsls	r3, r3, #24
100019fc:	d400      	bmi.n	10001a00 <_vsnprintf+0x5a8>
100019fe:	e299      	b.n	10001f34 <_vsnprintf+0xadc>
10001a00:	c908      	ldmia	r1!, {r3}
10001a02:	b21b      	sxth	r3, r3
10001a04:	17d8      	asrs	r0, r3, #31
10001a06:	181a      	adds	r2, r3, r0
10001a08:	4042      	eors	r2, r0
10001a0a:	b292      	uxth	r2, r2
10001a0c:	9109      	str	r1, [sp, #36]	; 0x24
10001a0e:	4692      	mov	sl, r2
10001a10:	0fda      	lsrs	r2, r3, #31
10001a12:	9212      	str	r2, [sp, #72]	; 0x48
10001a14:	2b00      	cmp	r3, #0
10001a16:	d109      	bne.n	10001a2c <_vsnprintf+0x5d4>
10001a18:	2380      	movs	r3, #128	; 0x80
10001a1a:	2210      	movs	r2, #16
10001a1c:	990b      	ldr	r1, [sp, #44]	; 0x2c
10001a1e:	00db      	lsls	r3, r3, #3
10001a20:	400b      	ands	r3, r1
10001a22:	4391      	bics	r1, r2
10001a24:	910b      	str	r1, [sp, #44]	; 0x2c
10001a26:	2b00      	cmp	r3, #0
10001a28:	d000      	beq.n	10001a2c <_vsnprintf+0x5d4>
10001a2a:	e112      	b.n	10001c52 <_vsnprintf+0x7fa>
10001a2c:	9a0b      	ldr	r2, [sp, #44]	; 0x2c
10001a2e:	2361      	movs	r3, #97	; 0x61
10001a30:	0692      	lsls	r2, r2, #26
10001a32:	d500      	bpl.n	10001a36 <_vsnprintf+0x5de>
10001a34:	2341      	movs	r3, #65	; 0x41
10001a36:	a90e      	add	r1, sp, #56	; 0x38
10001a38:	221f      	movs	r2, #31
10001a3a:	468c      	mov	ip, r1
10001a3c:	b2db      	uxtb	r3, r3
10001a3e:	4462      	add	r2, ip
10001a40:	3b0a      	subs	r3, #10
10001a42:	4657      	mov	r7, sl
10001a44:	9513      	str	r5, [sp, #76]	; 0x4c
10001a46:	46a2      	mov	sl, r4
10001a48:	464d      	mov	r5, r9
10001a4a:	9c0c      	ldr	r4, [sp, #48]	; 0x30
10001a4c:	46b1      	mov	r9, r6
10001a4e:	930d      	str	r3, [sp, #52]	; 0x34
10001a50:	0016      	movs	r6, r2
10001a52:	e00a      	b.n	10001a6a <_vsnprintf+0x612>
10001a54:	3330      	adds	r3, #48	; 0x30
10001a56:	b2db      	uxtb	r3, r3
10001a58:	3501      	adds	r5, #1
10001a5a:	5573      	strb	r3, [r6, r5]
10001a5c:	42a7      	cmp	r7, r4
10001a5e:	d200      	bcs.n	10001a62 <_vsnprintf+0x60a>
10001a60:	e11c      	b.n	10001c9c <_vsnprintf+0x844>
10001a62:	2d20      	cmp	r5, #32
10001a64:	d100      	bne.n	10001a68 <_vsnprintf+0x610>
10001a66:	e119      	b.n	10001c9c <_vsnprintf+0x844>
10001a68:	0007      	movs	r7, r0
10001a6a:	0021      	movs	r1, r4
10001a6c:	0038      	movs	r0, r7
10001a6e:	f004 f813 	bl	10005a98 <__wrap___aeabi_uidiv>
10001a72:	b2cb      	uxtb	r3, r1
10001a74:	2909      	cmp	r1, #9
10001a76:	d9ed      	bls.n	10001a54 <_vsnprintf+0x5fc>
10001a78:	9a0d      	ldr	r2, [sp, #52]	; 0x34
10001a7a:	4694      	mov	ip, r2
10001a7c:	4463      	add	r3, ip
10001a7e:	b2db      	uxtb	r3, r3
10001a80:	e7ea      	b.n	10001a58 <_vsnprintf+0x600>
10001a82:	9b09      	ldr	r3, [sp, #36]	; 0x24
10001a84:	465f      	mov	r7, fp
10001a86:	1b5b      	subs	r3, r3, r5
10001a88:	4698      	mov	r8, r3
10001a8a:	9b0a      	ldr	r3, [sp, #40]	; 0x28
10001a8c:	46b3      	mov	fp, r6
10001a8e:	469a      	mov	sl, r3
10001a90:	0026      	movs	r6, r4
10001a92:	9c08      	ldr	r4, [sp, #32]
10001a94:	002a      	movs	r2, r5
10001a96:	003b      	movs	r3, r7
10001a98:	0031      	movs	r1, r6
10001a9a:	47a0      	blx	r4
10001a9c:	4643      	mov	r3, r8
10001a9e:	3501      	adds	r5, #1
10001aa0:	5d58      	ldrb	r0, [r3, r5]
10001aa2:	2800      	cmp	r0, #0
10001aa4:	d1f6      	bne.n	10001a94 <_vsnprintf+0x63c>
10001aa6:	4653      	mov	r3, sl
10001aa8:	0034      	movs	r4, r6
10001aaa:	930a      	str	r3, [sp, #40]	; 0x28
10001aac:	465e      	mov	r6, fp
10001aae:	46bb      	mov	fp, r7
10001ab0:	e6df      	b.n	10001872 <_vsnprintf+0x41a>
10001ab2:	23c0      	movs	r3, #192	; 0xc0
10001ab4:	009b      	lsls	r3, r3, #2
10001ab6:	78b0      	ldrb	r0, [r6, #2]
10001ab8:	4319      	orrs	r1, r3
10001aba:	3602      	adds	r6, #2
10001abc:	e53d      	b.n	1000153a <_vsnprintf+0xe2>
10001abe:	23c0      	movs	r3, #192	; 0xc0
10001ac0:	78b0      	ldrb	r0, [r6, #2]
10001ac2:	4319      	orrs	r1, r3
10001ac4:	3602      	adds	r6, #2
10001ac6:	e538      	b.n	1000153a <_vsnprintf+0xe2>
10001ac8:	970a      	str	r7, [sp, #40]	; 0x28
10001aca:	e69b      	b.n	10001804 <_vsnprintf+0x3ac>
10001acc:	230c      	movs	r3, #12
10001ace:	000a      	movs	r2, r1
10001ad0:	439a      	bics	r2, r3
10001ad2:	3314      	adds	r3, #20
10001ad4:	431a      	orrs	r2, r3
10001ad6:	2310      	movs	r3, #16
10001ad8:	920b      	str	r2, [sp, #44]	; 0x2c
10001ada:	930c      	str	r3, [sp, #48]	; 0x30
10001adc:	054b      	lsls	r3, r1, #21
10001ade:	d400      	bmi.n	10001ae2 <_vsnprintf+0x68a>
10001ae0:	e5a8      	b.n	10001634 <_vsnprintf+0x1dc>
10001ae2:	e59d      	b.n	10001620 <_vsnprintf+0x1c8>
10001ae4:	46a3      	mov	fp, r4
10001ae6:	0034      	movs	r4, r6
10001ae8:	4656      	mov	r6, sl
10001aea:	e6c2      	b.n	10001872 <_vsnprintf+0x41a>
10001aec:	9a0a      	ldr	r2, [sp, #40]	; 0x28
10001aee:	2a01      	cmp	r2, #1
10001af0:	d800      	bhi.n	10001af4 <_vsnprintf+0x69c>
10001af2:	e22e      	b.n	10001f52 <_vsnprintf+0xafa>
10001af4:	1e6b      	subs	r3, r5, #1
10001af6:	189f      	adds	r7, r3, r2
10001af8:	9b08      	ldr	r3, [sp, #32]
10001afa:	46b0      	mov	r8, r6
10001afc:	4699      	mov	r9, r3
10001afe:	0026      	movs	r6, r4
10001b00:	465c      	mov	r4, fp
10001b02:	002a      	movs	r2, r5
10001b04:	0023      	movs	r3, r4
10001b06:	3501      	adds	r5, #1
10001b08:	0031      	movs	r1, r6
10001b0a:	2020      	movs	r0, #32
10001b0c:	47c8      	blx	r9
10001b0e:	42bd      	cmp	r5, r7
10001b10:	d1f7      	bne.n	10001b02 <_vsnprintf+0x6aa>
10001b12:	46a3      	mov	fp, r4
10001b14:	0034      	movs	r4, r6
10001b16:	4646      	mov	r6, r8
10001b18:	9b09      	ldr	r3, [sp, #36]	; 0x24
10001b1a:	003a      	movs	r2, r7
10001b1c:	cb01      	ldmia	r3!, {r0}
10001b1e:	0021      	movs	r1, r4
10001b20:	4698      	mov	r8, r3
10001b22:	1c7d      	adds	r5, r7, #1
10001b24:	465b      	mov	r3, fp
10001b26:	9f08      	ldr	r7, [sp, #32]
10001b28:	b2c0      	uxtb	r0, r0
10001b2a:	47b8      	blx	r7
10001b2c:	4643      	mov	r3, r8
10001b2e:	3601      	adds	r6, #1
10001b30:	9309      	str	r3, [sp, #36]	; 0x24
10001b32:	e4b6      	b.n	100014a2 <_vsnprintf+0x4a>
10001b34:	9a0b      	ldr	r2, [sp, #44]	; 0x2c
10001b36:	980a      	ldr	r0, [sp, #40]	; 0x28
10001b38:	1c53      	adds	r3, r2, #1
10001b3a:	4290      	cmp	r0, r2
10001b3c:	d800      	bhi.n	10001b40 <_vsnprintf+0x6e8>
10001b3e:	e20a      	b.n	10001f56 <_vsnprintf+0xafe>
10001b40:	1943      	adds	r3, r0, r5
10001b42:	1a9b      	subs	r3, r3, r2
10001b44:	001f      	movs	r7, r3
10001b46:	9b08      	ldr	r3, [sp, #32]
10001b48:	46b2      	mov	sl, r6
10001b4a:	0026      	movs	r6, r4
10001b4c:	465c      	mov	r4, fp
10001b4e:	469b      	mov	fp, r3
10001b50:	002a      	movs	r2, r5
10001b52:	0023      	movs	r3, r4
10001b54:	3501      	adds	r5, #1
10001b56:	0031      	movs	r1, r6
10001b58:	2020      	movs	r0, #32
10001b5a:	47d8      	blx	fp
10001b5c:	42bd      	cmp	r5, r7
10001b5e:	d1f7      	bne.n	10001b50 <_vsnprintf+0x6f8>
10001b60:	9b0a      	ldr	r3, [sp, #40]	; 0x28
10001b62:	46a3      	mov	fp, r4
10001b64:	3301      	adds	r3, #1
10001b66:	930b      	str	r3, [sp, #44]	; 0x2c
10001b68:	9b09      	ldr	r3, [sp, #36]	; 0x24
10001b6a:	0034      	movs	r4, r6
10001b6c:	781b      	ldrb	r3, [r3, #0]
10001b6e:	4656      	mov	r6, sl
10001b70:	469c      	mov	ip, r3
10001b72:	4660      	mov	r0, ip
10001b74:	2800      	cmp	r0, #0
10001b76:	d000      	beq.n	10001b7a <_vsnprintf+0x722>
10001b78:	e65a      	b.n	10001830 <_vsnprintf+0x3d8>
10001b7a:	e6e7      	b.n	1000194c <_vsnprintf+0x4f4>
10001b7c:	2207      	movs	r2, #7
10001b7e:	9b09      	ldr	r3, [sp, #36]	; 0x24
10001b80:	3307      	adds	r3, #7
10001b82:	4393      	bics	r3, r2
10001b84:	3201      	adds	r2, #1
10001b86:	4694      	mov	ip, r2
10001b88:	449c      	add	ip, r3
10001b8a:	4662      	mov	r2, ip
10001b8c:	685f      	ldr	r7, [r3, #4]
10001b8e:	9209      	str	r2, [sp, #36]	; 0x24
10001b90:	681a      	ldr	r2, [r3, #0]
10001b92:	17fb      	asrs	r3, r7, #31
10001b94:	9310      	str	r3, [sp, #64]	; 0x40
10001b96:	9311      	str	r3, [sp, #68]	; 0x44
10001b98:	9810      	ldr	r0, [sp, #64]	; 0x40
10001b9a:	9911      	ldr	r1, [sp, #68]	; 0x44
10001b9c:	0003      	movs	r3, r0
10001b9e:	4053      	eors	r3, r2
10001ba0:	930e      	str	r3, [sp, #56]	; 0x38
10001ba2:	000b      	movs	r3, r1
10001ba4:	407b      	eors	r3, r7
10001ba6:	930f      	str	r3, [sp, #60]	; 0x3c
10001ba8:	4694      	mov	ip, r2
10001baa:	9a0e      	ldr	r2, [sp, #56]	; 0x38
10001bac:	9b0f      	ldr	r3, [sp, #60]	; 0x3c
10001bae:	1a12      	subs	r2, r2, r0
10001bb0:	418b      	sbcs	r3, r1
10001bb2:	920e      	str	r2, [sp, #56]	; 0x38
10001bb4:	930f      	str	r3, [sp, #60]	; 0x3c
10001bb6:	0ffb      	lsrs	r3, r7, #31
10001bb8:	4662      	mov	r2, ip
10001bba:	9312      	str	r3, [sp, #72]	; 0x48
10001bbc:	2300      	movs	r3, #0
10001bbe:	433a      	orrs	r2, r7
10001bc0:	469a      	mov	sl, r3
10001bc2:	d03d      	beq.n	10001c40 <_vsnprintf+0x7e8>
10001bc4:	9a0b      	ldr	r2, [sp, #44]	; 0x2c
10001bc6:	2361      	movs	r3, #97	; 0x61
10001bc8:	0692      	lsls	r2, r2, #26
10001bca:	d500      	bpl.n	10001bce <_vsnprintf+0x776>
10001bcc:	2341      	movs	r3, #65	; 0x41
10001bce:	2200      	movs	r2, #0
10001bd0:	b2db      	uxtb	r3, r3
10001bd2:	a90e      	add	r1, sp, #56	; 0x38
10001bd4:	3b0a      	subs	r3, #10
10001bd6:	468c      	mov	ip, r1
10001bd8:	4691      	mov	r9, r2
10001bda:	930d      	str	r3, [sp, #52]	; 0x34
10001bdc:	4643      	mov	r3, r8
10001bde:	321f      	adds	r2, #31
10001be0:	4462      	add	r2, ip
10001be2:	9513      	str	r5, [sp, #76]	; 0x4c
10001be4:	9615      	str	r6, [sp, #84]	; 0x54
10001be6:	464d      	mov	r5, r9
10001be8:	9e0e      	ldr	r6, [sp, #56]	; 0x38
10001bea:	9f0f      	ldr	r7, [sp, #60]	; 0x3c
10001bec:	46a1      	mov	r9, r4
10001bee:	4690      	mov	r8, r2
10001bf0:	9c0c      	ldr	r4, [sp, #48]	; 0x30
10001bf2:	9314      	str	r3, [sp, #80]	; 0x50
10001bf4:	e00f      	b.n	10001c16 <_vsnprintf+0x7be>
10001bf6:	46c0      	nop			; (mov r8, r8)
10001bf8:	10000969 	.word	0x10000969
10001bfc:	3230      	adds	r2, #48	; 0x30
10001bfe:	b2d2      	uxtb	r2, r2
10001c00:	4643      	mov	r3, r8
10001c02:	3501      	adds	r5, #1
10001c04:	555a      	strb	r2, [r3, r5]
10001c06:	45ba      	cmp	sl, r7
10001c08:	d100      	bne.n	10001c0c <_vsnprintf+0x7b4>
10001c0a:	e17c      	b.n	10001f06 <_vsnprintf+0xaae>
10001c0c:	2d20      	cmp	r5, #32
10001c0e:	d100      	bne.n	10001c12 <_vsnprintf+0x7ba>
10001c10:	e17c      	b.n	10001f0c <_vsnprintf+0xab4>
10001c12:	0006      	movs	r6, r0
10001c14:	000f      	movs	r7, r1
10001c16:	0022      	movs	r2, r4
10001c18:	2300      	movs	r3, #0
10001c1a:	0030      	movs	r0, r6
10001c1c:	0039      	movs	r1, r7
10001c1e:	f003 ff81 	bl	10005b24 <__wrap___aeabi_uldivmod>
10001c22:	b2d2      	uxtb	r2, r2
10001c24:	2a09      	cmp	r2, #9
10001c26:	d9e9      	bls.n	10001bfc <_vsnprintf+0x7a4>
10001c28:	9b0d      	ldr	r3, [sp, #52]	; 0x34
10001c2a:	469c      	mov	ip, r3
10001c2c:	4462      	add	r2, ip
10001c2e:	b2d2      	uxtb	r2, r2
10001c30:	e7e6      	b.n	10001c00 <_vsnprintf+0x7a8>
10001c32:	23ff      	movs	r3, #255	; 0xff
10001c34:	9909      	ldr	r1, [sp, #36]	; 0x24
10001c36:	c904      	ldmia	r1!, {r2}
10001c38:	4013      	ands	r3, r2
10001c3a:	001a      	movs	r2, r3
10001c3c:	9109      	str	r1, [sp, #36]	; 0x24
10001c3e:	e6e6      	b.n	10001a0e <_vsnprintf+0x5b6>
10001c40:	9a0b      	ldr	r2, [sp, #44]	; 0x2c
10001c42:	3310      	adds	r3, #16
10001c44:	0011      	movs	r1, r2
10001c46:	4399      	bics	r1, r3
10001c48:	910b      	str	r1, [sp, #44]	; 0x2c
10001c4a:	0552      	lsls	r2, r2, #21
10001c4c:	d5ba      	bpl.n	10001bc4 <_vsnprintf+0x76c>
10001c4e:	2300      	movs	r3, #0
10001c50:	4699      	mov	r9, r3
10001c52:	9b0b      	ldr	r3, [sp, #44]	; 0x2c
10001c54:	9306      	str	r3, [sp, #24]
10001c56:	9b0a      	ldr	r3, [sp, #40]	; 0x28
10001c58:	9305      	str	r3, [sp, #20]
10001c5a:	4643      	mov	r3, r8
10001c5c:	9304      	str	r3, [sp, #16]
10001c5e:	9b0c      	ldr	r3, [sp, #48]	; 0x30
10001c60:	9303      	str	r3, [sp, #12]
10001c62:	9b12      	ldr	r3, [sp, #72]	; 0x48
10001c64:	9302      	str	r3, [sp, #8]
10001c66:	464b      	mov	r3, r9
10001c68:	9301      	str	r3, [sp, #4]
10001c6a:	ab16      	add	r3, sp, #88	; 0x58
10001c6c:	002a      	movs	r2, r5
10001c6e:	9300      	str	r3, [sp, #0]
10001c70:	0021      	movs	r1, r4
10001c72:	465b      	mov	r3, fp
10001c74:	9808      	ldr	r0, [sp, #32]
10001c76:	f7fe fee1 	bl	10000a3c <_ntoa_format>
10001c7a:	3601      	adds	r6, #1
10001c7c:	0005      	movs	r5, r0
10001c7e:	f7ff fc10 	bl	100014a2 <_vsnprintf+0x4a>
10001c82:	22ff      	movs	r2, #255	; 0xff
10001c84:	9b09      	ldr	r3, [sp, #36]	; 0x24
10001c86:	cb02      	ldmia	r3!, {r1}
10001c88:	4011      	ands	r1, r2
10001c8a:	468a      	mov	sl, r1
10001c8c:	9309      	str	r3, [sp, #36]	; 0x24
10001c8e:	e4f2      	b.n	10001676 <_vsnprintf+0x21e>
10001c90:	464b      	mov	r3, r9
10001c92:	4645      	mov	r5, r8
10001c94:	9309      	str	r3, [sp, #36]	; 0x24
10001c96:	3601      	adds	r6, #1
10001c98:	f7ff fc03 	bl	100014a2 <_vsnprintf+0x4a>
10001c9c:	464e      	mov	r6, r9
10001c9e:	4654      	mov	r4, sl
10001ca0:	46a9      	mov	r9, r5
10001ca2:	9d13      	ldr	r5, [sp, #76]	; 0x4c
10001ca4:	e7d5      	b.n	10001c52 <_vsnprintf+0x7fa>
10001ca6:	2308      	movs	r3, #8
10001ca8:	930c      	str	r3, [sp, #48]	; 0x30
10001caa:	e687      	b.n	100019bc <_vsnprintf+0x564>
10001cac:	2207      	movs	r2, #7
10001cae:	9b09      	ldr	r3, [sp, #36]	; 0x24
10001cb0:	3307      	adds	r3, #7
10001cb2:	4393      	bics	r3, r2
10001cb4:	3201      	adds	r2, #1
10001cb6:	4694      	mov	ip, r2
10001cb8:	449c      	add	ip, r3
10001cba:	4662      	mov	r2, ip
10001cbc:	9209      	str	r2, [sp, #36]	; 0x24
10001cbe:	681a      	ldr	r2, [r3, #0]
10001cc0:	685b      	ldr	r3, [r3, #4]
10001cc2:	0010      	movs	r0, r2
10001cc4:	469a      	mov	sl, r3
10001cc6:	0013      	movs	r3, r2
10001cc8:	4652      	mov	r2, sl
10001cca:	4313      	orrs	r3, r2
10001ccc:	d107      	bne.n	10001cde <_vsnprintf+0x886>
10001cce:	9a0b      	ldr	r2, [sp, #44]	; 0x2c
10001cd0:	3310      	adds	r3, #16
10001cd2:	0011      	movs	r1, r2
10001cd4:	4399      	bics	r1, r3
10001cd6:	910b      	str	r1, [sp, #44]	; 0x2c
10001cd8:	0552      	lsls	r2, r2, #21
10001cda:	d500      	bpl.n	10001cde <_vsnprintf+0x886>
10001cdc:	e4d7      	b.n	1000168e <_vsnprintf+0x236>
10001cde:	9a0b      	ldr	r2, [sp, #44]	; 0x2c
10001ce0:	2361      	movs	r3, #97	; 0x61
10001ce2:	0692      	lsls	r2, r2, #26
10001ce4:	d500      	bpl.n	10001ce8 <_vsnprintf+0x890>
10001ce6:	2341      	movs	r3, #65	; 0x41
10001ce8:	2200      	movs	r2, #0
10001cea:	b2db      	uxtb	r3, r3
10001cec:	a90e      	add	r1, sp, #56	; 0x38
10001cee:	3b0a      	subs	r3, #10
10001cf0:	468c      	mov	ip, r1
10001cf2:	4691      	mov	r9, r2
10001cf4:	930d      	str	r3, [sp, #52]	; 0x34
10001cf6:	4643      	mov	r3, r8
10001cf8:	321f      	adds	r2, #31
10001cfa:	4462      	add	r2, ip
10001cfc:	4657      	mov	r7, sl
10001cfe:	9512      	str	r5, [sp, #72]	; 0x48
10001d00:	46a2      	mov	sl, r4
10001d02:	464d      	mov	r5, r9
10001d04:	0004      	movs	r4, r0
10001d06:	46b1      	mov	r9, r6
10001d08:	4690      	mov	r8, r2
10001d0a:	9e0c      	ldr	r6, [sp, #48]	; 0x30
10001d0c:	9313      	str	r3, [sp, #76]	; 0x4c
10001d0e:	e00d      	b.n	10001d2c <_vsnprintf+0x8d4>
10001d10:	3230      	adds	r2, #48	; 0x30
10001d12:	b2d2      	uxtb	r2, r2
10001d14:	4643      	mov	r3, r8
10001d16:	3501      	adds	r5, #1
10001d18:	555a      	strb	r2, [r3, r5]
10001d1a:	2300      	movs	r3, #0
10001d1c:	42bb      	cmp	r3, r7
10001d1e:	d100      	bne.n	10001d22 <_vsnprintf+0x8ca>
10001d20:	e0fd      	b.n	10001f1e <_vsnprintf+0xac6>
10001d22:	2d20      	cmp	r5, #32
10001d24:	d100      	bne.n	10001d28 <_vsnprintf+0x8d0>
10001d26:	e0fd      	b.n	10001f24 <_vsnprintf+0xacc>
10001d28:	0004      	movs	r4, r0
10001d2a:	000f      	movs	r7, r1
10001d2c:	0032      	movs	r2, r6
10001d2e:	2300      	movs	r3, #0
10001d30:	0020      	movs	r0, r4
10001d32:	0039      	movs	r1, r7
10001d34:	f003 fef6 	bl	10005b24 <__wrap___aeabi_uldivmod>
10001d38:	b2d2      	uxtb	r2, r2
10001d3a:	2a09      	cmp	r2, #9
10001d3c:	d9e8      	bls.n	10001d10 <_vsnprintf+0x8b8>
10001d3e:	9b0d      	ldr	r3, [sp, #52]	; 0x34
10001d40:	469c      	mov	ip, r3
10001d42:	4462      	add	r2, ip
10001d44:	b2d2      	uxtb	r2, r2
10001d46:	e7e5      	b.n	10001d14 <_vsnprintf+0x8bc>
10001d48:	9a0b      	ldr	r2, [sp, #44]	; 0x2c
10001d4a:	2361      	movs	r3, #97	; 0x61
10001d4c:	0692      	lsls	r2, r2, #26
10001d4e:	d500      	bpl.n	10001d52 <_vsnprintf+0x8fa>
10001d50:	2341      	movs	r3, #65	; 0x41
10001d52:	b2db      	uxtb	r3, r3
10001d54:	a90e      	add	r1, sp, #56	; 0x38
10001d56:	3b0a      	subs	r3, #10
10001d58:	221f      	movs	r2, #31
10001d5a:	468c      	mov	ip, r1
10001d5c:	930d      	str	r3, [sp, #52]	; 0x34
10001d5e:	0023      	movs	r3, r4
10001d60:	4462      	add	r2, ip
10001d62:	4654      	mov	r4, sl
10001d64:	9512      	str	r5, [sp, #72]	; 0x48
10001d66:	0017      	movs	r7, r2
10001d68:	464d      	mov	r5, r9
10001d6a:	469a      	mov	sl, r3
10001d6c:	46b1      	mov	r9, r6
10001d6e:	9e0c      	ldr	r6, [sp, #48]	; 0x30
10001d70:	e008      	b.n	10001d84 <_vsnprintf+0x92c>
10001d72:	3330      	adds	r3, #48	; 0x30
10001d74:	b2db      	uxtb	r3, r3
10001d76:	3501      	adds	r5, #1
10001d78:	557b      	strb	r3, [r7, r5]
10001d7a:	42b4      	cmp	r4, r6
10001d7c:	d30e      	bcc.n	10001d9c <_vsnprintf+0x944>
10001d7e:	2d20      	cmp	r5, #32
10001d80:	d00c      	beq.n	10001d9c <_vsnprintf+0x944>
10001d82:	0004      	movs	r4, r0
10001d84:	0031      	movs	r1, r6
10001d86:	0020      	movs	r0, r4
10001d88:	f003 fe86 	bl	10005a98 <__wrap___aeabi_uidiv>
10001d8c:	b2cb      	uxtb	r3, r1
10001d8e:	2909      	cmp	r1, #9
10001d90:	d9ef      	bls.n	10001d72 <_vsnprintf+0x91a>
10001d92:	9a0d      	ldr	r2, [sp, #52]	; 0x34
10001d94:	4694      	mov	ip, r2
10001d96:	4463      	add	r3, ip
10001d98:	b2db      	uxtb	r3, r3
10001d9a:	e7ec      	b.n	10001d76 <_vsnprintf+0x91e>
10001d9c:	464e      	mov	r6, r9
10001d9e:	4654      	mov	r4, sl
10001da0:	46a9      	mov	r9, r5
10001da2:	9d12      	ldr	r5, [sp, #72]	; 0x48
10001da4:	e475      	b.n	10001692 <_vsnprintf+0x23a>
10001da6:	9b09      	ldr	r3, [sp, #36]	; 0x24
10001da8:	001a      	movs	r2, r3
10001daa:	ca08      	ldmia	r2!, {r3}
10001dac:	17d9      	asrs	r1, r3, #31
10001dae:	9213      	str	r2, [sp, #76]	; 0x4c
10001db0:	185a      	adds	r2, r3, r1
10001db2:	404a      	eors	r2, r1
10001db4:	4691      	mov	r9, r2
10001db6:	0fda      	lsrs	r2, r3, #31
10001db8:	9212      	str	r2, [sp, #72]	; 0x48
10001dba:	2b00      	cmp	r3, #0
10001dbc:	d108      	bne.n	10001dd0 <_vsnprintf+0x978>
10001dbe:	2380      	movs	r3, #128	; 0x80
10001dc0:	2210      	movs	r2, #16
10001dc2:	990b      	ldr	r1, [sp, #44]	; 0x2c
10001dc4:	00db      	lsls	r3, r3, #3
10001dc6:	400b      	ands	r3, r1
10001dc8:	4391      	bics	r1, r2
10001dca:	910b      	str	r1, [sp, #44]	; 0x2c
10001dcc:	2b00      	cmp	r3, #0
10001dce:	d12b      	bne.n	10001e28 <_vsnprintf+0x9d0>
10001dd0:	9a0b      	ldr	r2, [sp, #44]	; 0x2c
10001dd2:	2361      	movs	r3, #97	; 0x61
10001dd4:	0692      	lsls	r2, r2, #26
10001dd6:	d500      	bpl.n	10001dda <_vsnprintf+0x982>
10001dd8:	2341      	movs	r3, #65	; 0x41
10001dda:	aa0e      	add	r2, sp, #56	; 0x38
10001ddc:	271f      	movs	r7, #31
10001dde:	4694      	mov	ip, r2
10001de0:	b2db      	uxtb	r3, r3
10001de2:	3b0a      	subs	r3, #10
10001de4:	950d      	str	r5, [sp, #52]	; 0x34
10001de6:	4467      	add	r7, ip
10001de8:	4655      	mov	r5, sl
10001dea:	9309      	str	r3, [sp, #36]	; 0x24
10001dec:	46a2      	mov	sl, r4
10001dee:	464c      	mov	r4, r9
10001df0:	46b1      	mov	r9, r6
10001df2:	9e0c      	ldr	r6, [sp, #48]	; 0x30
10001df4:	e008      	b.n	10001e08 <_vsnprintf+0x9b0>
10001df6:	3330      	adds	r3, #48	; 0x30
10001df8:	b2db      	uxtb	r3, r3
10001dfa:	3501      	adds	r5, #1
10001dfc:	557b      	strb	r3, [r7, r5]
10001dfe:	42b4      	cmp	r4, r6
10001e00:	d30e      	bcc.n	10001e20 <_vsnprintf+0x9c8>
10001e02:	2d20      	cmp	r5, #32
10001e04:	d00c      	beq.n	10001e20 <_vsnprintf+0x9c8>
10001e06:	0004      	movs	r4, r0
10001e08:	0031      	movs	r1, r6
10001e0a:	0020      	movs	r0, r4
10001e0c:	f003 fe44 	bl	10005a98 <__wrap___aeabi_uidiv>
10001e10:	b2cb      	uxtb	r3, r1
10001e12:	2909      	cmp	r1, #9
10001e14:	d9ef      	bls.n	10001df6 <_vsnprintf+0x99e>
10001e16:	9a09      	ldr	r2, [sp, #36]	; 0x24
10001e18:	4694      	mov	ip, r2
10001e1a:	4463      	add	r3, ip
10001e1c:	b2db      	uxtb	r3, r3
10001e1e:	e7ec      	b.n	10001dfa <_vsnprintf+0x9a2>
10001e20:	464e      	mov	r6, r9
10001e22:	4654      	mov	r4, sl
10001e24:	46aa      	mov	sl, r5
10001e26:	9d0d      	ldr	r5, [sp, #52]	; 0x34
10001e28:	9b0b      	ldr	r3, [sp, #44]	; 0x2c
10001e2a:	002a      	movs	r2, r5
10001e2c:	9306      	str	r3, [sp, #24]
10001e2e:	9b0a      	ldr	r3, [sp, #40]	; 0x28
10001e30:	0021      	movs	r1, r4
10001e32:	9305      	str	r3, [sp, #20]
10001e34:	4643      	mov	r3, r8
10001e36:	9304      	str	r3, [sp, #16]
10001e38:	9b0c      	ldr	r3, [sp, #48]	; 0x30
10001e3a:	9808      	ldr	r0, [sp, #32]
10001e3c:	9303      	str	r3, [sp, #12]
10001e3e:	9b12      	ldr	r3, [sp, #72]	; 0x48
10001e40:	3601      	adds	r6, #1
10001e42:	9302      	str	r3, [sp, #8]
10001e44:	4653      	mov	r3, sl
10001e46:	9301      	str	r3, [sp, #4]
10001e48:	ab16      	add	r3, sp, #88	; 0x58
10001e4a:	9300      	str	r3, [sp, #0]
10001e4c:	465b      	mov	r3, fp
10001e4e:	f7fe fdf5 	bl	10000a3c <_ntoa_format>
10001e52:	9b13      	ldr	r3, [sp, #76]	; 0x4c
10001e54:	0005      	movs	r5, r0
10001e56:	9309      	str	r3, [sp, #36]	; 0x24
10001e58:	f7ff fb23 	bl	100014a2 <_vsnprintf+0x4a>
10001e5c:	9b09      	ldr	r3, [sp, #36]	; 0x24
10001e5e:	cb04      	ldmia	r3!, {r2}
10001e60:	4691      	mov	r9, r2
10001e62:	9312      	str	r3, [sp, #72]	; 0x48
10001e64:	2a00      	cmp	r2, #0
10001e66:	d108      	bne.n	10001e7a <_vsnprintf+0xa22>
10001e68:	2380      	movs	r3, #128	; 0x80
10001e6a:	2210      	movs	r2, #16
10001e6c:	990b      	ldr	r1, [sp, #44]	; 0x2c
10001e6e:	00db      	lsls	r3, r3, #3
10001e70:	400b      	ands	r3, r1
10001e72:	4391      	bics	r1, r2
10001e74:	910b      	str	r1, [sp, #44]	; 0x2c
10001e76:	2b00      	cmp	r3, #0
10001e78:	d12b      	bne.n	10001ed2 <_vsnprintf+0xa7a>
10001e7a:	9a0b      	ldr	r2, [sp, #44]	; 0x2c
10001e7c:	2361      	movs	r3, #97	; 0x61
10001e7e:	0692      	lsls	r2, r2, #26
10001e80:	d500      	bpl.n	10001e84 <_vsnprintf+0xa2c>
10001e82:	2341      	movs	r3, #65	; 0x41
10001e84:	aa0e      	add	r2, sp, #56	; 0x38
10001e86:	271f      	movs	r7, #31
10001e88:	4694      	mov	ip, r2
10001e8a:	b2db      	uxtb	r3, r3
10001e8c:	3b0a      	subs	r3, #10
10001e8e:	950d      	str	r5, [sp, #52]	; 0x34
10001e90:	4467      	add	r7, ip
10001e92:	4655      	mov	r5, sl
10001e94:	9309      	str	r3, [sp, #36]	; 0x24
10001e96:	46a2      	mov	sl, r4
10001e98:	464c      	mov	r4, r9
10001e9a:	46b1      	mov	r9, r6
10001e9c:	9e0c      	ldr	r6, [sp, #48]	; 0x30
10001e9e:	e008      	b.n	10001eb2 <_vsnprintf+0xa5a>
10001ea0:	3330      	adds	r3, #48	; 0x30
10001ea2:	b2db      	uxtb	r3, r3
10001ea4:	3501      	adds	r5, #1
10001ea6:	557b      	strb	r3, [r7, r5]
10001ea8:	42b4      	cmp	r4, r6
10001eaa:	d30e      	bcc.n	10001eca <_vsnprintf+0xa72>
10001eac:	2d20      	cmp	r5, #32
10001eae:	d00c      	beq.n	10001eca <_vsnprintf+0xa72>
10001eb0:	0004      	movs	r4, r0
10001eb2:	0031      	movs	r1, r6
10001eb4:	0020      	movs	r0, r4
10001eb6:	f003 fdef 	bl	10005a98 <__wrap___aeabi_uidiv>
10001eba:	b2cb      	uxtb	r3, r1
10001ebc:	2909      	cmp	r1, #9
10001ebe:	d9ef      	bls.n	10001ea0 <_vsnprintf+0xa48>
10001ec0:	9a09      	ldr	r2, [sp, #36]	; 0x24
10001ec2:	4694      	mov	ip, r2
10001ec4:	4463      	add	r3, ip
10001ec6:	b2db      	uxtb	r3, r3
10001ec8:	e7ec      	b.n	10001ea4 <_vsnprintf+0xa4c>
10001eca:	464e      	mov	r6, r9
10001ecc:	4654      	mov	r4, sl
10001ece:	46aa      	mov	sl, r5
10001ed0:	9d0d      	ldr	r5, [sp, #52]	; 0x34
10001ed2:	9b0b      	ldr	r3, [sp, #44]	; 0x2c
10001ed4:	002a      	movs	r2, r5
10001ed6:	9306      	str	r3, [sp, #24]
10001ed8:	9b0a      	ldr	r3, [sp, #40]	; 0x28
10001eda:	0021      	movs	r1, r4
10001edc:	9305      	str	r3, [sp, #20]
10001ede:	4643      	mov	r3, r8
10001ee0:	9304      	str	r3, [sp, #16]
10001ee2:	9b0c      	ldr	r3, [sp, #48]	; 0x30
10001ee4:	9808      	ldr	r0, [sp, #32]
10001ee6:	9303      	str	r3, [sp, #12]
10001ee8:	2300      	movs	r3, #0
10001eea:	9302      	str	r3, [sp, #8]
10001eec:	4653      	mov	r3, sl
10001eee:	9301      	str	r3, [sp, #4]
10001ef0:	ab16      	add	r3, sp, #88	; 0x58
10001ef2:	9300      	str	r3, [sp, #0]
10001ef4:	465b      	mov	r3, fp
10001ef6:	f7fe fda1 	bl	10000a3c <_ntoa_format>
10001efa:	9b12      	ldr	r3, [sp, #72]	; 0x48
10001efc:	0005      	movs	r5, r0
10001efe:	9309      	str	r3, [sp, #36]	; 0x24
10001f00:	3601      	adds	r6, #1
10001f02:	f7ff face 	bl	100014a2 <_vsnprintf+0x4a>
10001f06:	42b4      	cmp	r4, r6
10001f08:	d800      	bhi.n	10001f0c <_vsnprintf+0xab4>
10001f0a:	e67f      	b.n	10001c0c <_vsnprintf+0x7b4>
10001f0c:	9b14      	ldr	r3, [sp, #80]	; 0x50
10001f0e:	464c      	mov	r4, r9
10001f10:	960e      	str	r6, [sp, #56]	; 0x38
10001f12:	970f      	str	r7, [sp, #60]	; 0x3c
10001f14:	46a9      	mov	r9, r5
10001f16:	4698      	mov	r8, r3
10001f18:	9e15      	ldr	r6, [sp, #84]	; 0x54
10001f1a:	9d13      	ldr	r5, [sp, #76]	; 0x4c
10001f1c:	e699      	b.n	10001c52 <_vsnprintf+0x7fa>
10001f1e:	42a6      	cmp	r6, r4
10001f20:	d800      	bhi.n	10001f24 <_vsnprintf+0xacc>
10001f22:	e6fe      	b.n	10001d22 <_vsnprintf+0x8ca>
10001f24:	9b13      	ldr	r3, [sp, #76]	; 0x4c
10001f26:	464e      	mov	r6, r9
10001f28:	4698      	mov	r8, r3
10001f2a:	46a9      	mov	r9, r5
10001f2c:	4654      	mov	r4, sl
10001f2e:	9d12      	ldr	r5, [sp, #72]	; 0x48
10001f30:	f7ff fbaf 	bl	10001692 <_vsnprintf+0x23a>
10001f34:	c908      	ldmia	r1!, {r3}
10001f36:	17d8      	asrs	r0, r3, #31
10001f38:	181a      	adds	r2, r3, r0
10001f3a:	4042      	eors	r2, r0
10001f3c:	9109      	str	r1, [sp, #36]	; 0x24
10001f3e:	e566      	b.n	10001a0e <_vsnprintf+0x5b6>
10001f40:	2300      	movs	r3, #0
10001f42:	930b      	str	r3, [sp, #44]	; 0x2c
10001f44:	e45e      	b.n	10001804 <_vsnprintf+0x3ac>
10001f46:	9b09      	ldr	r3, [sp, #36]	; 0x24
10001f48:	cb04      	ldmia	r3!, {r2}
10001f4a:	4692      	mov	sl, r2
10001f4c:	9309      	str	r3, [sp, #36]	; 0x24
10001f4e:	f7ff fb92 	bl	10001676 <_vsnprintf+0x21e>
10001f52:	002f      	movs	r7, r5
10001f54:	e5e0      	b.n	10001b18 <_vsnprintf+0x6c0>
10001f56:	930b      	str	r3, [sp, #44]	; 0x2c
10001f58:	e60b      	b.n	10001b72 <_vsnprintf+0x71a>
10001f5a:	3b06      	subs	r3, #6
10001f5c:	930c      	str	r3, [sp, #48]	; 0x30
10001f5e:	e52e      	b.n	100019be <_vsnprintf+0x566>

10001f60 <vfctprintf>:
10001f60:	b500      	push	{lr}
10001f62:	b085      	sub	sp, #20
10001f64:	9103      	str	r1, [sp, #12]
10001f66:	2101      	movs	r1, #1
10001f68:	9002      	str	r0, [sp, #8]
10001f6a:	9300      	str	r3, [sp, #0]
10001f6c:	4803      	ldr	r0, [pc, #12]	; (10001f7c <vfctprintf+0x1c>)
10001f6e:	0013      	movs	r3, r2
10001f70:	424a      	negs	r2, r1
10001f72:	a902      	add	r1, sp, #8
10001f74:	f7ff fa70 	bl	10001458 <_vsnprintf>
10001f78:	b005      	add	sp, #20
10001f7a:	bd00      	pop	{pc}
10001f7c:	10000c1d 	.word	0x10000c1d

10001f80 <weak_raw_vprintf>:
10001f80:	b510      	push	{r4, lr}
10001f82:	4a09      	ldr	r2, [pc, #36]	; (10001fa8 <weak_raw_vprintf+0x28>)
10001f84:	0003      	movs	r3, r0
10001f86:	6814      	ldr	r4, [r2, #0]
10001f88:	b084      	sub	sp, #16
10001f8a:	2c00      	cmp	r4, #0
10001f8c:	d008      	beq.n	10001fa0 <weak_raw_vprintf+0x20>
10001f8e:	2201      	movs	r2, #1
10001f90:	9100      	str	r1, [sp, #0]
10001f92:	4806      	ldr	r0, [pc, #24]	; (10001fac <weak_raw_vprintf+0x2c>)
10001f94:	4252      	negs	r2, r2
10001f96:	a903      	add	r1, sp, #12
10001f98:	47a0      	blx	r4
10001f9a:	2001      	movs	r0, #1
10001f9c:	b004      	add	sp, #16
10001f9e:	bd10      	pop	{r4, pc}
10001fa0:	f7fe fbb4 	bl	1000070c <__wrap_puts>
10001fa4:	2000      	movs	r0, #0
10001fa6:	e7f9      	b.n	10001f9c <weak_raw_vprintf+0x1c>
10001fa8:	20001d54 	.word	0x20001d54
10001fac:	10000c0d 	.word	0x10000c0d

10001fb0 <stdio_usb_in_chars>:
10001fb0:	b570      	push	{r4, r5, r6, lr}
10001fb2:	4c18      	ldr	r4, [pc, #96]	; (10002014 <stdio_usb_in_chars+0x64>)
10001fb4:	b082      	sub	sp, #8
10001fb6:	0006      	movs	r6, r0
10001fb8:	000d      	movs	r5, r1
10001fba:	0020      	movs	r0, r4
10001fbc:	a901      	add	r1, sp, #4
10001fbe:	f006 fabf 	bl	10008540 <__mutex_try_enter_veneer>
10001fc2:	2800      	cmp	r0, #0
10001fc4:	d108      	bne.n	10001fd8 <stdio_usb_in_chars+0x28>
10001fc6:	23d0      	movs	r3, #208	; 0xd0
10001fc8:	061b      	lsls	r3, r3, #24
10001fca:	681b      	ldr	r3, [r3, #0]
10001fcc:	9a01      	ldr	r2, [sp, #4]
10001fce:	429a      	cmp	r2, r3
10001fd0:	d01c      	beq.n	1000200c <stdio_usb_in_chars+0x5c>
10001fd2:	0020      	movs	r0, r4
10001fd4:	f006 fac4 	bl	10008560 <__mutex_enter_blocking_veneer>
10001fd8:	2000      	movs	r0, #0
10001fda:	f001 fb9d 	bl	10003718 <tud_cdc_n_connected>
10001fde:	2800      	cmp	r0, #0
10001fe0:	d107      	bne.n	10001ff2 <stdio_usb_in_chars+0x42>
10001fe2:	2503      	movs	r5, #3
10001fe4:	426d      	negs	r5, r5
10001fe6:	0020      	movs	r0, r4
10001fe8:	f006 fa8a 	bl	10008500 <__mutex_exit_veneer>
10001fec:	0028      	movs	r0, r5
10001fee:	b002      	add	sp, #8
10001ff0:	bd70      	pop	{r4, r5, r6, pc}
10001ff2:	2000      	movs	r0, #0
10001ff4:	f001 fbaa 	bl	1000374c <tud_cdc_n_available>
10001ff8:	2800      	cmp	r0, #0
10001ffa:	d0f2      	beq.n	10001fe2 <stdio_usb_in_chars+0x32>
10001ffc:	002a      	movs	r2, r5
10001ffe:	0031      	movs	r1, r6
10002000:	2000      	movs	r0, #0
10002002:	f001 fbb3 	bl	1000376c <tud_cdc_n_read>
10002006:	1e05      	subs	r5, r0, #0
10002008:	d0eb      	beq.n	10001fe2 <stdio_usb_in_chars+0x32>
1000200a:	e7ec      	b.n	10001fe6 <stdio_usb_in_chars+0x36>
1000200c:	2503      	movs	r5, #3
1000200e:	426d      	negs	r5, r5
10002010:	e7ec      	b.n	10001fec <stdio_usb_in_chars+0x3c>
10002012:	46c0      	nop			; (mov r8, r8)
10002014:	20001d74 	.word	0x20001d74

10002018 <stdio_usb_out_chars>:
10002018:	b5f0      	push	{r4, r5, r6, r7, lr}
1000201a:	464f      	mov	r7, r9
1000201c:	46d6      	mov	lr, sl
1000201e:	4646      	mov	r6, r8
10002020:	b5c0      	push	{r6, r7, lr}
10002022:	4b35      	ldr	r3, [pc, #212]	; (100020f8 <stdio_usb_out_chars+0xe0>)
10002024:	b082      	sub	sp, #8
10002026:	0007      	movs	r7, r0
10002028:	000d      	movs	r5, r1
1000202a:	0018      	movs	r0, r3
1000202c:	a901      	add	r1, sp, #4
1000202e:	4699      	mov	r9, r3
10002030:	f006 fa86 	bl	10008540 <__mutex_try_enter_veneer>
10002034:	2800      	cmp	r0, #0
10002036:	d108      	bne.n	1000204a <stdio_usb_out_chars+0x32>
10002038:	23d0      	movs	r3, #208	; 0xd0
1000203a:	061b      	lsls	r3, r3, #24
1000203c:	681b      	ldr	r3, [r3, #0]
1000203e:	9a01      	ldr	r2, [sp, #4]
10002040:	429a      	cmp	r2, r3
10002042:	d052      	beq.n	100020ea <stdio_usb_out_chars+0xd2>
10002044:	4648      	mov	r0, r9
10002046:	f006 fa8b 	bl	10008560 <__mutex_enter_blocking_veneer>
1000204a:	2000      	movs	r0, #0
1000204c:	f001 fb64 	bl	10003718 <tud_cdc_n_connected>
10002050:	2800      	cmp	r0, #0
10002052:	d042      	beq.n	100020da <stdio_usb_out_chars+0xc2>
10002054:	2400      	movs	r4, #0
10002056:	2d00      	cmp	r5, #0
10002058:	dd44      	ble.n	100020e4 <stdio_usb_out_chars+0xcc>
1000205a:	4b28      	ldr	r3, [pc, #160]	; (100020fc <stdio_usb_out_chars+0xe4>)
1000205c:	469a      	mov	sl, r3
1000205e:	4698      	mov	r8, r3
10002060:	e011      	b.n	10002086 <stdio_usb_out_chars+0x6e>
10002062:	1939      	adds	r1, r7, r4
10002064:	2000      	movs	r0, #0
10002066:	f001 fc0d 	bl	10003884 <tud_cdc_n_write>
1000206a:	0006      	movs	r6, r0
1000206c:	f000 fcc8 	bl	10002a00 <tud_task>
10002070:	2000      	movs	r0, #0
10002072:	f001 fbb5 	bl	100037e0 <tud_cdc_n_write_flush>
10002076:	f002 febb 	bl	10004df0 <time_us_64>
1000207a:	4643      	mov	r3, r8
1000207c:	6018      	str	r0, [r3, #0]
1000207e:	6059      	str	r1, [r3, #4]
10002080:	19a4      	adds	r4, r4, r6
10002082:	42ac      	cmp	r4, r5
10002084:	da2e      	bge.n	100020e4 <stdio_usb_out_chars+0xcc>
10002086:	2000      	movs	r0, #0
10002088:	f001 fc18 	bl	100038bc <tud_cdc_n_write_available>
1000208c:	1b2e      	subs	r6, r5, r4
1000208e:	0002      	movs	r2, r0
10002090:	42b0      	cmp	r0, r6
10002092:	dd00      	ble.n	10002096 <stdio_usb_out_chars+0x7e>
10002094:	0032      	movs	r2, r6
10002096:	2a00      	cmp	r2, #0
10002098:	d1e3      	bne.n	10002062 <stdio_usb_out_chars+0x4a>
1000209a:	f000 fcb1 	bl	10002a00 <tud_task>
1000209e:	2000      	movs	r0, #0
100020a0:	f001 fb9e 	bl	100037e0 <tud_cdc_n_write_flush>
100020a4:	2000      	movs	r0, #0
100020a6:	f001 fb37 	bl	10003718 <tud_cdc_n_connected>
100020aa:	2800      	cmp	r0, #0
100020ac:	d01a      	beq.n	100020e4 <stdio_usb_out_chars+0xcc>
100020ae:	2000      	movs	r0, #0
100020b0:	f001 fc04 	bl	100038bc <tud_cdc_n_write_available>
100020b4:	2800      	cmp	r0, #0
100020b6:	d1e4      	bne.n	10002082 <stdio_usb_out_chars+0x6a>
100020b8:	f002 fe9a 	bl	10004df0 <time_us_64>
100020bc:	4653      	mov	r3, sl
100020be:	000e      	movs	r6, r1
100020c0:	681a      	ldr	r2, [r3, #0]
100020c2:	685b      	ldr	r3, [r3, #4]
100020c4:	2100      	movs	r1, #0
100020c6:	4684      	mov	ip, r0
100020c8:	480d      	ldr	r0, [pc, #52]	; (10002100 <stdio_usb_out_chars+0xe8>)
100020ca:	1812      	adds	r2, r2, r0
100020cc:	414b      	adcs	r3, r1
100020ce:	429e      	cmp	r6, r3
100020d0:	d808      	bhi.n	100020e4 <stdio_usb_out_chars+0xcc>
100020d2:	d1d6      	bne.n	10002082 <stdio_usb_out_chars+0x6a>
100020d4:	4594      	cmp	ip, r2
100020d6:	d9d4      	bls.n	10002082 <stdio_usb_out_chars+0x6a>
100020d8:	e004      	b.n	100020e4 <stdio_usb_out_chars+0xcc>
100020da:	2000      	movs	r0, #0
100020dc:	2100      	movs	r1, #0
100020de:	4b07      	ldr	r3, [pc, #28]	; (100020fc <stdio_usb_out_chars+0xe4>)
100020e0:	6018      	str	r0, [r3, #0]
100020e2:	6059      	str	r1, [r3, #4]
100020e4:	4648      	mov	r0, r9
100020e6:	f006 fa0b 	bl	10008500 <__mutex_exit_veneer>
100020ea:	b002      	add	sp, #8
100020ec:	bc1c      	pop	{r2, r3, r4}
100020ee:	4690      	mov	r8, r2
100020f0:	4699      	mov	r9, r3
100020f2:	46a2      	mov	sl, r4
100020f4:	bdf0      	pop	{r4, r5, r6, r7, pc}
100020f6:	46c0      	nop			; (mov r8, r8)
100020f8:	20001d74 	.word	0x20001d74
100020fc:	20000bf8 	.word	0x20000bf8
10002100:	0007a120 	.word	0x0007a120

10002104 <timer_task>:
10002104:	201f      	movs	r0, #31
10002106:	b510      	push	{r4, lr}
10002108:	f001 fffc 	bl	10004104 <irq_set_pending>
1000210c:	20fa      	movs	r0, #250	; 0xfa
1000210e:	2100      	movs	r1, #0
10002110:	0080      	lsls	r0, r0, #2
10002112:	bd10      	pop	{r4, pc}

10002114 <low_priority_worker_irq>:
10002114:	b510      	push	{r4, lr}
10002116:	4c07      	ldr	r4, [pc, #28]	; (10002134 <low_priority_worker_irq+0x20>)
10002118:	2100      	movs	r1, #0
1000211a:	0020      	movs	r0, r4
1000211c:	f006 fa10 	bl	10008540 <__mutex_try_enter_veneer>
10002120:	2800      	cmp	r0, #0
10002122:	d100      	bne.n	10002126 <low_priority_worker_irq+0x12>
10002124:	bd10      	pop	{r4, pc}
10002126:	f000 fc6b 	bl	10002a00 <tud_task>
1000212a:	0020      	movs	r0, r4
1000212c:	f006 f9e8 	bl	10008500 <__mutex_exit_veneer>
10002130:	e7f8      	b.n	10002124 <low_priority_worker_irq+0x10>
10002132:	46c0      	nop			; (mov r8, r8)
10002134:	20001d74 	.word	0x20001d74

10002138 <stdio_usb_init>:
10002138:	b570      	push	{r4, r5, r6, lr}
1000213a:	4b1e      	ldr	r3, [pc, #120]	; (100021b4 <stdio_usb_init+0x7c>)
1000213c:	b084      	sub	sp, #16
1000213e:	781b      	ldrb	r3, [r3, #0]
10002140:	f001 fdc0 	bl	10003cc4 <tusb_init>
10002144:	201f      	movs	r0, #31
10002146:	491c      	ldr	r1, [pc, #112]	; (100021b8 <stdio_usb_init+0x80>)
10002148:	f001 ffec 	bl	10004124 <irq_set_exclusive_handler>
1000214c:	2101      	movs	r1, #1
1000214e:	201f      	movs	r0, #31
10002150:	f001 ffc6 	bl	100040e0 <irq_set_enabled>
10002154:	4819      	ldr	r0, [pc, #100]	; (100021bc <stdio_usb_init+0x84>)
10002156:	f003 f923 	bl	100053a0 <mutex_init>
1000215a:	f002 fca5 	bl	10004aa8 <alarm_pool_get_default>
1000215e:	0006      	movs	r6, r0
10002160:	f002 fe46 	bl	10004df0 <time_us_64>
10002164:	22fa      	movs	r2, #250	; 0xfa
10002166:	0004      	movs	r4, r0
10002168:	000d      	movs	r5, r1
1000216a:	2300      	movs	r3, #0
1000216c:	0092      	lsls	r2, r2, #2
1000216e:	1912      	adds	r2, r2, r4
10002170:	416b      	adcs	r3, r5
10002172:	4299      	cmp	r1, r3
10002174:	d814      	bhi.n	100021a0 <stdio_usb_init+0x68>
10002176:	d011      	beq.n	1000219c <stdio_usb_init+0x64>
10002178:	2101      	movs	r1, #1
1000217a:	9102      	str	r1, [sp, #8]
1000217c:	2100      	movs	r1, #0
1000217e:	9101      	str	r1, [sp, #4]
10002180:	490f      	ldr	r1, [pc, #60]	; (100021c0 <stdio_usb_init+0x88>)
10002182:	0030      	movs	r0, r6
10002184:	9100      	str	r1, [sp, #0]
10002186:	f002 fc95 	bl	10004ab4 <alarm_pool_add_alarm_at>
1000218a:	0004      	movs	r4, r0
1000218c:	1e63      	subs	r3, r4, #1
1000218e:	419c      	sbcs	r4, r3
10002190:	b2e4      	uxtb	r4, r4
10002192:	2800      	cmp	r0, #0
10002194:	d108      	bne.n	100021a8 <stdio_usb_init+0x70>
10002196:	0020      	movs	r0, r4
10002198:	b004      	add	sp, #16
1000219a:	bd70      	pop	{r4, r5, r6, pc}
1000219c:	4290      	cmp	r0, r2
1000219e:	d9eb      	bls.n	10002178 <stdio_usb_init+0x40>
100021a0:	2201      	movs	r2, #1
100021a2:	4252      	negs	r2, r2
100021a4:	17d3      	asrs	r3, r2, #31
100021a6:	e7e7      	b.n	10002178 <stdio_usb_init+0x40>
100021a8:	2101      	movs	r1, #1
100021aa:	4806      	ldr	r0, [pc, #24]	; (100021c4 <stdio_usb_init+0x8c>)
100021ac:	f7fe fb24 	bl	100007f8 <stdio_set_driver_enabled>
100021b0:	e7f1      	b.n	10002196 <stdio_usb_init+0x5e>
100021b2:	46c0      	nop			; (mov r8, r8)
100021b4:	10008e1c 	.word	0x10008e1c
100021b8:	10002115 	.word	0x10002115
100021bc:	20001d74 	.word	0x20001d74
100021c0:	10002105 	.word	0x10002105
100021c4:	200002e4 	.word	0x200002e4

100021c8 <tud_descriptor_device_cb>:
100021c8:	4800      	ldr	r0, [pc, #0]	; (100021cc <tud_descriptor_device_cb+0x4>)
100021ca:	4770      	bx	lr
100021cc:	100088f8 	.word	0x100088f8

100021d0 <tud_descriptor_configuration_cb>:
100021d0:	4800      	ldr	r0, [pc, #0]	; (100021d4 <tud_descriptor_configuration_cb+0x4>)
100021d2:	4770      	bx	lr
100021d4:	100088ac 	.word	0x100088ac

100021d8 <tud_descriptor_string_cb>:
100021d8:	b510      	push	{r4, lr}
100021da:	2800      	cmp	r0, #0
100021dc:	d106      	bne.n	100021ec <tud_descriptor_string_cb+0x14>
100021de:	4b12      	ldr	r3, [pc, #72]	; (10002228 <tud_descriptor_string_cb+0x50>)
100021e0:	4812      	ldr	r0, [pc, #72]	; (1000222c <tud_descriptor_string_cb+0x54>)
100021e2:	8043      	strh	r3, [r0, #2]
100021e4:	3b06      	subs	r3, #6
100021e6:	3bff      	subs	r3, #255	; 0xff
100021e8:	8003      	strh	r3, [r0, #0]
100021ea:	bd10      	pop	{r4, pc}
100021ec:	2804      	cmp	r0, #4
100021ee:	d818      	bhi.n	10002222 <tud_descriptor_string_cb+0x4a>
100021f0:	4b0f      	ldr	r3, [pc, #60]	; (10002230 <tud_descriptor_string_cb+0x58>)
100021f2:	0080      	lsls	r0, r0, #2
100021f4:	58c4      	ldr	r4, [r0, r3]
100021f6:	480d      	ldr	r0, [pc, #52]	; (1000222c <tud_descriptor_string_cb+0x54>)
100021f8:	2300      	movs	r3, #0
100021fa:	1c81      	adds	r1, r0, #2
100021fc:	e004      	b.n	10002208 <tud_descriptor_string_cb+0x30>
100021fe:	3301      	adds	r3, #1
10002200:	800a      	strh	r2, [r1, #0]
10002202:	3102      	adds	r1, #2
10002204:	2b13      	cmp	r3, #19
10002206:	d009      	beq.n	1000221c <tud_descriptor_string_cb+0x44>
10002208:	5ce2      	ldrb	r2, [r4, r3]
1000220a:	2a00      	cmp	r2, #0
1000220c:	d1f7      	bne.n	100021fe <tud_descriptor_string_cb+0x26>
1000220e:	22c0      	movs	r2, #192	; 0xc0
10002210:	3301      	adds	r3, #1
10002212:	005b      	lsls	r3, r3, #1
10002214:	0092      	lsls	r2, r2, #2
10002216:	4313      	orrs	r3, r2
10002218:	b29b      	uxth	r3, r3
1000221a:	e7e5      	b.n	100021e8 <tud_descriptor_string_cb+0x10>
1000221c:	23ca      	movs	r3, #202	; 0xca
1000221e:	009b      	lsls	r3, r3, #2
10002220:	e7e2      	b.n	100021e8 <tud_descriptor_string_cb+0x10>
10002222:	2000      	movs	r0, #0
10002224:	e7e1      	b.n	100021ea <tud_descriptor_string_cb+0x12>
10002226:	46c0      	nop			; (mov r8, r8)
10002228:	00000409 	.word	0x00000409
1000222c:	200016a0 	.word	0x200016a0
10002230:	1000890c 	.word	0x1000890c

10002234 <dcd_rp2040_irq>:
10002234:	b5f0      	push	{r4, r5, r6, r7, lr}
10002236:	2398      	movs	r3, #152	; 0x98
10002238:	4657      	mov	r7, sl
1000223a:	4645      	mov	r5, r8
1000223c:	46de      	mov	lr, fp
1000223e:	464e      	mov	r6, r9
10002240:	4a41      	ldr	r2, [pc, #260]	; (10002348 <dcd_rp2040_irq+0x114>)
10002242:	b5e0      	push	{r5, r6, r7, lr}
10002244:	58d7      	ldr	r7, [r2, r3]
10002246:	2480      	movs	r4, #128	; 0x80
10002248:	003d      	movs	r5, r7
1000224a:	b085      	sub	sp, #20
1000224c:	0264      	lsls	r4, r4, #9
1000224e:	3b88      	subs	r3, #136	; 0x88
10002250:	4025      	ands	r5, r4
10002252:	9303      	str	r3, [sp, #12]
10002254:	4227      	tst	r7, r4
10002256:	d014      	beq.n	10002282 <dcd_rp2040_irq+0x4e>
10002258:	2101      	movs	r1, #1
1000225a:	2039      	movs	r0, #57	; 0x39
1000225c:	2200      	movs	r2, #0
1000225e:	4b3b      	ldr	r3, [pc, #236]	; (1000234c <dcd_rp2040_irq+0x118>)
10002260:	0025      	movs	r5, r4
10002262:	5419      	strb	r1, [r3, r0]
10002264:	7159      	strb	r1, [r3, #5]
10002266:	3147      	adds	r1, #71	; 0x47
10002268:	545a      	strb	r2, [r3, r1]
1000226a:	751a      	strb	r2, [r3, #20]
1000226c:	2000      	movs	r0, #0
1000226e:	3201      	adds	r2, #1
10002270:	4937      	ldr	r1, [pc, #220]	; (10002350 <dcd_rp2040_irq+0x11c>)
10002272:	f001 f83b 	bl	100032ec <dcd_event_setup_received>
10002276:	2280      	movs	r2, #128	; 0x80
10002278:	4b36      	ldr	r3, [pc, #216]	; (10002354 <dcd_rp2040_irq+0x120>)
1000227a:	0292      	lsls	r2, r2, #10
1000227c:	651a      	str	r2, [r3, #80]	; 0x50
1000227e:	4b36      	ldr	r3, [pc, #216]	; (10002358 <dcd_rp2040_irq+0x124>)
10002280:	9303      	str	r3, [sp, #12]
10002282:	06fb      	lsls	r3, r7, #27
10002284:	d40c      	bmi.n	100022a0 <dcd_rp2040_irq+0x6c>
10002286:	2380      	movs	r3, #128	; 0x80
10002288:	015b      	lsls	r3, r3, #5
1000228a:	421f      	tst	r7, r3
1000228c:	d13a      	bne.n	10002304 <dcd_rp2040_irq+0xd0>
1000228e:	42bd      	cmp	r5, r7
10002290:	d154      	bne.n	1000233c <dcd_rp2040_irq+0x108>
10002292:	b005      	add	sp, #20
10002294:	bc3c      	pop	{r2, r3, r4, r5}
10002296:	4690      	mov	r8, r2
10002298:	4699      	mov	r9, r3
1000229a:	46a2      	mov	sl, r4
1000229c:	46ab      	mov	fp, r5
1000229e:	bdf0      	pop	{r4, r5, r6, r7, pc}
100022a0:	4b29      	ldr	r3, [pc, #164]	; (10002348 <dcd_rp2040_irq+0x114>)
100022a2:	6d9a      	ldr	r2, [r3, #88]	; 0x58
100022a4:	2a00      	cmp	r2, #0
100022a6:	d028      	beq.n	100022fa <dcd_rp2040_irq+0xc6>
100022a8:	469a      	mov	sl, r3
100022aa:	4b2a      	ldr	r3, [pc, #168]	; (10002354 <dcd_rp2040_irq+0x120>)
100022ac:	46b9      	mov	r9, r7
100022ae:	2600      	movs	r6, #0
100022b0:	2501      	movs	r5, #1
100022b2:	469b      	mov	fp, r3
100022b4:	0017      	movs	r7, r2
100022b6:	e003      	b.n	100022c0 <dcd_rp2040_irq+0x8c>
100022b8:	006d      	lsls	r5, r5, #1
100022ba:	3601      	adds	r6, #1
100022bc:	2e20      	cmp	r6, #32
100022be:	d01b      	beq.n	100022f8 <dcd_rp2040_irq+0xc4>
100022c0:	422f      	tst	r7, r5
100022c2:	d0f9      	beq.n	100022b8 <dcd_rp2040_irq+0x84>
100022c4:	4653      	mov	r3, sl
100022c6:	6ddb      	ldr	r3, [r3, #92]	; 0x5c
100022c8:	465b      	mov	r3, fp
100022ca:	2468      	movs	r4, #104	; 0x68
100022cc:	2201      	movs	r2, #1
100022ce:	659d      	str	r5, [r3, #88]	; 0x58
100022d0:	0873      	lsrs	r3, r6, #1
100022d2:	435c      	muls	r4, r3
100022d4:	2334      	movs	r3, #52	; 0x34
100022d6:	4690      	mov	r8, r2
100022d8:	43b2      	bics	r2, r6
100022da:	4353      	muls	r3, r2
100022dc:	18e4      	adds	r4, r4, r3
100022de:	4b1b      	ldr	r3, [pc, #108]	; (1000234c <dcd_rp2040_irq+0x118>)
100022e0:	469c      	mov	ip, r3
100022e2:	4464      	add	r4, ip
100022e4:	0020      	movs	r0, r4
100022e6:	f000 fa3d 	bl	10002764 <_hw_endpoint_xfer_continue>
100022ea:	2800      	cmp	r0, #0
100022ec:	d11a      	bne.n	10002324 <dcd_rp2040_irq+0xf0>
100022ee:	43af      	bics	r7, r5
100022f0:	3601      	adds	r6, #1
100022f2:	006d      	lsls	r5, r5, #1
100022f4:	2f00      	cmp	r7, #0
100022f6:	d1e1      	bne.n	100022bc <dcd_rp2040_irq+0x88>
100022f8:	464f      	mov	r7, r9
100022fa:	2380      	movs	r3, #128	; 0x80
100022fc:	015b      	lsls	r3, r3, #5
100022fe:	9d03      	ldr	r5, [sp, #12]
10002300:	421f      	tst	r7, r3
10002302:	d0c4      	beq.n	1000228e <dcd_rp2040_irq+0x5a>
10002304:	2200      	movs	r2, #0
10002306:	4915      	ldr	r1, [pc, #84]	; (1000235c <dcd_rp2040_irq+0x128>)
10002308:	2000      	movs	r0, #0
1000230a:	700a      	strb	r2, [r1, #0]
1000230c:	490e      	ldr	r1, [pc, #56]	; (10002348 <dcd_rp2040_irq+0x114>)
1000230e:	431d      	orrs	r5, r3
10002310:	600a      	str	r2, [r1, #0]
10002312:	3201      	adds	r2, #1
10002314:	2101      	movs	r1, #1
10002316:	f000 ff79 	bl	1000320c <dcd_event_bus_signal>
1000231a:	2280      	movs	r2, #128	; 0x80
1000231c:	4b0d      	ldr	r3, [pc, #52]	; (10002354 <dcd_rp2040_irq+0x120>)
1000231e:	0312      	lsls	r2, r2, #12
10002320:	651a      	str	r2, [r3, #80]	; 0x50
10002322:	e7b4      	b.n	1000228e <dcd_rp2040_irq+0x5a>
10002324:	4643      	mov	r3, r8
10002326:	69e2      	ldr	r2, [r4, #28]
10002328:	7921      	ldrb	r1, [r4, #4]
1000232a:	2000      	movs	r0, #0
1000232c:	9300      	str	r3, [sp, #0]
1000232e:	2300      	movs	r3, #0
10002330:	f001 f804 	bl	1000333c <dcd_event_xfer_complete>
10002334:	0020      	movs	r0, r4
10002336:	f000 f9e1 	bl	100026fc <hw_endpoint_reset_transfer>
1000233a:	e7d8      	b.n	100022ee <dcd_rp2040_irq+0xba>
1000233c:	0029      	movs	r1, r5
1000233e:	4808      	ldr	r0, [pc, #32]	; (10002360 <dcd_rp2040_irq+0x12c>)
10002340:	4079      	eors	r1, r7
10002342:	f003 f96d 	bl	10005620 <panic>
10002346:	46c0      	nop			; (mov r8, r8)
10002348:	50110000 	.word	0x50110000
1000234c:	200016d4 	.word	0x200016d4
10002350:	50100000 	.word	0x50100000
10002354:	50113000 	.word	0x50113000
10002358:	00010010 	.word	0x00010010
1000235c:	20001d8f 	.word	0x20001d8f
10002360:	10008920 	.word	0x10008920

10002364 <dcd_int_enable>:
10002364:	b510      	push	{r4, lr}
10002366:	2101      	movs	r1, #1
10002368:	2005      	movs	r0, #5
1000236a:	f001 feb9 	bl	100040e0 <irq_set_enabled>
1000236e:	bd10      	pop	{r4, pc}

10002370 <dcd_set_address>:
10002370:	4b09      	ldr	r3, [pc, #36]	; (10002398 <dcd_set_address+0x28>)
10002372:	b510      	push	{r4, lr}
10002374:	2201      	movs	r2, #1
10002376:	7019      	strb	r1, [r3, #0]
10002378:	2139      	movs	r1, #57	; 0x39
1000237a:	2300      	movs	r3, #0
1000237c:	4807      	ldr	r0, [pc, #28]	; (1000239c <dcd_set_address+0x2c>)
1000237e:	5442      	strb	r2, [r0, r1]
10002380:	7142      	strb	r2, [r0, #5]
10002382:	3247      	adds	r2, #71	; 0x47
10002384:	5483      	strb	r3, [r0, r2]
10002386:	7503      	strb	r3, [r0, #20]
10002388:	2200      	movs	r2, #0
1000238a:	2100      	movs	r1, #0
1000238c:	3034      	adds	r0, #52	; 0x34
1000238e:	3301      	adds	r3, #1
10002390:	f000 fa6e 	bl	10002870 <_hw_endpoint_xfer>
10002394:	bd10      	pop	{r4, pc}
10002396:	46c0      	nop			; (mov r8, r8)
10002398:	20001d8f 	.word	0x20001d8f
1000239c:	200016d4 	.word	0x200016d4

100023a0 <dcd_connect>:
100023a0:	2280      	movs	r2, #128	; 0x80
100023a2:	4b02      	ldr	r3, [pc, #8]	; (100023ac <dcd_connect+0xc>)
100023a4:	0252      	lsls	r2, r2, #9
100023a6:	64da      	str	r2, [r3, #76]	; 0x4c
100023a8:	4770      	bx	lr
100023aa:	46c0      	nop			; (mov r8, r8)
100023ac:	50112000 	.word	0x50112000

100023b0 <dcd_init>:
100023b0:	b570      	push	{r4, r5, r6, lr}
100023b2:	0005      	movs	r5, r0
100023b4:	f000 f97a 	bl	100026ac <rp2040_usb_init>
100023b8:	2005      	movs	r0, #5
100023ba:	491f      	ldr	r1, [pc, #124]	; (10002438 <dcd_init+0x88>)
100023bc:	f001 feb2 	bl	10004124 <irq_set_exclusive_handler>
100023c0:	22d0      	movs	r2, #208	; 0xd0
100023c2:	4c1e      	ldr	r4, [pc, #120]	; (1000243c <dcd_init+0x8c>)
100023c4:	2100      	movs	r1, #0
100023c6:	0020      	movs	r0, r4
100023c8:	00d2      	lsls	r2, r2, #3
100023ca:	f004 fa31 	bl	10006830 <__wrap_memset>
100023ce:	2300      	movs	r3, #0
100023d0:	4a1b      	ldr	r2, [pc, #108]	; (10002440 <dcd_init+0x90>)
100023d2:	491c      	ldr	r1, [pc, #112]	; (10002444 <dcd_init+0x94>)
100023d4:	7013      	strb	r3, [r2, #0]
100023d6:	4a1c      	ldr	r2, [pc, #112]	; (10002448 <dcd_init+0x98>)
100023d8:	2040      	movs	r0, #64	; 0x40
100023da:	6011      	str	r1, [r2, #0]
100023dc:	2280      	movs	r2, #128	; 0x80
100023de:	0052      	lsls	r2, r2, #1
100023e0:	8062      	strh	r2, [r4, #2]
100023e2:	80a2      	strh	r2, [r4, #4]
100023e4:	3ad0      	subs	r2, #208	; 0xd0
100023e6:	54a3      	strb	r3, [r4, r2]
100023e8:	4a18      	ldr	r2, [pc, #96]	; (1000244c <dcd_init+0x9c>)
100023ea:	7063      	strb	r3, [r4, #1]
100023ec:	62e0      	str	r0, [r4, #44]	; 0x2c
100023ee:	60e2      	str	r2, [r4, #12]
100023f0:	2635      	movs	r6, #53	; 0x35
100023f2:	6013      	str	r3, [r2, #0]
100023f4:	2201      	movs	r2, #1
100023f6:	55a2      	strb	r2, [r4, r6]
100023f8:	364c      	adds	r6, #76	; 0x4c
100023fa:	36ff      	adds	r6, #255	; 0xff
100023fc:	8726      	strh	r6, [r4, #56]	; 0x38
100023fe:	2600      	movs	r6, #0
10002400:	6620      	str	r0, [r4, #96]	; 0x60
10002402:	3024      	adds	r0, #36	; 0x24
10002404:	5426      	strb	r6, [r4, r0]
10002406:	4912      	ldr	r1, [pc, #72]	; (10002450 <dcd_init+0xa0>)
10002408:	4812      	ldr	r0, [pc, #72]	; (10002454 <dcd_init+0xa4>)
1000240a:	60a3      	str	r3, [r4, #8]
1000240c:	6121      	str	r1, [r4, #16]
1000240e:	7022      	strb	r2, [r4, #0]
10002410:	86e3      	strh	r3, [r4, #54]	; 0x36
10002412:	6420      	str	r0, [r4, #64]	; 0x40
10002414:	6003      	str	r3, [r0, #0]
10002416:	63e3      	str	r3, [r4, #60]	; 0x3c
10002418:	3334      	adds	r3, #52	; 0x34
1000241a:	54e2      	strb	r2, [r4, r3]
1000241c:	4b0e      	ldr	r3, [pc, #56]	; (10002458 <dcd_init+0xa8>)
1000241e:	6461      	str	r1, [r4, #68]	; 0x44
10002420:	641a      	str	r2, [r3, #64]	; 0x40
10002422:	2280      	movs	r2, #128	; 0x80
10002424:	0592      	lsls	r2, r2, #22
10002426:	64da      	str	r2, [r3, #76]	; 0x4c
10002428:	2290      	movs	r2, #144	; 0x90
1000242a:	490c      	ldr	r1, [pc, #48]	; (1000245c <dcd_init+0xac>)
1000242c:	0028      	movs	r0, r5
1000242e:	5099      	str	r1, [r3, r2]
10002430:	f7ff ffb6 	bl	100023a0 <dcd_connect>
10002434:	bd70      	pop	{r4, r5, r6, pc}
10002436:	46c0      	nop			; (mov r8, r8)
10002438:	10002235 	.word	0x10002235
1000243c:	200016d4 	.word	0x200016d4
10002440:	20001d8f 	.word	0x20001d8f
10002444:	50100180 	.word	0x50100180
10002448:	20001d58 	.word	0x20001d58
1000244c:	50100084 	.word	0x50100084
10002450:	50100100 	.word	0x50100100
10002454:	50100080 	.word	0x50100080
10002458:	50110000 	.word	0x50110000
1000245c:	00011010 	.word	0x00011010

10002460 <dcd_edpt0_status_complete>:
10002460:	780b      	ldrb	r3, [r1, #0]
10002462:	065b      	lsls	r3, r3, #25
10002464:	d102      	bne.n	1000246c <dcd_edpt0_status_complete+0xc>
10002466:	784b      	ldrb	r3, [r1, #1]
10002468:	2b05      	cmp	r3, #5
1000246a:	d009      	beq.n	10002480 <dcd_edpt0_status_complete+0x20>
1000246c:	2101      	movs	r1, #1
1000246e:	2039      	movs	r0, #57	; 0x39
10002470:	2200      	movs	r2, #0
10002472:	4b06      	ldr	r3, [pc, #24]	; (1000248c <dcd_edpt0_status_complete+0x2c>)
10002474:	7159      	strb	r1, [r3, #5]
10002476:	5419      	strb	r1, [r3, r0]
10002478:	3147      	adds	r1, #71	; 0x47
1000247a:	751a      	strb	r2, [r3, #20]
1000247c:	545a      	strb	r2, [r3, r1]
1000247e:	4770      	bx	lr
10002480:	4b03      	ldr	r3, [pc, #12]	; (10002490 <dcd_edpt0_status_complete+0x30>)
10002482:	781a      	ldrb	r2, [r3, #0]
10002484:	4b03      	ldr	r3, [pc, #12]	; (10002494 <dcd_edpt0_status_complete+0x34>)
10002486:	601a      	str	r2, [r3, #0]
10002488:	e7f0      	b.n	1000246c <dcd_edpt0_status_complete+0xc>
1000248a:	46c0      	nop			; (mov r8, r8)
1000248c:	200016d4 	.word	0x200016d4
10002490:	20001d8f 	.word	0x20001d8f
10002494:	50110000 	.word	0x50110000

10002498 <dcd_edpt_open>:
10002498:	000a      	movs	r2, r1
1000249a:	b5f8      	push	{r3, r4, r5, r6, r7, lr}
1000249c:	2307      	movs	r3, #7
1000249e:	4647      	mov	r7, r8
100024a0:	46ce      	mov	lr, r9
100024a2:	7954      	ldrb	r4, [r2, #5]
100024a4:	7910      	ldrb	r0, [r2, #4]
100024a6:	4023      	ands	r3, r4
100024a8:	78d4      	ldrb	r4, [r2, #3]
100024aa:	021b      	lsls	r3, r3, #8
100024ac:	07a4      	lsls	r4, r4, #30
100024ae:	4303      	orrs	r3, r0
100024b0:	207f      	movs	r0, #127	; 0x7f
100024b2:	0fa2      	lsrs	r2, r4, #30
100024b4:	2468      	movs	r4, #104	; 0x68
100024b6:	b580      	push	{r7, lr}
100024b8:	7889      	ldrb	r1, [r1, #2]
100024ba:	4694      	mov	ip, r2
100024bc:	4008      	ands	r0, r1
100024be:	4691      	mov	r9, r2
100024c0:	4344      	muls	r4, r0
100024c2:	2234      	movs	r2, #52	; 0x34
100024c4:	46a0      	mov	r8, r4
100024c6:	09ce      	lsrs	r6, r1, #7
100024c8:	4372      	muls	r2, r6
100024ca:	4d3d      	ldr	r5, [pc, #244]	; (100025c0 <dcd_edpt_open+0x128>)
100024cc:	4442      	add	r2, r8
100024ce:	18aa      	adds	r2, r5, r2
100024d0:	b24f      	sxtb	r7, r1
100024d2:	7111      	strb	r1, [r2, #4]
100024d4:	43f9      	mvns	r1, r7
100024d6:	0fc9      	lsrs	r1, r1, #31
100024d8:	70d1      	strb	r1, [r2, #3]
100024da:	4241      	negs	r1, r0
100024dc:	4141      	adcs	r1, r0
100024de:	7056      	strb	r6, [r2, #1]
100024e0:	7090      	strb	r0, [r2, #2]
100024e2:	7151      	strb	r1, [r2, #5]
100024e4:	4662      	mov	r2, ip
100024e6:	2a01      	cmp	r2, #1
100024e8:	d05c      	beq.n	100025a4 <dcd_edpt_open+0x10c>
100024ea:	2b40      	cmp	r3, #64	; 0x40
100024ec:	d85e      	bhi.n	100025ac <dcd_edpt_open+0x114>
100024ee:	2234      	movs	r2, #52	; 0x34
100024f0:	2168      	movs	r1, #104	; 0x68
100024f2:	4372      	muls	r2, r6
100024f4:	4341      	muls	r1, r0
100024f6:	1852      	adds	r2, r2, r1
100024f8:	18aa      	adds	r2, r5, r2
100024fa:	0011      	movs	r1, r2
100024fc:	4664      	mov	r4, ip
100024fe:	3130      	adds	r1, #48	; 0x30
10002500:	700c      	strb	r4, [r1, #0]
10002502:	62d3      	str	r3, [r2, #44]	; 0x2c
10002504:	00c1      	lsls	r1, r0, #3
10002506:	2f00      	cmp	r7, #0
10002508:	db3c      	blt.n	10002584 <dcd_edpt_open+0xec>
1000250a:	4c2e      	ldr	r4, [pc, #184]	; (100025c4 <dcd_edpt_open+0x12c>)
1000250c:	2700      	movs	r7, #0
1000250e:	46a4      	mov	ip, r4
10002510:	4461      	add	r1, ip
10002512:	60d1      	str	r1, [r2, #12]
10002514:	600f      	str	r7, [r1, #0]
10002516:	2800      	cmp	r0, #0
10002518:	d03c      	beq.n	10002594 <dcd_edpt_open+0xfc>
1000251a:	4c2b      	ldr	r4, [pc, #172]	; (100025c8 <dcd_edpt_open+0x130>)
1000251c:	00c1      	lsls	r1, r0, #3
1000251e:	46a4      	mov	ip, r4
10002520:	4461      	add	r1, ip
10002522:	6091      	str	r1, [r2, #8]
10002524:	2468      	movs	r4, #104	; 0x68
10002526:	2234      	movs	r2, #52	; 0x34
10002528:	4344      	muls	r4, r0
1000252a:	46a4      	mov	ip, r4
1000252c:	4372      	muls	r2, r6
1000252e:	4f27      	ldr	r7, [pc, #156]	; (100025cc <dcd_edpt_open+0x134>)
10002530:	4462      	add	r2, ip
10002532:	6839      	ldr	r1, [r7, #0]
10002534:	18aa      	adds	r2, r5, r2
10002536:	6111      	str	r1, [r2, #16]
10002538:	2b40      	cmp	r3, #64	; 0x40
1000253a:	d200      	bcs.n	1000253e <dcd_edpt_open+0xa6>
1000253c:	2340      	movs	r3, #64	; 0x40
1000253e:	223f      	movs	r2, #63	; 0x3f
10002540:	18cb      	adds	r3, r1, r3
10002542:	4213      	tst	r3, r2
10002544:	d001      	beq.n	1000254a <dcd_edpt_open+0xb2>
10002546:	4393      	bics	r3, r2
10002548:	3340      	adds	r3, #64	; 0x40
1000254a:	603b      	str	r3, [r7, #0]
1000254c:	4b20      	ldr	r3, [pc, #128]	; (100025d0 <dcd_edpt_open+0x138>)
1000254e:	2268      	movs	r2, #104	; 0x68
10002550:	4059      	eors	r1, r3
10002552:	464b      	mov	r3, r9
10002554:	069c      	lsls	r4, r3, #26
10002556:	2334      	movs	r3, #52	; 0x34
10002558:	430c      	orrs	r4, r1
1000255a:	21a0      	movs	r1, #160	; 0xa0
1000255c:	4373      	muls	r3, r6
1000255e:	4342      	muls	r2, r0
10002560:	189b      	adds	r3, r3, r2
10002562:	18eb      	adds	r3, r5, r3
10002564:	689b      	ldr	r3, [r3, #8]
10002566:	0609      	lsls	r1, r1, #24
10002568:	430c      	orrs	r4, r1
1000256a:	601c      	str	r4, [r3, #0]
1000256c:	2334      	movs	r3, #52	; 0x34
1000256e:	435e      	muls	r6, r3
10002570:	3334      	adds	r3, #52	; 0x34
10002572:	4358      	muls	r0, r3
10002574:	3b67      	subs	r3, #103	; 0x67
10002576:	1830      	adds	r0, r6, r0
10002578:	542b      	strb	r3, [r5, r0]
1000257a:	2001      	movs	r0, #1
1000257c:	bc0c      	pop	{r2, r3}
1000257e:	4690      	mov	r8, r2
10002580:	4699      	mov	r9, r3
10002582:	bdf8      	pop	{r3, r4, r5, r6, r7, pc}
10002584:	4c13      	ldr	r4, [pc, #76]	; (100025d4 <dcd_edpt_open+0x13c>)
10002586:	2700      	movs	r7, #0
10002588:	46a4      	mov	ip, r4
1000258a:	4461      	add	r1, ip
1000258c:	60d1      	str	r1, [r2, #12]
1000258e:	600f      	str	r7, [r1, #0]
10002590:	2800      	cmp	r0, #0
10002592:	d10f      	bne.n	100025b4 <dcd_edpt_open+0x11c>
10002594:	2334      	movs	r3, #52	; 0x34
10002596:	2200      	movs	r2, #0
10002598:	4373      	muls	r3, r6
1000259a:	18eb      	adds	r3, r5, r3
1000259c:	609a      	str	r2, [r3, #8]
1000259e:	4a0e      	ldr	r2, [pc, #56]	; (100025d8 <dcd_edpt_open+0x140>)
100025a0:	611a      	str	r2, [r3, #16]
100025a2:	e7e3      	b.n	1000256c <dcd_edpt_open+0xd4>
100025a4:	2280      	movs	r2, #128	; 0x80
100025a6:	00d2      	lsls	r2, r2, #3
100025a8:	4293      	cmp	r3, r2
100025aa:	d3a0      	bcc.n	100024ee <dcd_edpt_open+0x56>
100025ac:	0019      	movs	r1, r3
100025ae:	480b      	ldr	r0, [pc, #44]	; (100025dc <dcd_edpt_open+0x144>)
100025b0:	f003 f836 	bl	10005620 <panic>
100025b4:	4c06      	ldr	r4, [pc, #24]	; (100025d0 <dcd_edpt_open+0x138>)
100025b6:	00c1      	lsls	r1, r0, #3
100025b8:	46a4      	mov	ip, r4
100025ba:	4461      	add	r1, ip
100025bc:	6091      	str	r1, [r2, #8]
100025be:	e7b1      	b.n	10002524 <dcd_edpt_open+0x8c>
100025c0:	200016d4 	.word	0x200016d4
100025c4:	50100084 	.word	0x50100084
100025c8:	50100004 	.word	0x50100004
100025cc:	20001d58 	.word	0x20001d58
100025d0:	50100000 	.word	0x50100000
100025d4:	50100080 	.word	0x50100080
100025d8:	50100100 	.word	0x50100100
100025dc:	10008934 	.word	0x10008934

100025e0 <dcd_edpt_xfer>:
100025e0:	b510      	push	{r4, lr}
100025e2:	000c      	movs	r4, r1
100025e4:	2034      	movs	r0, #52	; 0x34
100025e6:	0011      	movs	r1, r2
100025e8:	001a      	movs	r2, r3
100025ea:	09e3      	lsrs	r3, r4, #7
100025ec:	4358      	muls	r0, r3
100025ee:	237f      	movs	r3, #127	; 0x7f
100025f0:	4023      	ands	r3, r4
100025f2:	2468      	movs	r4, #104	; 0x68
100025f4:	435c      	muls	r4, r3
100025f6:	4b04      	ldr	r3, [pc, #16]	; (10002608 <dcd_edpt_xfer+0x28>)
100025f8:	1900      	adds	r0, r0, r4
100025fa:	18c0      	adds	r0, r0, r3
100025fc:	2301      	movs	r3, #1
100025fe:	f000 f937 	bl	10002870 <_hw_endpoint_xfer>
10002602:	2001      	movs	r0, #1
10002604:	bd10      	pop	{r4, pc}
10002606:	46c0      	nop			; (mov r8, r8)
10002608:	200016d4 	.word	0x200016d4

1000260c <dcd_edpt_stall>:
1000260c:	b570      	push	{r4, r5, r6, lr}
1000260e:	257f      	movs	r5, #127	; 0x7f
10002610:	2034      	movs	r0, #52	; 0x34
10002612:	2368      	movs	r3, #104	; 0x68
10002614:	400d      	ands	r5, r1
10002616:	09cc      	lsrs	r4, r1, #7
10002618:	436b      	muls	r3, r5
1000261a:	4360      	muls	r0, r4
1000261c:	4e0c      	ldr	r6, [pc, #48]	; (10002650 <dcd_edpt_stall+0x44>)
1000261e:	18c0      	adds	r0, r0, r3
10002620:	1830      	adds	r0, r6, r0
10002622:	7883      	ldrb	r3, [r0, #2]
10002624:	2b00      	cmp	r3, #0
10002626:	d105      	bne.n	10002634 <dcd_edpt_stall+0x28>
10002628:	7843      	ldrb	r3, [r0, #1]
1000262a:	425a      	negs	r2, r3
1000262c:	4153      	adcs	r3, r2
1000262e:	4a09      	ldr	r2, [pc, #36]	; (10002654 <dcd_edpt_stall+0x48>)
10002630:	3301      	adds	r3, #1
10002632:	6693      	str	r3, [r2, #104]	; 0x68
10002634:	2280      	movs	r2, #128	; 0x80
10002636:	4908      	ldr	r1, [pc, #32]	; (10002658 <dcd_edpt_stall+0x4c>)
10002638:	0112      	lsls	r2, r2, #4
1000263a:	f000 f869 	bl	10002710 <_hw_endpoint_buffer_control_update32>
1000263e:	2134      	movs	r1, #52	; 0x34
10002640:	2301      	movs	r3, #1
10002642:	434c      	muls	r4, r1
10002644:	3134      	adds	r1, #52	; 0x34
10002646:	434d      	muls	r5, r1
10002648:	1964      	adds	r4, r4, r5
1000264a:	1934      	adds	r4, r6, r4
1000264c:	7523      	strb	r3, [r4, #20]
1000264e:	bd70      	pop	{r4, r5, r6, pc}
10002650:	200016d4 	.word	0x200016d4
10002654:	50112000 	.word	0x50112000
10002658:	fffff7ff 	.word	0xfffff7ff

1000265c <dcd_edpt_clear_stall>:
1000265c:	b570      	push	{r4, r5, r6, lr}
1000265e:	257f      	movs	r5, #127	; 0x7f
10002660:	2034      	movs	r0, #52	; 0x34
10002662:	2368      	movs	r3, #104	; 0x68
10002664:	400d      	ands	r5, r1
10002666:	09cc      	lsrs	r4, r1, #7
10002668:	436b      	muls	r3, r5
1000266a:	4360      	muls	r0, r4
1000266c:	4e0c      	ldr	r6, [pc, #48]	; (100026a0 <dcd_edpt_clear_stall+0x44>)
1000266e:	18c0      	adds	r0, r0, r3
10002670:	1830      	adds	r0, r6, r0
10002672:	7883      	ldrb	r3, [r0, #2]
10002674:	2b00      	cmp	r3, #0
10002676:	d105      	bne.n	10002684 <dcd_edpt_clear_stall+0x28>
10002678:	7843      	ldrb	r3, [r0, #1]
1000267a:	425a      	negs	r2, r3
1000267c:	4153      	adcs	r3, r2
1000267e:	4a09      	ldr	r2, [pc, #36]	; (100026a4 <dcd_edpt_clear_stall+0x48>)
10002680:	3301      	adds	r3, #1
10002682:	6693      	str	r3, [r2, #104]	; 0x68
10002684:	2200      	movs	r2, #0
10002686:	4908      	ldr	r1, [pc, #32]	; (100026a8 <dcd_edpt_clear_stall+0x4c>)
10002688:	f000 f842 	bl	10002710 <_hw_endpoint_buffer_control_update32>
1000268c:	2134      	movs	r1, #52	; 0x34
1000268e:	2300      	movs	r3, #0
10002690:	434c      	muls	r4, r1
10002692:	3134      	adds	r1, #52	; 0x34
10002694:	434d      	muls	r5, r1
10002696:	1964      	adds	r4, r4, r5
10002698:	1934      	adds	r4, r6, r4
1000269a:	7523      	strb	r3, [r4, #20]
1000269c:	bd70      	pop	{r4, r5, r6, pc}
1000269e:	46c0      	nop			; (mov r8, r8)
100026a0:	200016d4 	.word	0x200016d4
100026a4:	50113000 	.word	0x50113000
100026a8:	fffff7ff 	.word	0xfffff7ff

100026ac <rp2040_usb_init>:
100026ac:	2280      	movs	r2, #128	; 0x80
100026ae:	4b0e      	ldr	r3, [pc, #56]	; (100026e8 <rp2040_usb_init+0x3c>)
100026b0:	0452      	lsls	r2, r2, #17
100026b2:	b510      	push	{r4, lr}
100026b4:	601a      	str	r2, [r3, #0]
100026b6:	4b0d      	ldr	r3, [pc, #52]	; (100026ec <rp2040_usb_init+0x40>)
100026b8:	490d      	ldr	r1, [pc, #52]	; (100026f0 <rp2040_usb_init+0x44>)
100026ba:	601a      	str	r2, [r3, #0]
100026bc:	0010      	movs	r0, r2
100026be:	688b      	ldr	r3, [r1, #8]
100026c0:	4398      	bics	r0, r3
100026c2:	d1fb      	bne.n	100026bc <rp2040_usb_init+0x10>
100026c4:	4c0b      	ldr	r4, [pc, #44]	; (100026f4 <rp2040_usb_init+0x48>)
100026c6:	229c      	movs	r2, #156	; 0x9c
100026c8:	2100      	movs	r1, #0
100026ca:	0020      	movs	r0, r4
100026cc:	f004 f8b0 	bl	10006830 <__wrap_memset>
100026d0:	2280      	movs	r2, #128	; 0x80
100026d2:	2100      	movs	r1, #0
100026d4:	0152      	lsls	r2, r2, #5
100026d6:	4808      	ldr	r0, [pc, #32]	; (100026f8 <rp2040_usb_init+0x4c>)
100026d8:	f004 f8aa 	bl	10006830 <__wrap_memset>
100026dc:	2309      	movs	r3, #9
100026de:	6763      	str	r3, [r4, #116]	; 0x74
100026e0:	3303      	adds	r3, #3
100026e2:	67a3      	str	r3, [r4, #120]	; 0x78
100026e4:	bd10      	pop	{r4, pc}
100026e6:	46c0      	nop			; (mov r8, r8)
100026e8:	4000e000 	.word	0x4000e000
100026ec:	4000f000 	.word	0x4000f000
100026f0:	4000c000 	.word	0x4000c000
100026f4:	50110000 	.word	0x50110000
100026f8:	50100000 	.word	0x50100000

100026fc <hw_endpoint_reset_transfer>:
100026fc:	2300      	movs	r3, #0
100026fe:	2100      	movs	r1, #0
10002700:	2232      	movs	r2, #50	; 0x32
10002702:	8283      	strh	r3, [r0, #20]
10002704:	5481      	strb	r1, [r0, r2]
10002706:	6183      	str	r3, [r0, #24]
10002708:	61c3      	str	r3, [r0, #28]
1000270a:	6203      	str	r3, [r0, #32]
1000270c:	6283      	str	r3, [r0, #40]	; 0x28
1000270e:	4770      	bx	lr

10002710 <_hw_endpoint_buffer_control_update32>:
10002710:	b510      	push	{r4, lr}
10002712:	68c3      	ldr	r3, [r0, #12]
10002714:	2900      	cmp	r1, #0
10002716:	d001      	beq.n	1000271c <_hw_endpoint_buffer_control_update32+0xc>
10002718:	681c      	ldr	r4, [r3, #0]
1000271a:	4021      	ands	r1, r4
1000271c:	2a00      	cmp	r2, #0
1000271e:	d011      	beq.n	10002744 <_hw_endpoint_buffer_control_update32+0x34>
10002720:	2480      	movs	r4, #128	; 0x80
10002722:	00e4      	lsls	r4, r4, #3
10002724:	4311      	orrs	r1, r2
10002726:	4222      	tst	r2, r4
10002728:	d00c      	beq.n	10002744 <_hw_endpoint_buffer_control_update32+0x34>
1000272a:	681a      	ldr	r2, [r3, #0]
1000272c:	4222      	tst	r2, r4
1000272e:	d10b      	bne.n	10002748 <_hw_endpoint_buffer_control_update32+0x38>
10002730:	4a09      	ldr	r2, [pc, #36]	; (10002758 <_hw_endpoint_buffer_control_update32+0x48>)
10002732:	400a      	ands	r2, r1
10002734:	601a      	str	r2, [r3, #0]
10002736:	e7ff      	b.n	10002738 <_hw_endpoint_buffer_control_update32+0x28>
10002738:	e7ff      	b.n	1000273a <_hw_endpoint_buffer_control_update32+0x2a>
1000273a:	e7ff      	b.n	1000273c <_hw_endpoint_buffer_control_update32+0x2c>
1000273c:	e7ff      	b.n	1000273e <_hw_endpoint_buffer_control_update32+0x2e>
1000273e:	e7ff      	b.n	10002740 <_hw_endpoint_buffer_control_update32+0x30>
10002740:	e7ff      	b.n	10002742 <_hw_endpoint_buffer_control_update32+0x32>
10002742:	68c3      	ldr	r3, [r0, #12]
10002744:	6019      	str	r1, [r3, #0]
10002746:	bd10      	pop	{r4, pc}
10002748:	7843      	ldrb	r3, [r0, #1]
1000274a:	4a04      	ldr	r2, [pc, #16]	; (1000275c <_hw_endpoint_buffer_control_update32+0x4c>)
1000274c:	009b      	lsls	r3, r3, #2
1000274e:	7881      	ldrb	r1, [r0, #2]
10002750:	589a      	ldr	r2, [r3, r2]
10002752:	4803      	ldr	r0, [pc, #12]	; (10002760 <_hw_endpoint_buffer_control_update32+0x50>)
10002754:	f002 ff64 	bl	10005620 <panic>
10002758:	fffffbff 	.word	0xfffffbff
1000275c:	200002f8 	.word	0x200002f8
10002760:	1000895c 	.word	0x1000895c

10002764 <_hw_endpoint_xfer_continue>:
10002764:	b5f8      	push	{r3, r4, r5, r6, r7, lr}
10002766:	7d46      	ldrb	r6, [r0, #21]
10002768:	0004      	movs	r4, r0
1000276a:	2e00      	cmp	r6, #0
1000276c:	d100      	bne.n	10002770 <_hw_endpoint_xfer_continue+0xc>
1000276e:	e068      	b.n	10002842 <_hw_endpoint_xfer_continue+0xde>
10002770:	68c3      	ldr	r3, [r0, #12]
10002772:	78c0      	ldrb	r0, [r0, #3]
10002774:	681d      	ldr	r5, [r3, #0]
10002776:	05ad      	lsls	r5, r5, #22
10002778:	0dad      	lsrs	r5, r5, #22
1000277a:	2800      	cmp	r0, #0
1000277c:	d143      	bne.n	10002806 <_hw_endpoint_xfer_continue+0xa2>
1000277e:	69e3      	ldr	r3, [r4, #28]
10002780:	18e9      	adds	r1, r5, r3
10002782:	61e1      	str	r1, [r4, #28]
10002784:	69a2      	ldr	r2, [r4, #24]
10002786:	1a55      	subs	r5, r2, r1
10002788:	2d40      	cmp	r5, #64	; 0x40
1000278a:	d82e      	bhi.n	100027ea <_hw_endpoint_xfer_continue+0x86>
1000278c:	186b      	adds	r3, r5, r1
1000278e:	1a9b      	subs	r3, r3, r2
10002790:	425f      	negs	r7, r3
10002792:	417b      	adcs	r3, r7
10002794:	2724      	movs	r7, #36	; 0x24
10002796:	b2db      	uxtb	r3, r3
10002798:	6225      	str	r5, [r4, #32]
1000279a:	55e3      	strb	r3, [r4, r7]
1000279c:	428a      	cmp	r2, r1
1000279e:	d34d      	bcc.n	1000283c <_hw_endpoint_xfer_continue+0xd8>
100027a0:	d04a      	beq.n	10002838 <_hw_endpoint_xfer_continue+0xd4>
100027a2:	2800      	cmp	r0, #0
100027a4:	d023      	beq.n	100027ee <_hw_endpoint_xfer_continue+0x8a>
100027a6:	2280      	movs	r2, #128	; 0x80
100027a8:	00d2      	lsls	r2, r2, #3
100027aa:	432a      	orrs	r2, r5
100027ac:	7961      	ldrb	r1, [r4, #5]
100027ae:	2900      	cmp	r1, #0
100027b0:	d002      	beq.n	100027b8 <_hw_endpoint_xfer_continue+0x54>
100027b2:	2080      	movs	r0, #128	; 0x80
100027b4:	0180      	lsls	r0, r0, #6
100027b6:	4302      	orrs	r2, r0
100027b8:	2001      	movs	r0, #1
100027ba:	4041      	eors	r1, r0
100027bc:	7161      	strb	r1, [r4, #5]
100027be:	2b00      	cmp	r3, #0
100027c0:	d002      	beq.n	100027c8 <_hw_endpoint_xfer_continue+0x64>
100027c2:	2380      	movs	r3, #128	; 0x80
100027c4:	01db      	lsls	r3, r3, #7
100027c6:	431a      	orrs	r2, r3
100027c8:	68e1      	ldr	r1, [r4, #12]
100027ca:	680b      	ldr	r3, [r1, #0]
100027cc:	055b      	lsls	r3, r3, #21
100027ce:	d43d      	bmi.n	1000284c <_hw_endpoint_xfer_continue+0xe8>
100027d0:	4b22      	ldr	r3, [pc, #136]	; (1000285c <_hw_endpoint_xfer_continue+0xf8>)
100027d2:	4013      	ands	r3, r2
100027d4:	600b      	str	r3, [r1, #0]
100027d6:	e7ff      	b.n	100027d8 <_hw_endpoint_xfer_continue+0x74>
100027d8:	e7ff      	b.n	100027da <_hw_endpoint_xfer_continue+0x76>
100027da:	e7ff      	b.n	100027dc <_hw_endpoint_xfer_continue+0x78>
100027dc:	e7ff      	b.n	100027de <_hw_endpoint_xfer_continue+0x7a>
100027de:	e7ff      	b.n	100027e0 <_hw_endpoint_xfer_continue+0x7c>
100027e0:	e7ff      	b.n	100027e2 <_hw_endpoint_xfer_continue+0x7e>
100027e2:	2000      	movs	r0, #0
100027e4:	68e3      	ldr	r3, [r4, #12]
100027e6:	601a      	str	r2, [r3, #0]
100027e8:	bdf8      	pop	{r3, r4, r5, r6, r7, pc}
100027ea:	2540      	movs	r5, #64	; 0x40
100027ec:	e7ce      	b.n	1000278c <_hw_endpoint_xfer_continue+0x28>
100027ee:	6aa3      	ldr	r3, [r4, #40]	; 0x28
100027f0:	002a      	movs	r2, r5
100027f2:	469c      	mov	ip, r3
100027f4:	6920      	ldr	r0, [r4, #16]
100027f6:	4461      	add	r1, ip
100027f8:	f004 f820 	bl	1000683c <__wrap___aeabi_memcpy>
100027fc:	2284      	movs	r2, #132	; 0x84
100027fe:	0212      	lsls	r2, r2, #8
10002800:	5de3      	ldrb	r3, [r4, r7]
10002802:	432a      	orrs	r2, r5
10002804:	e7d2      	b.n	100027ac <_hw_endpoint_xfer_continue+0x48>
10002806:	69e2      	ldr	r2, [r4, #28]
10002808:	6aa3      	ldr	r3, [r4, #40]	; 0x28
1000280a:	4694      	mov	ip, r2
1000280c:	4463      	add	r3, ip
1000280e:	0018      	movs	r0, r3
10002810:	6921      	ldr	r1, [r4, #16]
10002812:	002a      	movs	r2, r5
10002814:	f004 f812 	bl	1000683c <__wrap___aeabi_memcpy>
10002818:	69e3      	ldr	r3, [r4, #28]
1000281a:	78e0      	ldrb	r0, [r4, #3]
1000281c:	18e9      	adds	r1, r5, r3
1000281e:	61e1      	str	r1, [r4, #28]
10002820:	2800      	cmp	r0, #0
10002822:	d0af      	beq.n	10002784 <_hw_endpoint_xfer_continue+0x20>
10002824:	6a23      	ldr	r3, [r4, #32]
10002826:	429d      	cmp	r5, r3
10002828:	d2ac      	bcs.n	10002784 <_hw_endpoint_xfer_continue+0x20>
1000282a:	2300      	movs	r3, #0
1000282c:	2201      	movs	r2, #1
1000282e:	6223      	str	r3, [r4, #32]
10002830:	3324      	adds	r3, #36	; 0x24
10002832:	61a1      	str	r1, [r4, #24]
10002834:	54e2      	strb	r2, [r4, r3]
10002836:	e7d7      	b.n	100027e8 <_hw_endpoint_xfer_continue+0x84>
10002838:	0030      	movs	r0, r6
1000283a:	e7d5      	b.n	100027e8 <_hw_endpoint_xfer_continue+0x84>
1000283c:	4808      	ldr	r0, [pc, #32]	; (10002860 <_hw_endpoint_xfer_continue+0xfc>)
1000283e:	f002 feef 	bl	10005620 <panic>
10002842:	7881      	ldrb	r1, [r0, #2]
10002844:	4a07      	ldr	r2, [pc, #28]	; (10002864 <_hw_endpoint_xfer_continue+0x100>)
10002846:	4808      	ldr	r0, [pc, #32]	; (10002868 <_hw_endpoint_xfer_continue+0x104>)
10002848:	f002 feea 	bl	10005620 <panic>
1000284c:	7863      	ldrb	r3, [r4, #1]
1000284e:	4a05      	ldr	r2, [pc, #20]	; (10002864 <_hw_endpoint_xfer_continue+0x100>)
10002850:	009b      	lsls	r3, r3, #2
10002852:	78a1      	ldrb	r1, [r4, #2]
10002854:	589a      	ldr	r2, [r3, r2]
10002856:	4805      	ldr	r0, [pc, #20]	; (1000286c <_hw_endpoint_xfer_continue+0x108>)
10002858:	f002 fee2 	bl	10005620 <panic>
1000285c:	fffffbff 	.word	0xfffffbff
10002860:	100089a8 	.word	0x100089a8
10002864:	200002f8 	.word	0x200002f8
10002868:	1000897c 	.word	0x1000897c
1000286c:	1000895c 	.word	0x1000895c

10002870 <_hw_endpoint_xfer>:
10002870:	b570      	push	{r4, r5, r6, lr}
10002872:	0004      	movs	r4, r0
10002874:	2b00      	cmp	r3, #0
10002876:	d049      	beq.n	1000290c <_hw_endpoint_xfer+0x9c>
10002878:	7d43      	ldrb	r3, [r0, #21]
1000287a:	2b00      	cmp	r3, #0
1000287c:	d003      	beq.n	10002886 <_hw_endpoint_xfer+0x16>
1000287e:	2300      	movs	r3, #0
10002880:	7503      	strb	r3, [r0, #20]
10002882:	2032      	movs	r0, #50	; 0x32
10002884:	5423      	strb	r3, [r4, r0]
10002886:	2300      	movs	r3, #0
10002888:	61a2      	str	r2, [r4, #24]
1000288a:	61e3      	str	r3, [r4, #28]
1000288c:	1c15      	adds	r5, r2, #0
1000288e:	2a40      	cmp	r2, #64	; 0x40
10002890:	d831      	bhi.n	100028f6 <_hw_endpoint_xfer+0x86>
10002892:	2301      	movs	r3, #1
10002894:	b2ad      	uxth	r5, r5
10002896:	1b52      	subs	r2, r2, r5
10002898:	7563      	strb	r3, [r4, #21]
1000289a:	4253      	negs	r3, r2
1000289c:	4153      	adcs	r3, r2
1000289e:	2624      	movs	r6, #36	; 0x24
100028a0:	2225      	movs	r2, #37	; 0x25
100028a2:	2000      	movs	r0, #0
100028a4:	b2db      	uxtb	r3, r3
100028a6:	6225      	str	r5, [r4, #32]
100028a8:	62a1      	str	r1, [r4, #40]	; 0x28
100028aa:	55a3      	strb	r3, [r4, r6]
100028ac:	54a0      	strb	r0, [r4, r2]
100028ae:	78e2      	ldrb	r2, [r4, #3]
100028b0:	2a00      	cmp	r2, #0
100028b2:	d022      	beq.n	100028fa <_hw_endpoint_xfer+0x8a>
100028b4:	2280      	movs	r2, #128	; 0x80
100028b6:	00d2      	lsls	r2, r2, #3
100028b8:	432a      	orrs	r2, r5
100028ba:	7961      	ldrb	r1, [r4, #5]
100028bc:	2900      	cmp	r1, #0
100028be:	d002      	beq.n	100028c6 <_hw_endpoint_xfer+0x56>
100028c0:	2080      	movs	r0, #128	; 0x80
100028c2:	0180      	lsls	r0, r0, #6
100028c4:	4302      	orrs	r2, r0
100028c6:	2001      	movs	r0, #1
100028c8:	4041      	eors	r1, r0
100028ca:	7161      	strb	r1, [r4, #5]
100028cc:	2b00      	cmp	r3, #0
100028ce:	d002      	beq.n	100028d6 <_hw_endpoint_xfer+0x66>
100028d0:	2380      	movs	r3, #128	; 0x80
100028d2:	01db      	lsls	r3, r3, #7
100028d4:	431a      	orrs	r2, r3
100028d6:	68e1      	ldr	r1, [r4, #12]
100028d8:	680b      	ldr	r3, [r1, #0]
100028da:	055b      	lsls	r3, r3, #21
100028dc:	d419      	bmi.n	10002912 <_hw_endpoint_xfer+0xa2>
100028de:	4b11      	ldr	r3, [pc, #68]	; (10002924 <_hw_endpoint_xfer+0xb4>)
100028e0:	4013      	ands	r3, r2
100028e2:	600b      	str	r3, [r1, #0]
100028e4:	e7ff      	b.n	100028e6 <_hw_endpoint_xfer+0x76>
100028e6:	e7ff      	b.n	100028e8 <_hw_endpoint_xfer+0x78>
100028e8:	e7ff      	b.n	100028ea <_hw_endpoint_xfer+0x7a>
100028ea:	e7ff      	b.n	100028ec <_hw_endpoint_xfer+0x7c>
100028ec:	e7ff      	b.n	100028ee <_hw_endpoint_xfer+0x7e>
100028ee:	e7ff      	b.n	100028f0 <_hw_endpoint_xfer+0x80>
100028f0:	68e3      	ldr	r3, [r4, #12]
100028f2:	601a      	str	r2, [r3, #0]
100028f4:	bd70      	pop	{r4, r5, r6, pc}
100028f6:	2540      	movs	r5, #64	; 0x40
100028f8:	e7cb      	b.n	10002892 <_hw_endpoint_xfer+0x22>
100028fa:	002a      	movs	r2, r5
100028fc:	6920      	ldr	r0, [r4, #16]
100028fe:	f003 ff9d 	bl	1000683c <__wrap___aeabi_memcpy>
10002902:	2284      	movs	r2, #132	; 0x84
10002904:	0212      	lsls	r2, r2, #8
10002906:	5da3      	ldrb	r3, [r4, r6]
10002908:	432a      	orrs	r2, r5
1000290a:	e7d6      	b.n	100028ba <_hw_endpoint_xfer+0x4a>
1000290c:	f7ff ff2a 	bl	10002764 <_hw_endpoint_xfer_continue>
10002910:	e7f0      	b.n	100028f4 <_hw_endpoint_xfer+0x84>
10002912:	7863      	ldrb	r3, [r4, #1]
10002914:	4a04      	ldr	r2, [pc, #16]	; (10002928 <_hw_endpoint_xfer+0xb8>)
10002916:	009b      	lsls	r3, r3, #2
10002918:	78a1      	ldrb	r1, [r4, #2]
1000291a:	589a      	ldr	r2, [r3, r2]
1000291c:	4803      	ldr	r0, [pc, #12]	; (1000292c <_hw_endpoint_xfer+0xbc>)
1000291e:	f002 fe7f 	bl	10005620 <panic>
10002922:	46c0      	nop			; (mov r8, r8)
10002924:	fffffbff 	.word	0xfffffbff
10002928:	200002f8 	.word	0x200002f8
1000292c:	1000895c 	.word	0x1000895c

10002930 <tud_mounted>:
10002930:	4b02      	ldr	r3, [pc, #8]	; (1000293c <tud_mounted+0xc>)
10002932:	7858      	ldrb	r0, [r3, #1]
10002934:	1e43      	subs	r3, r0, #1
10002936:	4198      	sbcs	r0, r3
10002938:	b2c0      	uxtb	r0, r0
1000293a:	4770      	bx	lr
1000293c:	2000161c 	.word	0x2000161c

10002940 <tud_suspended>:
10002940:	4b02      	ldr	r3, [pc, #8]	; (1000294c <tud_suspended+0xc>)
10002942:	7818      	ldrb	r0, [r3, #0]
10002944:	0740      	lsls	r0, r0, #29
10002946:	0fc0      	lsrs	r0, r0, #31
10002948:	4770      	bx	lr
1000294a:	46c0      	nop			; (mov r8, r8)
1000294c:	2000161c 	.word	0x2000161c

10002950 <tud_init>:
10002950:	b5f8      	push	{r3, r4, r5, r6, r7, lr}
10002952:	2237      	movs	r2, #55	; 0x37
10002954:	2100      	movs	r1, #0
10002956:	4821      	ldr	r0, [pc, #132]	; (100029dc <tud_init+0x8c>)
10002958:	f003 ff6a 	bl	10006830 <__wrap_memset>
1000295c:	4c20      	ldr	r4, [pc, #128]	; (100029e0 <tud_init+0x90>)
1000295e:	0020      	movs	r0, r4
10002960:	f002 fd1e 	bl	100053a0 <mutex_init>
10002964:	4b1f      	ldr	r3, [pc, #124]	; (100029e4 <tud_init+0x94>)
10002966:	601c      	str	r4, [r3, #0]
10002968:	4c1f      	ldr	r4, [pc, #124]	; (100029e8 <tud_init+0x98>)
1000296a:	0020      	movs	r0, r4
1000296c:	3018      	adds	r0, #24
1000296e:	f002 fd23 	bl	100053b8 <critical_section_init>
10002972:	0020      	movs	r0, r4
10002974:	f001 fb9e 	bl	100040b4 <tu_fifo_clear>
10002978:	4b1c      	ldr	r3, [pc, #112]	; (100029ec <tud_init+0x9c>)
1000297a:	4e1d      	ldr	r6, [pc, #116]	; (100029f0 <tud_init+0xa0>)
1000297c:	4d1d      	ldr	r5, [pc, #116]	; (100029f4 <tud_init+0xa4>)
1000297e:	601c      	str	r4, [r3, #0]
10002980:	2e00      	cmp	r6, #0
10002982:	d004      	beq.n	1000298e <tud_init+0x3e>
10002984:	0028      	movs	r0, r5
10002986:	e000      	b.n	1000298a <tud_init+0x3a>
10002988:	bf00      	nop
1000298a:	4b1b      	ldr	r3, [pc, #108]	; (100029f8 <tud_init+0xa8>)
1000298c:	6018      	str	r0, [r3, #0]
1000298e:	2400      	movs	r4, #0
10002990:	782b      	ldrb	r3, [r5, #0]
10002992:	2e00      	cmp	r6, #0
10002994:	d019      	beq.n	100029ca <tud_init+0x7a>
10002996:	4e19      	ldr	r6, [pc, #100]	; (100029fc <tud_init+0xac>)
10002998:	4f17      	ldr	r7, [pc, #92]	; (100029f8 <tud_init+0xa8>)
1000299a:	429c      	cmp	r4, r3
1000299c:	d30f      	bcc.n	100029be <tud_init+0x6e>
1000299e:	d119      	bne.n	100029d4 <tud_init+0x84>
100029a0:	0033      	movs	r3, r6
100029a2:	4798      	blx	r3
100029a4:	3401      	adds	r4, #1
100029a6:	782b      	ldrb	r3, [r5, #0]
100029a8:	b2e4      	uxtb	r4, r4
100029aa:	42a3      	cmp	r3, r4
100029ac:	d2f5      	bcs.n	1000299a <tud_init+0x4a>
100029ae:	2000      	movs	r0, #0
100029b0:	f7ff fcfe 	bl	100023b0 <dcd_init>
100029b4:	2000      	movs	r0, #0
100029b6:	f7ff fcd5 	bl	10002364 <dcd_int_enable>
100029ba:	2001      	movs	r0, #1
100029bc:	bdf8      	pop	{r3, r4, r5, r6, r7, pc}
100029be:	00e3      	lsls	r3, r4, #3
100029c0:	683a      	ldr	r2, [r7, #0]
100029c2:	1b1b      	subs	r3, r3, r4
100029c4:	009b      	lsls	r3, r3, #2
100029c6:	589b      	ldr	r3, [r3, r2]
100029c8:	e7eb      	b.n	100029a2 <tud_init+0x52>
100029ca:	f000 ff87 	bl	100038dc <cdcd_init>
100029ce:	782b      	ldrb	r3, [r5, #0]
100029d0:	2b00      	cmp	r3, #0
100029d2:	d0ec      	beq.n	100029ae <tud_init+0x5e>
100029d4:	2300      	movs	r3, #0
100029d6:	681b      	ldr	r3, [r3, #0]
100029d8:	deff      	udf	#255	; 0xff
100029da:	46c0      	nop			; (mov r8, r8)
100029dc:	2000161c 	.word	0x2000161c
100029e0:	200015d4 	.word	0x200015d4
100029e4:	20001654 	.word	0x20001654
100029e8:	20000300 	.word	0x20000300
100029ec:	20001658 	.word	0x20001658
100029f0:	00000000 	.word	0x00000000
100029f4:	20001d8d 	.word	0x20001d8d
100029f8:	200012ec 	.word	0x200012ec
100029fc:	100038dd 	.word	0x100038dd

10002a00 <tud_task>:
10002a00:	b5f0      	push	{r4, r5, r6, r7, lr}
10002a02:	46de      	mov	lr, fp
10002a04:	4657      	mov	r7, sl
10002a06:	464e      	mov	r6, r9
10002a08:	4645      	mov	r5, r8
10002a0a:	b5e0      	push	{r5, r6, r7, lr}
10002a0c:	b08b      	sub	sp, #44	; 0x2c
10002a0e:	f001 f969 	bl	10003ce4 <tusb_inited>
10002a12:	2800      	cmp	r0, #0
10002a14:	d100      	bne.n	10002a18 <tud_task+0x18>
10002a16:	e122      	b.n	10002c5e <tud_task+0x25e>
10002a18:	4bb2      	ldr	r3, [pc, #712]	; (10002ce4 <tud_task+0x2e4>)
10002a1a:	ad07      	add	r5, sp, #28
10002a1c:	469a      	mov	sl, r3
10002a1e:	4bb2      	ldr	r3, [pc, #712]	; (10002ce8 <tud_task+0x2e8>)
10002a20:	469b      	mov	fp, r3
10002a22:	4653      	mov	r3, sl
10002a24:	681e      	ldr	r6, [r3, #0]
10002a26:	69b2      	ldr	r2, [r6, #24]
10002a28:	f3ef 8310 	mrs	r3, PRIMASK
10002a2c:	b672      	cpsid	i
10002a2e:	6811      	ldr	r1, [r2, #0]
10002a30:	2900      	cmp	r1, #0
10002a32:	d0fc      	beq.n	10002a2e <tud_task+0x2e>
10002a34:	f3bf 8f5f 	dmb	sy
10002a38:	61f3      	str	r3, [r6, #28]
10002a3a:	0029      	movs	r1, r5
10002a3c:	0030      	movs	r0, r6
10002a3e:	f001 f9ad 	bl	10003d9c <tu_fifo_read>
10002a42:	69b2      	ldr	r2, [r6, #24]
10002a44:	0004      	movs	r4, r0
10002a46:	69f3      	ldr	r3, [r6, #28]
10002a48:	f3bf 8f5f 	dmb	sy
10002a4c:	2100      	movs	r1, #0
10002a4e:	6011      	str	r1, [r2, #0]
10002a50:	f383 8810 	msr	PRIMASK, r3
10002a54:	2800      	cmp	r0, #0
10002a56:	d100      	bne.n	10002a5a <tud_task+0x5a>
10002a58:	e101      	b.n	10002c5e <tud_task+0x25e>
10002a5a:	786b      	ldrb	r3, [r5, #1]
10002a5c:	2b08      	cmp	r3, #8
10002a5e:	d8e0      	bhi.n	10002a22 <tud_task+0x22>
10002a60:	465a      	mov	r2, fp
10002a62:	009b      	lsls	r3, r3, #2
10002a64:	58d3      	ldr	r3, [r2, r3]
10002a66:	469f      	mov	pc, r3
10002a68:	686b      	ldr	r3, [r5, #4]
10002a6a:	2b00      	cmp	r3, #0
10002a6c:	d0d9      	beq.n	10002a22 <tud_task+0x22>
10002a6e:	68a8      	ldr	r0, [r5, #8]
10002a70:	4798      	blx	r3
10002a72:	e7d6      	b.n	10002a22 <tud_task+0x22>
10002a74:	227f      	movs	r2, #127	; 0x7f
10002a76:	7929      	ldrb	r1, [r5, #4]
10002a78:	4b9c      	ldr	r3, [pc, #624]	; (10002cec <tud_task+0x2ec>)
10002a7a:	400a      	ands	r2, r1
10002a7c:	0054      	lsls	r4, r2, #1
10002a7e:	09c8      	lsrs	r0, r1, #7
10002a80:	191b      	adds	r3, r3, r4
10002a82:	181b      	adds	r3, r3, r0
10002a84:	0018      	movs	r0, r3
10002a86:	2601      	movs	r6, #1
10002a88:	3020      	adds	r0, #32
10002a8a:	7944      	ldrb	r4, [r0, #5]
10002a8c:	43b4      	bics	r4, r6
10002a8e:	7144      	strb	r4, [r0, #5]
10002a90:	7944      	ldrb	r4, [r0, #5]
10002a92:	3603      	adds	r6, #3
10002a94:	43b4      	bics	r4, r6
10002a96:	7144      	strb	r4, [r0, #5]
10002a98:	2a00      	cmp	r2, #0
10002a9a:	d100      	bne.n	10002a9e <tud_task+0x9e>
10002a9c:	e0e6      	b.n	10002c6c <tud_task+0x26c>
10002a9e:	4a94      	ldr	r2, [pc, #592]	; (10002cf0 <tud_task+0x2f0>)
10002aa0:	7cdb      	ldrb	r3, [r3, #19]
10002aa2:	2a00      	cmp	r2, #0
10002aa4:	d006      	beq.n	10002ab4 <tud_task+0xb4>
10002aa6:	4a93      	ldr	r2, [pc, #588]	; (10002cf4 <tud_task+0x2f4>)
10002aa8:	7812      	ldrb	r2, [r2, #0]
10002aaa:	4293      	cmp	r3, r2
10002aac:	d200      	bcs.n	10002ab0 <tud_task+0xb0>
10002aae:	e16d      	b.n	10002d8c <tud_task+0x38c>
10002ab0:	1a9b      	subs	r3, r3, r2
10002ab2:	b2db      	uxtb	r3, r3
10002ab4:	2b00      	cmp	r3, #0
10002ab6:	d000      	beq.n	10002aba <tud_task+0xba>
10002ab8:	e0d1      	b.n	10002c5e <tud_task+0x25e>
10002aba:	4c8f      	ldr	r4, [pc, #572]	; (10002cf8 <tud_task+0x2f8>)
10002abc:	796a      	ldrb	r2, [r5, #5]
10002abe:	7828      	ldrb	r0, [r5, #0]
10002ac0:	68ab      	ldr	r3, [r5, #8]
10002ac2:	47a0      	blx	r4
10002ac4:	e7ad      	b.n	10002a22 <tud_task+0x22>
10002ac6:	4b89      	ldr	r3, [pc, #548]	; (10002cec <tud_task+0x2ec>)
10002ac8:	2701      	movs	r7, #1
10002aca:	4698      	mov	r8, r3
10002acc:	4642      	mov	r2, r8
10002ace:	781b      	ldrb	r3, [r3, #0]
10002ad0:	2000      	movs	r0, #0
10002ad2:	433b      	orrs	r3, r7
10002ad4:	7013      	strb	r3, [r2, #0]
10002ad6:	782b      	ldrb	r3, [r5, #0]
10002ad8:	4699      	mov	r9, r3
10002ada:	f000 fd95 	bl	10003608 <usbd_control_set_complete_callback>
10002ade:	2360      	movs	r3, #96	; 0x60
10002ae0:	792e      	ldrb	r6, [r5, #4]
10002ae2:	4033      	ands	r3, r6
10002ae4:	2b60      	cmp	r3, #96	; 0x60
10002ae6:	d00d      	beq.n	10002b04 <tud_task+0x104>
10002ae8:	2b40      	cmp	r3, #64	; 0x40
10002aea:	d100      	bne.n	10002aee <tud_task+0xee>
10002aec:	e0da      	b.n	10002ca4 <tud_task+0x2a4>
10002aee:	06f6      	lsls	r6, r6, #27
10002af0:	0ef6      	lsrs	r6, r6, #27
10002af2:	2e01      	cmp	r6, #1
10002af4:	d100      	bne.n	10002af8 <tud_task+0xf8>
10002af6:	e154      	b.n	10002da2 <tud_task+0x3a2>
10002af8:	2e02      	cmp	r6, #2
10002afa:	d100      	bne.n	10002afe <tud_task+0xfe>
10002afc:	e110      	b.n	10002d20 <tud_task+0x320>
10002afe:	2e00      	cmp	r6, #0
10002b00:	d100      	bne.n	10002b04 <tud_task+0x104>
10002b02:	e0e1      	b.n	10002cc8 <tud_task+0x2c8>
10002b04:	7828      	ldrb	r0, [r5, #0]
10002b06:	2100      	movs	r1, #0
10002b08:	f7ff fd80 	bl	1000260c <dcd_edpt_stall>
10002b0c:	2180      	movs	r1, #128	; 0x80
10002b0e:	7828      	ldrb	r0, [r5, #0]
10002b10:	f7ff fd7c 	bl	1000260c <dcd_edpt_stall>
10002b14:	e785      	b.n	10002a22 <tud_task+0x22>
10002b16:	4b79      	ldr	r3, [pc, #484]	; (10002cfc <tud_task+0x2fc>)
10002b18:	2b00      	cmp	r3, #0
10002b1a:	d082      	beq.n	10002a22 <tud_task+0x22>
10002b1c:	e000      	b.n	10002b20 <tud_task+0x120>
10002b1e:	bf00      	nop
10002b20:	e77f      	b.n	10002a22 <tud_task+0x22>
10002b22:	4b77      	ldr	r3, [pc, #476]	; (10002d00 <tud_task+0x300>)
10002b24:	2b00      	cmp	r3, #0
10002b26:	d100      	bne.n	10002b2a <tud_task+0x12a>
10002b28:	e77b      	b.n	10002a22 <tud_task+0x22>
10002b2a:	4b70      	ldr	r3, [pc, #448]	; (10002cec <tud_task+0x2ec>)
10002b2c:	7818      	ldrb	r0, [r3, #0]
10002b2e:	0700      	lsls	r0, r0, #28
10002b30:	0fc0      	lsrs	r0, r0, #31
10002b32:	e000      	b.n	10002b36 <tud_task+0x136>
10002b34:	bf00      	nop
10002b36:	e774      	b.n	10002a22 <tud_task+0x22>
10002b38:	4e6e      	ldr	r6, [pc, #440]	; (10002cf4 <tud_task+0x2f4>)
10002b3a:	4a6d      	ldr	r2, [pc, #436]	; (10002cf0 <tud_task+0x2f0>)
10002b3c:	2400      	movs	r4, #0
10002b3e:	7833      	ldrb	r3, [r6, #0]
10002b40:	2a00      	cmp	r2, #0
10002b42:	d100      	bne.n	10002b46 <tud_task+0x146>
10002b44:	e098      	b.n	10002c78 <tud_task+0x278>
10002b46:	4f6f      	ldr	r7, [pc, #444]	; (10002d04 <tud_task+0x304>)
10002b48:	42a3      	cmp	r3, r4
10002b4a:	d808      	bhi.n	10002b5e <tud_task+0x15e>
10002b4c:	42a3      	cmp	r3, r4
10002b4e:	d000      	beq.n	10002b52 <tud_task+0x152>
10002b50:	e095      	b.n	10002c7e <tud_task+0x27e>
10002b52:	3401      	adds	r4, #1
10002b54:	b2e4      	uxtb	r4, r4
10002b56:	42a3      	cmp	r3, r4
10002b58:	d200      	bcs.n	10002b5c <tud_task+0x15c>
10002b5a:	e762      	b.n	10002a22 <tud_task+0x22>
10002b5c:	d9f6      	bls.n	10002b4c <tud_task+0x14c>
10002b5e:	6839      	ldr	r1, [r7, #0]
10002b60:	00e2      	lsls	r2, r4, #3
10002b62:	468c      	mov	ip, r1
10002b64:	1b12      	subs	r2, r2, r4
10002b66:	0092      	lsls	r2, r2, #2
10002b68:	4462      	add	r2, ip
10002b6a:	6992      	ldr	r2, [r2, #24]
10002b6c:	2a00      	cmp	r2, #0
10002b6e:	d0f0      	beq.n	10002b52 <tud_task+0x152>
10002b70:	7828      	ldrb	r0, [r5, #0]
10002b72:	4790      	blx	r2
10002b74:	3401      	adds	r4, #1
10002b76:	7833      	ldrb	r3, [r6, #0]
10002b78:	b2e4      	uxtb	r4, r4
10002b7a:	42a3      	cmp	r3, r4
10002b7c:	d2e4      	bcs.n	10002b48 <tud_task+0x148>
10002b7e:	e750      	b.n	10002a22 <tud_task+0x22>
10002b80:	2237      	movs	r2, #55	; 0x37
10002b82:	2100      	movs	r1, #0
10002b84:	4859      	ldr	r0, [pc, #356]	; (10002cec <tud_task+0x2ec>)
10002b86:	782f      	ldrb	r7, [r5, #0]
10002b88:	f003 fe52 	bl	10006830 <__wrap_memset>
10002b8c:	2210      	movs	r2, #16
10002b8e:	21ff      	movs	r1, #255	; 0xff
10002b90:	485d      	ldr	r0, [pc, #372]	; (10002d08 <tud_task+0x308>)
10002b92:	f003 fe4d 	bl	10006830 <__wrap_memset>
10002b96:	4855      	ldr	r0, [pc, #340]	; (10002cec <tud_task+0x2ec>)
10002b98:	2212      	movs	r2, #18
10002b9a:	21ff      	movs	r1, #255	; 0xff
10002b9c:	3013      	adds	r0, #19
10002b9e:	f003 fe47 	bl	10006830 <__wrap_memset>
10002ba2:	f000 fd27 	bl	100035f4 <usbd_control_reset>
10002ba6:	4e53      	ldr	r6, [pc, #332]	; (10002cf4 <tud_task+0x2f4>)
10002ba8:	4a51      	ldr	r2, [pc, #324]	; (10002cf0 <tud_task+0x2f0>)
10002baa:	2400      	movs	r4, #0
10002bac:	7833      	ldrb	r3, [r6, #0]
10002bae:	2a00      	cmp	r2, #0
10002bb0:	d100      	bne.n	10002bb4 <tud_task+0x1b4>
10002bb2:	e070      	b.n	10002c96 <tud_task+0x296>
10002bb4:	4a55      	ldr	r2, [pc, #340]	; (10002d0c <tud_task+0x30c>)
10002bb6:	4690      	mov	r8, r2
10002bb8:	4a52      	ldr	r2, [pc, #328]	; (10002d04 <tud_task+0x304>)
10002bba:	4691      	mov	r9, r2
10002bbc:	42a3      	cmp	r3, r4
10002bbe:	d845      	bhi.n	10002c4c <tud_task+0x24c>
10002bc0:	d166      	bne.n	10002c90 <tud_task+0x290>
10002bc2:	4643      	mov	r3, r8
10002bc4:	0038      	movs	r0, r7
10002bc6:	4798      	blx	r3
10002bc8:	3401      	adds	r4, #1
10002bca:	7833      	ldrb	r3, [r6, #0]
10002bcc:	b2e4      	uxtb	r4, r4
10002bce:	42a3      	cmp	r3, r4
10002bd0:	d2f4      	bcs.n	10002bbc <tud_task+0x1bc>
10002bd2:	4b4f      	ldr	r3, [pc, #316]	; (10002d10 <tud_task+0x310>)
10002bd4:	2b00      	cmp	r3, #0
10002bd6:	d100      	bne.n	10002bda <tud_task+0x1da>
10002bd8:	e723      	b.n	10002a22 <tud_task+0x22>
10002bda:	e000      	b.n	10002bde <tud_task+0x1de>
10002bdc:	bf00      	nop
10002bde:	e720      	b.n	10002a22 <tud_task+0x22>
10002be0:	4b42      	ldr	r3, [pc, #264]	; (10002cec <tud_task+0x2ec>)
10002be2:	2237      	movs	r2, #55	; 0x37
10002be4:	4698      	mov	r8, r3
10002be6:	2100      	movs	r1, #0
10002be8:	0018      	movs	r0, r3
10002bea:	782f      	ldrb	r7, [r5, #0]
10002bec:	f003 fe20 	bl	10006830 <__wrap_memset>
10002bf0:	4643      	mov	r3, r8
10002bf2:	2210      	movs	r2, #16
10002bf4:	1cd8      	adds	r0, r3, #3
10002bf6:	21ff      	movs	r1, #255	; 0xff
10002bf8:	f003 fe1a 	bl	10006830 <__wrap_memset>
10002bfc:	4640      	mov	r0, r8
10002bfe:	2212      	movs	r2, #18
10002c00:	21ff      	movs	r1, #255	; 0xff
10002c02:	3013      	adds	r0, #19
10002c04:	f003 fe14 	bl	10006830 <__wrap_memset>
10002c08:	f000 fcf4 	bl	100035f4 <usbd_control_reset>
10002c0c:	4e39      	ldr	r6, [pc, #228]	; (10002cf4 <tud_task+0x2f4>)
10002c0e:	4a38      	ldr	r2, [pc, #224]	; (10002cf0 <tud_task+0x2f0>)
10002c10:	2400      	movs	r4, #0
10002c12:	7833      	ldrb	r3, [r6, #0]
10002c14:	2a00      	cmp	r2, #0
10002c16:	d035      	beq.n	10002c84 <tud_task+0x284>
10002c18:	4a3a      	ldr	r2, [pc, #232]	; (10002d04 <tud_task+0x304>)
10002c1a:	4691      	mov	r9, r2
10002c1c:	429c      	cmp	r4, r3
10002c1e:	d30c      	bcc.n	10002c3a <tud_task+0x23a>
10002c20:	d136      	bne.n	10002c90 <tud_task+0x290>
10002c22:	4b3a      	ldr	r3, [pc, #232]	; (10002d0c <tud_task+0x30c>)
10002c24:	0038      	movs	r0, r7
10002c26:	4798      	blx	r3
10002c28:	3401      	adds	r4, #1
10002c2a:	7833      	ldrb	r3, [r6, #0]
10002c2c:	b2e4      	uxtb	r4, r4
10002c2e:	42a3      	cmp	r3, r4
10002c30:	d2f4      	bcs.n	10002c1c <tud_task+0x21c>
10002c32:	4642      	mov	r2, r8
10002c34:	792b      	ldrb	r3, [r5, #4]
10002c36:	7093      	strb	r3, [r2, #2]
10002c38:	e6f3      	b.n	10002a22 <tud_task+0x22>
10002c3a:	464a      	mov	r2, r9
10002c3c:	6812      	ldr	r2, [r2, #0]
10002c3e:	00e3      	lsls	r3, r4, #3
10002c40:	4694      	mov	ip, r2
10002c42:	1b1b      	subs	r3, r3, r4
10002c44:	009b      	lsls	r3, r3, #2
10002c46:	4463      	add	r3, ip
10002c48:	685b      	ldr	r3, [r3, #4]
10002c4a:	e7eb      	b.n	10002c24 <tud_task+0x224>
10002c4c:	464a      	mov	r2, r9
10002c4e:	6812      	ldr	r2, [r2, #0]
10002c50:	00e3      	lsls	r3, r4, #3
10002c52:	4694      	mov	ip, r2
10002c54:	1b1b      	subs	r3, r3, r4
10002c56:	009b      	lsls	r3, r3, #2
10002c58:	4463      	add	r3, ip
10002c5a:	685b      	ldr	r3, [r3, #4]
10002c5c:	e7b2      	b.n	10002bc4 <tud_task+0x1c4>
10002c5e:	b00b      	add	sp, #44	; 0x2c
10002c60:	bc3c      	pop	{r2, r3, r4, r5}
10002c62:	4690      	mov	r8, r2
10002c64:	4699      	mov	r9, r3
10002c66:	46a2      	mov	sl, r4
10002c68:	46ab      	mov	fp, r5
10002c6a:	bdf0      	pop	{r4, r5, r6, r7, pc}
10002c6c:	796a      	ldrb	r2, [r5, #5]
10002c6e:	7828      	ldrb	r0, [r5, #0]
10002c70:	68ab      	ldr	r3, [r5, #8]
10002c72:	f000 fcdd 	bl	10003630 <usbd_control_xfer_cb>
10002c76:	e6d4      	b.n	10002a22 <tud_task+0x22>
10002c78:	2b00      	cmp	r3, #0
10002c7a:	d100      	bne.n	10002c7e <tud_task+0x27e>
10002c7c:	e6d1      	b.n	10002a22 <tud_task+0x22>
10002c7e:	2300      	movs	r3, #0
10002c80:	699b      	ldr	r3, [r3, #24]
10002c82:	deff      	udf	#255	; 0xff
10002c84:	0038      	movs	r0, r7
10002c86:	f000 fe65 	bl	10003954 <cdcd_reset>
10002c8a:	7833      	ldrb	r3, [r6, #0]
10002c8c:	2b00      	cmp	r3, #0
10002c8e:	d0d0      	beq.n	10002c32 <tud_task+0x232>
10002c90:	2300      	movs	r3, #0
10002c92:	685b      	ldr	r3, [r3, #4]
10002c94:	deff      	udf	#255	; 0xff
10002c96:	0038      	movs	r0, r7
10002c98:	f000 fe5c 	bl	10003954 <cdcd_reset>
10002c9c:	7833      	ldrb	r3, [r6, #0]
10002c9e:	2b00      	cmp	r3, #0
10002ca0:	d097      	beq.n	10002bd2 <tud_task+0x1d2>
10002ca2:	e7f5      	b.n	10002c90 <tud_task+0x290>
10002ca4:	4b1b      	ldr	r3, [pc, #108]	; (10002d14 <tud_task+0x314>)
10002ca6:	2b00      	cmp	r3, #0
10002ca8:	d100      	bne.n	10002cac <tud_task+0x2ac>
10002caa:	e72b      	b.n	10002b04 <tud_task+0x104>
10002cac:	481a      	ldr	r0, [pc, #104]	; (10002d18 <tud_task+0x318>)
10002cae:	2800      	cmp	r0, #0
10002cb0:	d001      	beq.n	10002cb6 <tud_task+0x2b6>
10002cb2:	f000 fca9 	bl	10003608 <usbd_control_set_complete_callback>
10002cb6:	4648      	mov	r0, r9
10002cb8:	a908      	add	r1, sp, #32
10002cba:	e000      	b.n	10002cbe <tud_task+0x2be>
10002cbc:	bf00      	nop
10002cbe:	0004      	movs	r4, r0
10002cc0:	2c00      	cmp	r4, #0
10002cc2:	d000      	beq.n	10002cc6 <tud_task+0x2c6>
10002cc4:	e6ad      	b.n	10002a22 <tud_task+0x22>
10002cc6:	e71d      	b.n	10002b04 <tud_task+0x104>
10002cc8:	2b20      	cmp	r3, #32
10002cca:	d100      	bne.n	10002cce <tud_task+0x2ce>
10002ccc:	e09a      	b.n	10002e04 <tud_task+0x404>
10002cce:	2b00      	cmp	r3, #0
10002cd0:	d000      	beq.n	10002cd4 <tud_task+0x2d4>
10002cd2:	e717      	b.n	10002b04 <tud_task+0x104>
10002cd4:	796b      	ldrb	r3, [r5, #5]
10002cd6:	2b09      	cmp	r3, #9
10002cd8:	d900      	bls.n	10002cdc <tud_task+0x2dc>
10002cda:	e713      	b.n	10002b04 <tud_task+0x104>
10002cdc:	4a0f      	ldr	r2, [pc, #60]	; (10002d1c <tud_task+0x31c>)
10002cde:	009b      	lsls	r3, r3, #2
10002ce0:	58d3      	ldr	r3, [r2, r3]
10002ce2:	469f      	mov	pc, r3
10002ce4:	20001658 	.word	0x20001658
10002ce8:	100089cc 	.word	0x100089cc
10002cec:	2000161c 	.word	0x2000161c
10002cf0:	00000000 	.word	0x00000000
10002cf4:	20001d8d 	.word	0x20001d8d
10002cf8:	10003b11 	.word	0x10003b11
	...
10002d04:	200012ec 	.word	0x200012ec
10002d08:	2000161f 	.word	0x2000161f
10002d0c:	10003955 	.word	0x10003955
	...
10002d1c:	100089f0 	.word	0x100089f0
10002d20:	227f      	movs	r2, #127	; 0x7f
10002d22:	7a29      	ldrb	r1, [r5, #8]
10002d24:	400a      	ands	r2, r1
10002d26:	9202      	str	r2, [sp, #8]
10002d28:	2a08      	cmp	r2, #8
10002d2a:	d900      	bls.n	10002d2e <tud_task+0x32e>
10002d2c:	e6ea      	b.n	10002b04 <tud_task+0x104>
10002d2e:	09c8      	lsrs	r0, r1, #7
10002d30:	9001      	str	r0, [sp, #4]
10002d32:	2b00      	cmp	r3, #0
10002d34:	d100      	bne.n	10002d38 <tud_task+0x338>
10002d36:	e082      	b.n	10002e3e <tud_task+0x43e>
10002d38:	2400      	movs	r4, #0
10002d3a:	0053      	lsls	r3, r2, #1
10002d3c:	9302      	str	r3, [sp, #8]
10002d3e:	9a01      	ldr	r2, [sp, #4]
10002d40:	9b02      	ldr	r3, [sp, #8]
10002d42:	4694      	mov	ip, r2
10002d44:	4443      	add	r3, r8
10002d46:	4ac7      	ldr	r2, [pc, #796]	; (10003064 <tud_task+0x664>)
10002d48:	4463      	add	r3, ip
10002d4a:	7cdb      	ldrb	r3, [r3, #19]
10002d4c:	2a00      	cmp	r2, #0
10002d4e:	d006      	beq.n	10002d5e <tud_task+0x35e>
10002d50:	4ac5      	ldr	r2, [pc, #788]	; (10003068 <tud_task+0x668>)
10002d52:	7812      	ldrb	r2, [r2, #0]
10002d54:	4293      	cmp	r3, r2
10002d56:	d200      	bcs.n	10002d5a <tud_task+0x35a>
10002d58:	e13b      	b.n	10002fd2 <tud_task+0x5d2>
10002d5a:	1a9b      	subs	r3, r3, r2
10002d5c:	b2db      	uxtb	r3, r3
10002d5e:	2b00      	cmp	r3, #0
10002d60:	d000      	beq.n	10002d64 <tud_task+0x364>
10002d62:	e12d      	b.n	10002fc0 <tud_task+0x5c0>
10002d64:	48c1      	ldr	r0, [pc, #772]	; (1000306c <tud_task+0x66c>)
10002d66:	4ec2      	ldr	r6, [pc, #776]	; (10003070 <tud_task+0x670>)
10002d68:	f000 fc4e 	bl	10003608 <usbd_control_set_complete_callback>
10002d6c:	4648      	mov	r0, r9
10002d6e:	68f3      	ldr	r3, [r6, #12]
10002d70:	a908      	add	r1, sp, #32
10002d72:	4798      	blx	r3
10002d74:	2800      	cmp	r0, #0
10002d76:	d100      	bne.n	10002d7a <tud_task+0x37a>
10002d78:	e122      	b.n	10002fc0 <tud_task+0x5c0>
10002d7a:	2260      	movs	r2, #96	; 0x60
10002d7c:	792b      	ldrb	r3, [r5, #4]
10002d7e:	421a      	tst	r2, r3
10002d80:	d000      	beq.n	10002d84 <tud_task+0x384>
10002d82:	e64e      	b.n	10002a22 <tud_task+0x22>
10002d84:	2000      	movs	r0, #0
10002d86:	f000 fc3f 	bl	10003608 <usbd_control_set_complete_callback>
10002d8a:	e64a      	b.n	10002a22 <tud_task+0x22>
10002d8c:	00da      	lsls	r2, r3, #3
10002d8e:	1ad3      	subs	r3, r2, r3
10002d90:	4ab8      	ldr	r2, [pc, #736]	; (10003074 <tud_task+0x674>)
10002d92:	009b      	lsls	r3, r3, #2
10002d94:	6812      	ldr	r2, [r2, #0]
10002d96:	18d3      	adds	r3, r2, r3
10002d98:	2b00      	cmp	r3, #0
10002d9a:	d100      	bne.n	10002d9e <tud_task+0x39e>
10002d9c:	e75f      	b.n	10002c5e <tud_task+0x25e>
10002d9e:	695c      	ldr	r4, [r3, #20]
10002da0:	e68c      	b.n	10002abc <tud_task+0xbc>
10002da2:	7a2b      	ldrb	r3, [r5, #8]
10002da4:	2b0f      	cmp	r3, #15
10002da6:	d900      	bls.n	10002daa <tud_task+0x3aa>
10002da8:	e6ac      	b.n	10002b04 <tud_task+0x104>
10002daa:	4aae      	ldr	r2, [pc, #696]	; (10003064 <tud_task+0x664>)
10002dac:	4443      	add	r3, r8
10002dae:	78db      	ldrb	r3, [r3, #3]
10002db0:	2a00      	cmp	r2, #0
10002db2:	d005      	beq.n	10002dc0 <tud_task+0x3c0>
10002db4:	4aac      	ldr	r2, [pc, #688]	; (10003068 <tud_task+0x668>)
10002db6:	7812      	ldrb	r2, [r2, #0]
10002db8:	4293      	cmp	r3, r2
10002dba:	d35e      	bcc.n	10002e7a <tud_task+0x47a>
10002dbc:	1a9b      	subs	r3, r3, r2
10002dbe:	b2db      	uxtb	r3, r3
10002dc0:	2b00      	cmp	r3, #0
10002dc2:	d000      	beq.n	10002dc6 <tud_task+0x3c6>
10002dc4:	e69e      	b.n	10002b04 <tud_task+0x104>
10002dc6:	48a9      	ldr	r0, [pc, #676]	; (1000306c <tud_task+0x66c>)
10002dc8:	4ca9      	ldr	r4, [pc, #676]	; (10003070 <tud_task+0x670>)
10002dca:	f000 fc1d 	bl	10003608 <usbd_control_set_complete_callback>
10002dce:	4648      	mov	r0, r9
10002dd0:	68e3      	ldr	r3, [r4, #12]
10002dd2:	a908      	add	r1, sp, #32
10002dd4:	4798      	blx	r3
10002dd6:	2800      	cmp	r0, #0
10002dd8:	d000      	beq.n	10002ddc <tud_task+0x3dc>
10002dda:	e622      	b.n	10002a22 <tud_task+0x22>
10002ddc:	2260      	movs	r2, #96	; 0x60
10002dde:	0011      	movs	r1, r2
10002de0:	792b      	ldrb	r3, [r5, #4]
10002de2:	4019      	ands	r1, r3
10002de4:	421a      	tst	r2, r3
10002de6:	d000      	beq.n	10002dea <tud_task+0x3ea>
10002de8:	e68c      	b.n	10002b04 <tud_task+0x104>
10002dea:	796b      	ldrb	r3, [r5, #5]
10002dec:	2b0a      	cmp	r3, #10
10002dee:	d000      	beq.n	10002df2 <tud_task+0x3f2>
10002df0:	e688      	b.n	10002b04 <tud_task+0x104>
10002df2:	ab06      	add	r3, sp, #24
10002df4:	1c9a      	adds	r2, r3, #2
10002df6:	7011      	strb	r1, [r2, #0]
10002df8:	2301      	movs	r3, #1
10002dfa:	4648      	mov	r0, r9
10002dfc:	a908      	add	r1, sp, #32
10002dfe:	f000 fb9d 	bl	1000353c <tud_control_xfer>
10002e02:	e60e      	b.n	10002a22 <tud_task+0x22>
10002e04:	7a2b      	ldrb	r3, [r5, #8]
10002e06:	2b0f      	cmp	r3, #15
10002e08:	d900      	bls.n	10002e0c <tud_task+0x40c>
10002e0a:	e67b      	b.n	10002b04 <tud_task+0x104>
10002e0c:	4a95      	ldr	r2, [pc, #596]	; (10003064 <tud_task+0x664>)
10002e0e:	4443      	add	r3, r8
10002e10:	78db      	ldrb	r3, [r3, #3]
10002e12:	2a00      	cmp	r2, #0
10002e14:	d006      	beq.n	10002e24 <tud_task+0x424>
10002e16:	4a94      	ldr	r2, [pc, #592]	; (10003068 <tud_task+0x668>)
10002e18:	7812      	ldrb	r2, [r2, #0]
10002e1a:	4293      	cmp	r3, r2
10002e1c:	d200      	bcs.n	10002e20 <tud_task+0x420>
10002e1e:	e102      	b.n	10003026 <tud_task+0x626>
10002e20:	1a9b      	subs	r3, r3, r2
10002e22:	b2db      	uxtb	r3, r3
10002e24:	2b00      	cmp	r3, #0
10002e26:	d000      	beq.n	10002e2a <tud_task+0x42a>
10002e28:	e66c      	b.n	10002b04 <tud_task+0x104>
10002e2a:	4890      	ldr	r0, [pc, #576]	; (1000306c <tud_task+0x66c>)
10002e2c:	4c90      	ldr	r4, [pc, #576]	; (10003070 <tud_task+0x670>)
10002e2e:	f000 fbeb 	bl	10003608 <usbd_control_set_complete_callback>
10002e32:	68e3      	ldr	r3, [r4, #12]
10002e34:	4648      	mov	r0, r9
10002e36:	a908      	add	r1, sp, #32
10002e38:	4798      	blx	r3
10002e3a:	0004      	movs	r4, r0
10002e3c:	e740      	b.n	10002cc0 <tud_task+0x2c0>
10002e3e:	796b      	ldrb	r3, [r5, #5]
10002e40:	9303      	str	r3, [sp, #12]
10002e42:	2b01      	cmp	r3, #1
10002e44:	d100      	bne.n	10002e48 <tud_task+0x448>
10002e46:	e0d8      	b.n	10002ffa <tud_task+0x5fa>
10002e48:	2b03      	cmp	r3, #3
10002e4a:	d100      	bne.n	10002e4e <tud_task+0x44e>
10002e4c:	e0cb      	b.n	10002fe6 <tud_task+0x5e6>
10002e4e:	2b00      	cmp	r3, #0
10002e50:	d000      	beq.n	10002e54 <tud_task+0x454>
10002e52:	e657      	b.n	10002b04 <tud_task+0x104>
10002e54:	0053      	lsls	r3, r2, #1
10002e56:	9a01      	ldr	r2, [sp, #4]
10002e58:	9302      	str	r3, [sp, #8]
10002e5a:	4694      	mov	ip, r2
10002e5c:	4443      	add	r3, r8
10002e5e:	4463      	add	r3, ip
10002e60:	3320      	adds	r3, #32
10002e62:	795b      	ldrb	r3, [r3, #5]
10002e64:	aa06      	add	r2, sp, #24
10002e66:	079b      	lsls	r3, r3, #30
10002e68:	0fdb      	lsrs	r3, r3, #31
10002e6a:	3202      	adds	r2, #2
10002e6c:	8013      	strh	r3, [r2, #0]
10002e6e:	4648      	mov	r0, r9
10002e70:	2302      	movs	r3, #2
10002e72:	a908      	add	r1, sp, #32
10002e74:	f000 fb62 	bl	1000353c <tud_control_xfer>
10002e78:	e761      	b.n	10002d3e <tud_task+0x33e>
10002e7a:	4a7e      	ldr	r2, [pc, #504]	; (10003074 <tud_task+0x674>)
10002e7c:	00dc      	lsls	r4, r3, #3
10002e7e:	1ae3      	subs	r3, r4, r3
10002e80:	6814      	ldr	r4, [r2, #0]
10002e82:	009b      	lsls	r3, r3, #2
10002e84:	18e4      	adds	r4, r4, r3
10002e86:	2c00      	cmp	r4, #0
10002e88:	d100      	bne.n	10002e8c <tud_task+0x48c>
10002e8a:	e63b      	b.n	10002b04 <tud_task+0x104>
10002e8c:	6920      	ldr	r0, [r4, #16]
10002e8e:	e79c      	b.n	10002dca <tud_task+0x3ca>
10002e90:	88eb      	ldrh	r3, [r5, #6]
10002e92:	2b01      	cmp	r3, #1
10002e94:	d000      	beq.n	10002e98 <tud_task+0x498>
10002e96:	e635      	b.n	10002b04 <tud_task+0x104>
10002e98:	4643      	mov	r3, r8
10002e9a:	2208      	movs	r2, #8
10002e9c:	781b      	ldrb	r3, [r3, #0]
10002e9e:	4393      	bics	r3, r2
10002ea0:	4642      	mov	r2, r8
10002ea2:	4648      	mov	r0, r9
10002ea4:	a908      	add	r1, sp, #32
10002ea6:	7013      	strb	r3, [r2, #0]
10002ea8:	f000 fb30 	bl	1000350c <tud_control_status>
10002eac:	e5b9      	b.n	10002a22 <tud_task+0x22>
10002eae:	4643      	mov	r3, r8
10002eb0:	2002      	movs	r0, #2
10002eb2:	7819      	ldrb	r1, [r3, #0]
10002eb4:	ab06      	add	r3, sp, #24
10002eb6:	1c9a      	adds	r2, r3, #2
10002eb8:	068b      	lsls	r3, r1, #26
10002eba:	0889      	lsrs	r1, r1, #2
10002ebc:	4001      	ands	r1, r0
10002ebe:	0fdb      	lsrs	r3, r3, #31
10002ec0:	430b      	orrs	r3, r1
10002ec2:	8013      	strh	r3, [r2, #0]
10002ec4:	4648      	mov	r0, r9
10002ec6:	2302      	movs	r3, #2
10002ec8:	a908      	add	r1, sp, #32
10002eca:	f000 fb37 	bl	1000353c <tud_control_xfer>
10002ece:	e5a8      	b.n	10002a22 <tud_task+0x22>
10002ed0:	4643      	mov	r3, r8
10002ed2:	79aa      	ldrb	r2, [r5, #6]
10002ed4:	9203      	str	r2, [sp, #12]
10002ed6:	785b      	ldrb	r3, [r3, #1]
10002ed8:	2b00      	cmp	r3, #0
10002eda:	d102      	bne.n	10002ee2 <tud_task+0x4e2>
10002edc:	2a00      	cmp	r2, #0
10002ede:	d000      	beq.n	10002ee2 <tud_task+0x4e2>
10002ee0:	e0d0      	b.n	10003084 <tud_task+0x684>
10002ee2:	4643      	mov	r3, r8
10002ee4:	9a03      	ldr	r2, [sp, #12]
10002ee6:	4648      	mov	r0, r9
10002ee8:	a908      	add	r1, sp, #32
10002eea:	705a      	strb	r2, [r3, #1]
10002eec:	f000 fb0e 	bl	1000350c <tud_control_status>
10002ef0:	e597      	b.n	10002a22 <tud_task+0x22>
10002ef2:	4643      	mov	r3, r8
10002ef4:	aa06      	add	r2, sp, #24
10002ef6:	785b      	ldrb	r3, [r3, #1]
10002ef8:	3202      	adds	r2, #2
10002efa:	7013      	strb	r3, [r2, #0]
10002efc:	4648      	mov	r0, r9
10002efe:	2301      	movs	r3, #1
10002f00:	a908      	add	r1, sp, #32
10002f02:	f000 fb1b 	bl	1000353c <tud_control_xfer>
10002f06:	e58c      	b.n	10002a22 <tud_task+0x22>
10002f08:	88eb      	ldrh	r3, [r5, #6]
10002f0a:	79a8      	ldrb	r0, [r5, #6]
10002f0c:	0a1b      	lsrs	r3, r3, #8
10002f0e:	2b0f      	cmp	r3, #15
10002f10:	d900      	bls.n	10002f14 <tud_task+0x514>
10002f12:	e5f7      	b.n	10002b04 <tud_task+0x104>
10002f14:	4a58      	ldr	r2, [pc, #352]	; (10003078 <tud_task+0x678>)
10002f16:	009b      	lsls	r3, r3, #2
10002f18:	58d3      	ldr	r3, [r2, r3]
10002f1a:	469f      	mov	pc, r3
10002f1c:	a808      	add	r0, sp, #32
10002f1e:	f000 fb79 	bl	10003614 <usbd_control_set_request>
10002f22:	4648      	mov	r0, r9
10002f24:	79a9      	ldrb	r1, [r5, #6]
10002f26:	f7ff fa23 	bl	10002370 <dcd_set_address>
10002f2a:	4643      	mov	r3, r8
10002f2c:	2202      	movs	r2, #2
10002f2e:	781b      	ldrb	r3, [r3, #0]
10002f30:	4313      	orrs	r3, r2
10002f32:	4642      	mov	r2, r8
10002f34:	7013      	strb	r3, [r2, #0]
10002f36:	e574      	b.n	10002a22 <tud_task+0x22>
10002f38:	88eb      	ldrh	r3, [r5, #6]
10002f3a:	2b01      	cmp	r3, #1
10002f3c:	d000      	beq.n	10002f40 <tud_task+0x540>
10002f3e:	e5e1      	b.n	10002b04 <tud_task+0x104>
10002f40:	4643      	mov	r3, r8
10002f42:	2208      	movs	r2, #8
10002f44:	781b      	ldrb	r3, [r3, #0]
10002f46:	4313      	orrs	r3, r2
10002f48:	e7aa      	b.n	10002ea0 <tud_task+0x4a0>
10002f4a:	4b4c      	ldr	r3, [pc, #304]	; (1000307c <tud_task+0x67c>)
10002f4c:	2b00      	cmp	r3, #0
10002f4e:	d100      	bne.n	10002f52 <tud_task+0x552>
10002f50:	e5d8      	b.n	10002b04 <tud_task+0x104>
10002f52:	e000      	b.n	10002f56 <tud_task+0x556>
10002f54:	bf00      	nop
10002f56:	0004      	movs	r4, r0
10002f58:	ab06      	add	r3, sp, #24
10002f5a:	1c9e      	adds	r6, r3, #2
10002f5c:	2202      	movs	r2, #2
10002f5e:	1ca1      	adds	r1, r4, #2
10002f60:	0030      	movs	r0, r6
10002f62:	f003 fc6b 	bl	1000683c <__wrap___aeabi_memcpy>
10002f66:	0022      	movs	r2, r4
10002f68:	4648      	mov	r0, r9
10002f6a:	8833      	ldrh	r3, [r6, #0]
10002f6c:	a908      	add	r1, sp, #32
10002f6e:	f000 fae5 	bl	1000353c <tud_control_xfer>
10002f72:	2800      	cmp	r0, #0
10002f74:	d000      	beq.n	10002f78 <tud_task+0x578>
10002f76:	e554      	b.n	10002a22 <tud_task+0x22>
10002f78:	e5c4      	b.n	10002b04 <tud_task+0x104>
10002f7a:	4b41      	ldr	r3, [pc, #260]	; (10003080 <tud_task+0x680>)
10002f7c:	2b00      	cmp	r3, #0
10002f7e:	d100      	bne.n	10002f82 <tud_task+0x582>
10002f80:	e5c0      	b.n	10002b04 <tud_task+0x104>
10002f82:	e000      	b.n	10002f86 <tud_task+0x586>
10002f84:	bf00      	nop
10002f86:	1e02      	subs	r2, r0, #0
10002f88:	d100      	bne.n	10002f8c <tud_task+0x58c>
10002f8a:	e5bb      	b.n	10002b04 <tud_task+0x104>
10002f8c:	4648      	mov	r0, r9
10002f8e:	7813      	ldrb	r3, [r2, #0]
10002f90:	a908      	add	r1, sp, #32
10002f92:	f000 fad3 	bl	1000353c <tud_control_xfer>
10002f96:	e7ec      	b.n	10002f72 <tud_task+0x572>
10002f98:	8929      	ldrh	r1, [r5, #8]
10002f9a:	f7ff f91d 	bl	100021d8 <tud_descriptor_string_cb>
10002f9e:	1e02      	subs	r2, r0, #0
10002fa0:	d1f4      	bne.n	10002f8c <tud_task+0x58c>
10002fa2:	e5af      	b.n	10002b04 <tud_task+0x104>
10002fa4:	f7ff f914 	bl	100021d0 <tud_descriptor_configuration_cb>
10002fa8:	1e04      	subs	r4, r0, #0
10002faa:	d1d5      	bne.n	10002f58 <tud_task+0x558>
10002fac:	e5aa      	b.n	10002b04 <tud_task+0x104>
10002fae:	f7ff f90b 	bl	100021c8 <tud_descriptor_device_cb>
10002fb2:	2312      	movs	r3, #18
10002fb4:	0002      	movs	r2, r0
10002fb6:	a908      	add	r1, sp, #32
10002fb8:	4648      	mov	r0, r9
10002fba:	f000 fabf 	bl	1000353c <tud_control_xfer>
10002fbe:	e7d8      	b.n	10002f72 <tud_task+0x572>
10002fc0:	2260      	movs	r2, #96	; 0x60
10002fc2:	792b      	ldrb	r3, [r5, #4]
10002fc4:	421a      	tst	r2, r3
10002fc6:	d000      	beq.n	10002fca <tud_task+0x5ca>
10002fc8:	e67a      	b.n	10002cc0 <tud_task+0x2c0>
10002fca:	2000      	movs	r0, #0
10002fcc:	f000 fb1c 	bl	10003608 <usbd_control_set_complete_callback>
10002fd0:	e676      	b.n	10002cc0 <tud_task+0x2c0>
10002fd2:	4a28      	ldr	r2, [pc, #160]	; (10003074 <tud_task+0x674>)
10002fd4:	00de      	lsls	r6, r3, #3
10002fd6:	1af3      	subs	r3, r6, r3
10002fd8:	6816      	ldr	r6, [r2, #0]
10002fda:	009b      	lsls	r3, r3, #2
10002fdc:	18f6      	adds	r6, r6, r3
10002fde:	2e00      	cmp	r6, #0
10002fe0:	d0ee      	beq.n	10002fc0 <tud_task+0x5c0>
10002fe2:	6930      	ldr	r0, [r6, #16]
10002fe4:	e6c0      	b.n	10002d68 <tud_task+0x368>
10002fe6:	88eb      	ldrh	r3, [r5, #6]
10002fe8:	2b00      	cmp	r3, #0
10002fea:	d027      	beq.n	1000303c <tud_task+0x63c>
10002fec:	0053      	lsls	r3, r2, #1
10002fee:	9302      	str	r3, [sp, #8]
10002ff0:	4648      	mov	r0, r9
10002ff2:	a908      	add	r1, sp, #32
10002ff4:	f000 fa8a 	bl	1000350c <tud_control_status>
10002ff8:	e6a1      	b.n	10002d3e <tud_task+0x33e>
10002ffa:	88eb      	ldrh	r3, [r5, #6]
10002ffc:	2b00      	cmp	r3, #0
10002ffe:	d1f5      	bne.n	10002fec <tud_task+0x5ec>
10003000:	4648      	mov	r0, r9
10003002:	f7ff fb2b 	bl	1000265c <dcd_edpt_clear_stall>
10003006:	9a01      	ldr	r2, [sp, #4]
10003008:	9b02      	ldr	r3, [sp, #8]
1000300a:	4694      	mov	ip, r2
1000300c:	005b      	lsls	r3, r3, #1
1000300e:	9302      	str	r3, [sp, #8]
10003010:	4443      	add	r3, r8
10003012:	4463      	add	r3, ip
10003014:	3320      	adds	r3, #32
10003016:	795a      	ldrb	r2, [r3, #5]
10003018:	9903      	ldr	r1, [sp, #12]
1000301a:	43b2      	bics	r2, r6
1000301c:	715a      	strb	r2, [r3, #5]
1000301e:	795a      	ldrb	r2, [r3, #5]
10003020:	438a      	bics	r2, r1
10003022:	715a      	strb	r2, [r3, #5]
10003024:	e7e4      	b.n	10002ff0 <tud_task+0x5f0>
10003026:	4a13      	ldr	r2, [pc, #76]	; (10003074 <tud_task+0x674>)
10003028:	00dc      	lsls	r4, r3, #3
1000302a:	1ae3      	subs	r3, r4, r3
1000302c:	6814      	ldr	r4, [r2, #0]
1000302e:	009b      	lsls	r3, r3, #2
10003030:	18e4      	adds	r4, r4, r3
10003032:	2c00      	cmp	r4, #0
10003034:	d100      	bne.n	10003038 <tud_task+0x638>
10003036:	e565      	b.n	10002b04 <tud_task+0x104>
10003038:	6920      	ldr	r0, [r4, #16]
1000303a:	e6f8      	b.n	10002e2e <tud_task+0x42e>
1000303c:	4648      	mov	r0, r9
1000303e:	f7ff fae5 	bl	1000260c <dcd_edpt_stall>
10003042:	9a01      	ldr	r2, [sp, #4]
10003044:	2102      	movs	r1, #2
10003046:	4694      	mov	ip, r2
10003048:	9b02      	ldr	r3, [sp, #8]
1000304a:	005b      	lsls	r3, r3, #1
1000304c:	9302      	str	r3, [sp, #8]
1000304e:	4443      	add	r3, r8
10003050:	4463      	add	r3, ip
10003052:	3320      	adds	r3, #32
10003054:	795a      	ldrb	r2, [r3, #5]
10003056:	430a      	orrs	r2, r1
10003058:	715a      	strb	r2, [r3, #5]
1000305a:	795a      	ldrb	r2, [r3, #5]
1000305c:	4317      	orrs	r7, r2
1000305e:	715f      	strb	r7, [r3, #5]
10003060:	e7c6      	b.n	10002ff0 <tud_task+0x5f0>
10003062:	46c0      	nop			; (mov r8, r8)
10003064:	00000000 	.word	0x00000000
10003068:	20001d8d 	.word	0x20001d8d
1000306c:	10003a65 	.word	0x10003a65
10003070:	10008a58 	.word	0x10008a58
10003074:	200012ec 	.word	0x200012ec
10003078:	10008a18 	.word	0x10008a18
	...
10003084:	1e50      	subs	r0, r2, #1
10003086:	b2c0      	uxtb	r0, r0
10003088:	f7ff f8a2 	bl	100021d0 <tud_descriptor_configuration_cb>
1000308c:	2800      	cmp	r0, #0
1000308e:	d100      	bne.n	10003092 <tud_task+0x692>
10003090:	e538      	b.n	10002b04 <tud_task+0x104>
10003092:	7843      	ldrb	r3, [r0, #1]
10003094:	2b02      	cmp	r3, #2
10003096:	d000      	beq.n	1000309a <tud_task+0x69a>
10003098:	e534      	b.n	10002b04 <tud_task+0x104>
1000309a:	2101      	movs	r1, #1
1000309c:	79c2      	ldrb	r2, [r0, #7]
1000309e:	0006      	movs	r6, r0
100030a0:	1193      	asrs	r3, r2, #6
100030a2:	1152      	asrs	r2, r2, #5
100030a4:	400b      	ands	r3, r1
100030a6:	400a      	ands	r2, r1
100030a8:	0112      	lsls	r2, r2, #4
100030aa:	015b      	lsls	r3, r3, #5
100030ac:	4313      	orrs	r3, r2
100030ae:	4642      	mov	r2, r8
100030b0:	7812      	ldrb	r2, [r2, #0]
100030b2:	312f      	adds	r1, #47	; 0x2f
100030b4:	438a      	bics	r2, r1
100030b6:	4313      	orrs	r3, r2
100030b8:	4642      	mov	r2, r8
100030ba:	7013      	strb	r3, [r2, #0]
100030bc:	78c3      	ldrb	r3, [r0, #3]
100030be:	7882      	ldrb	r2, [r0, #2]
100030c0:	021b      	lsls	r3, r3, #8
100030c2:	4313      	orrs	r3, r2
100030c4:	18c3      	adds	r3, r0, r3
100030c6:	3609      	adds	r6, #9
100030c8:	9304      	str	r3, [sp, #16]
100030ca:	9b04      	ldr	r3, [sp, #16]
100030cc:	42b3      	cmp	r3, r6
100030ce:	d800      	bhi.n	100030d2 <tud_task+0x6d2>
100030d0:	e088      	b.n	100031e4 <tud_task+0x7e4>
100030d2:	2300      	movs	r3, #0
100030d4:	7872      	ldrb	r2, [r6, #1]
100030d6:	9302      	str	r3, [sp, #8]
100030d8:	2a0b      	cmp	r2, #11
100030da:	d104      	bne.n	100030e6 <tud_task+0x6e6>
100030dc:	7833      	ldrb	r3, [r6, #0]
100030de:	9602      	str	r6, [sp, #8]
100030e0:	18f3      	adds	r3, r6, r3
100030e2:	001e      	movs	r6, r3
100030e4:	785a      	ldrb	r2, [r3, #1]
100030e6:	2a04      	cmp	r2, #4
100030e8:	d000      	beq.n	100030ec <tud_task+0x6ec>
100030ea:	e50b      	b.n	10002b04 <tud_task+0x104>
100030ec:	9b04      	ldr	r3, [sp, #16]
100030ee:	4a42      	ldr	r2, [pc, #264]	; (100031f8 <tud_task+0x7f8>)
100030f0:	1b9b      	subs	r3, r3, r6
100030f2:	b29b      	uxth	r3, r3
100030f4:	9301      	str	r3, [sp, #4]
100030f6:	4b41      	ldr	r3, [pc, #260]	; (100031fc <tud_task+0x7fc>)
100030f8:	2400      	movs	r4, #0
100030fa:	781b      	ldrb	r3, [r3, #0]
100030fc:	2a00      	cmp	r2, #0
100030fe:	d110      	bne.n	10003122 <tud_task+0x722>
10003100:	e01c      	b.n	1000313c <tud_task+0x73c>
10003102:	429c      	cmp	r4, r3
10003104:	d126      	bne.n	10003154 <tud_task+0x754>
10003106:	4b3e      	ldr	r3, [pc, #248]	; (10003200 <tud_task+0x800>)
10003108:	0031      	movs	r1, r6
1000310a:	4648      	mov	r0, r9
1000310c:	9a01      	ldr	r2, [sp, #4]
1000310e:	4798      	blx	r3
10003110:	2800      	cmp	r0, #0
10003112:	d122      	bne.n	1000315a <tud_task+0x75a>
10003114:	4b39      	ldr	r3, [pc, #228]	; (100031fc <tud_task+0x7fc>)
10003116:	3401      	adds	r4, #1
10003118:	781b      	ldrb	r3, [r3, #0]
1000311a:	b2e4      	uxtb	r4, r4
1000311c:	42a3      	cmp	r3, r4
1000311e:	d200      	bcs.n	10003122 <tud_task+0x722>
10003120:	e4f0      	b.n	10002b04 <tud_task+0x104>
10003122:	429c      	cmp	r4, r3
10003124:	d2ed      	bcs.n	10003102 <tud_task+0x702>
10003126:	4b37      	ldr	r3, [pc, #220]	; (10003204 <tud_task+0x804>)
10003128:	681b      	ldr	r3, [r3, #0]
1000312a:	9305      	str	r3, [sp, #20]
1000312c:	9a05      	ldr	r2, [sp, #20]
1000312e:	00e3      	lsls	r3, r4, #3
10003130:	4694      	mov	ip, r2
10003132:	1b1b      	subs	r3, r3, r4
10003134:	009b      	lsls	r3, r3, #2
10003136:	4463      	add	r3, ip
10003138:	689b      	ldr	r3, [r3, #8]
1000313a:	e7e5      	b.n	10003108 <tud_task+0x708>
1000313c:	0031      	movs	r1, r6
1000313e:	4648      	mov	r0, r9
10003140:	9a01      	ldr	r2, [sp, #4]
10003142:	f000 fc19 	bl	10003978 <cdcd_open>
10003146:	1e07      	subs	r7, r0, #0
10003148:	d153      	bne.n	100031f2 <tud_task+0x7f2>
1000314a:	4b2c      	ldr	r3, [pc, #176]	; (100031fc <tud_task+0x7fc>)
1000314c:	781b      	ldrb	r3, [r3, #0]
1000314e:	2b00      	cmp	r3, #0
10003150:	d100      	bne.n	10003154 <tud_task+0x754>
10003152:	e4d7      	b.n	10002b04 <tud_task+0x104>
10003154:	2300      	movs	r3, #0
10003156:	689b      	ldr	r3, [r3, #8]
10003158:	deff      	udf	#255	; 0xff
1000315a:	0007      	movs	r7, r0
1000315c:	2f08      	cmp	r7, #8
1000315e:	d800      	bhi.n	10003162 <tud_task+0x762>
10003160:	e4d0      	b.n	10002b04 <tud_task+0x104>
10003162:	9b01      	ldr	r3, [sp, #4]
10003164:	42bb      	cmp	r3, r7
10003166:	d200      	bcs.n	1000316a <tud_task+0x76a>
10003168:	e4cc      	b.n	10002b04 <tud_task+0x104>
1000316a:	4642      	mov	r2, r8
1000316c:	78b3      	ldrb	r3, [r6, #2]
1000316e:	18d2      	adds	r2, r2, r3
10003170:	78d1      	ldrb	r1, [r2, #3]
10003172:	29ff      	cmp	r1, #255	; 0xff
10003174:	d000      	beq.n	10003178 <tud_task+0x778>
10003176:	e4c5      	b.n	10002b04 <tud_task+0x104>
10003178:	70d4      	strb	r4, [r2, #3]
1000317a:	9a02      	ldr	r2, [sp, #8]
1000317c:	2a00      	cmp	r2, #0
1000317e:	d015      	beq.n	100031ac <tud_task+0x7ac>
10003180:	7891      	ldrb	r1, [r2, #2]
10003182:	0010      	movs	r0, r2
10003184:	4299      	cmp	r1, r3
10003186:	d000      	beq.n	1000318a <tud_task+0x78a>
10003188:	e4bc      	b.n	10002b04 <tud_task+0x104>
1000318a:	7912      	ldrb	r2, [r2, #4]
1000318c:	7973      	ldrb	r3, [r6, #5]
1000318e:	429a      	cmp	r2, r3
10003190:	d000      	beq.n	10003194 <tud_task+0x794>
10003192:	e4b7      	b.n	10002b04 <tud_task+0x104>
10003194:	78c2      	ldrb	r2, [r0, #3]
10003196:	2a01      	cmp	r2, #1
10003198:	d908      	bls.n	100031ac <tud_task+0x7ac>
1000319a:	3a02      	subs	r2, #2
1000319c:	3104      	adds	r1, #4
1000319e:	4441      	add	r1, r8
100031a0:	b2d2      	uxtb	r2, r2
100031a2:	0008      	movs	r0, r1
100031a4:	3201      	adds	r2, #1
100031a6:	0021      	movs	r1, r4
100031a8:	f003 fb42 	bl	10006830 <__wrap_memset>
100031ac:	217f      	movs	r1, #127	; 0x7f
100031ae:	0032      	movs	r2, r6
100031b0:	2300      	movs	r3, #0
100031b2:	468c      	mov	ip, r1
100031b4:	7851      	ldrb	r1, [r2, #1]
100031b6:	2905      	cmp	r1, #5
100031b8:	d107      	bne.n	100031ca <tud_task+0x7ca>
100031ba:	4661      	mov	r1, ip
100031bc:	7890      	ldrb	r0, [r2, #2]
100031be:	4001      	ands	r1, r0
100031c0:	0049      	lsls	r1, r1, #1
100031c2:	4441      	add	r1, r8
100031c4:	3113      	adds	r1, #19
100031c6:	09c0      	lsrs	r0, r0, #7
100031c8:	540c      	strb	r4, [r1, r0]
100031ca:	7811      	ldrb	r1, [r2, #0]
100031cc:	185b      	adds	r3, r3, r1
100031ce:	b29b      	uxth	r3, r3
100031d0:	1852      	adds	r2, r2, r1
100031d2:	42bb      	cmp	r3, r7
100031d4:	d3ee      	bcc.n	100031b4 <tud_task+0x7b4>
100031d6:	4b09      	ldr	r3, [pc, #36]	; (100031fc <tud_task+0x7fc>)
100031d8:	19f6      	adds	r6, r6, r7
100031da:	781b      	ldrb	r3, [r3, #0]
100031dc:	42a3      	cmp	r3, r4
100031de:	d300      	bcc.n	100031e2 <tud_task+0x7e2>
100031e0:	e773      	b.n	100030ca <tud_task+0x6ca>
100031e2:	e48f      	b.n	10002b04 <tud_task+0x104>
100031e4:	4b08      	ldr	r3, [pc, #32]	; (10003208 <tud_task+0x808>)
100031e6:	2b00      	cmp	r3, #0
100031e8:	d100      	bne.n	100031ec <tud_task+0x7ec>
100031ea:	e67a      	b.n	10002ee2 <tud_task+0x4e2>
100031ec:	e000      	b.n	100031f0 <tud_task+0x7f0>
100031ee:	bf00      	nop
100031f0:	e677      	b.n	10002ee2 <tud_task+0x4e2>
100031f2:	4c01      	ldr	r4, [pc, #4]	; (100031f8 <tud_task+0x7f8>)
100031f4:	e7b2      	b.n	1000315c <tud_task+0x75c>
100031f6:	46c0      	nop			; (mov r8, r8)
100031f8:	00000000 	.word	0x00000000
100031fc:	20001d8d 	.word	0x20001d8d
10003200:	10003979 	.word	0x10003979
10003204:	200012ec 	.word	0x200012ec
10003208:	00000000 	.word	0x00000000

1000320c <dcd_event_bus_signal>:
1000320c:	b530      	push	{r4, r5, lr}
1000320e:	b085      	sub	sp, #20
10003210:	0005      	movs	r5, r0
10003212:	000c      	movs	r4, r1
10003214:	220c      	movs	r2, #12
10003216:	2100      	movs	r1, #0
10003218:	a801      	add	r0, sp, #4
1000321a:	f003 fb09 	bl	10006830 <__wrap_memset>
1000321e:	466b      	mov	r3, sp
10003220:	711d      	strb	r5, [r3, #4]
10003222:	715c      	strb	r4, [r3, #5]
10003224:	2c04      	cmp	r4, #4
10003226:	d04b      	beq.n	100032c0 <dcd_event_bus_signal+0xb4>
10003228:	d805      	bhi.n	10003236 <dcd_event_bus_signal+0x2a>
1000322a:	2c02      	cmp	r4, #2
1000322c:	d030      	beq.n	10003290 <dcd_event_bus_signal+0x84>
1000322e:	2c03      	cmp	r4, #3
10003230:	d124      	bne.n	1000327c <dcd_event_bus_signal+0x70>
10003232:	b005      	add	sp, #20
10003234:	bd30      	pop	{r4, r5, pc}
10003236:	2c05      	cmp	r4, #5
10003238:	d120      	bne.n	1000327c <dcd_event_bus_signal+0x70>
1000323a:	4b2a      	ldr	r3, [pc, #168]	; (100032e4 <dcd_event_bus_signal+0xd8>)
1000323c:	781a      	ldrb	r2, [r3, #0]
1000323e:	07d2      	lsls	r2, r2, #31
10003240:	d5f7      	bpl.n	10003232 <dcd_event_bus_signal+0x26>
10003242:	2104      	movs	r1, #4
10003244:	781a      	ldrb	r2, [r3, #0]
10003246:	438a      	bics	r2, r1
10003248:	701a      	strb	r2, [r3, #0]
1000324a:	4b27      	ldr	r3, [pc, #156]	; (100032e8 <dcd_event_bus_signal+0xdc>)
1000324c:	681c      	ldr	r4, [r3, #0]
1000324e:	69a2      	ldr	r2, [r4, #24]
10003250:	f3ef 8110 	mrs	r1, PRIMASK
10003254:	b672      	cpsid	i
10003256:	6813      	ldr	r3, [r2, #0]
10003258:	2b00      	cmp	r3, #0
1000325a:	d0fc      	beq.n	10003256 <dcd_event_bus_signal+0x4a>
1000325c:	f3bf 8f5f 	dmb	sy
10003260:	61e1      	str	r1, [r4, #28]
10003262:	0020      	movs	r0, r4
10003264:	a901      	add	r1, sp, #4
10003266:	f000 fe65 	bl	10003f34 <tu_fifo_write>
1000326a:	69a2      	ldr	r2, [r4, #24]
1000326c:	69e3      	ldr	r3, [r4, #28]
1000326e:	f3bf 8f5f 	dmb	sy
10003272:	2100      	movs	r1, #0
10003274:	6011      	str	r1, [r2, #0]
10003276:	f383 8810 	msr	PRIMASK, r3
1000327a:	e7da      	b.n	10003232 <dcd_event_bus_signal+0x26>
1000327c:	4b1a      	ldr	r3, [pc, #104]	; (100032e8 <dcd_event_bus_signal+0xdc>)
1000327e:	681c      	ldr	r4, [r3, #0]
10003280:	69a2      	ldr	r2, [r4, #24]
10003282:	f3ef 8110 	mrs	r1, PRIMASK
10003286:	b672      	cpsid	i
10003288:	6813      	ldr	r3, [r2, #0]
1000328a:	2b00      	cmp	r3, #0
1000328c:	d1e6      	bne.n	1000325c <dcd_event_bus_signal+0x50>
1000328e:	e7fb      	b.n	10003288 <dcd_event_bus_signal+0x7c>
10003290:	2101      	movs	r1, #1
10003292:	4b14      	ldr	r3, [pc, #80]	; (100032e4 <dcd_event_bus_signal+0xd8>)
10003294:	781a      	ldrb	r2, [r3, #0]
10003296:	438a      	bics	r2, r1
10003298:	701a      	strb	r2, [r3, #0]
1000329a:	781a      	ldrb	r2, [r3, #0]
1000329c:	3103      	adds	r1, #3
1000329e:	43a2      	bics	r2, r4
100032a0:	701a      	strb	r2, [r3, #0]
100032a2:	2200      	movs	r2, #0
100032a4:	705a      	strb	r2, [r3, #1]
100032a6:	781a      	ldrb	r2, [r3, #0]
100032a8:	438a      	bics	r2, r1
100032aa:	701a      	strb	r2, [r3, #0]
100032ac:	4b0e      	ldr	r3, [pc, #56]	; (100032e8 <dcd_event_bus_signal+0xdc>)
100032ae:	681c      	ldr	r4, [r3, #0]
100032b0:	69a2      	ldr	r2, [r4, #24]
100032b2:	f3ef 8110 	mrs	r1, PRIMASK
100032b6:	b672      	cpsid	i
100032b8:	6813      	ldr	r3, [r2, #0]
100032ba:	2b00      	cmp	r3, #0
100032bc:	d1ce      	bne.n	1000325c <dcd_event_bus_signal+0x50>
100032be:	e7fb      	b.n	100032b8 <dcd_event_bus_signal+0xac>
100032c0:	4b08      	ldr	r3, [pc, #32]	; (100032e4 <dcd_event_bus_signal+0xd8>)
100032c2:	781a      	ldrb	r2, [r3, #0]
100032c4:	07d2      	lsls	r2, r2, #31
100032c6:	d5b4      	bpl.n	10003232 <dcd_event_bus_signal+0x26>
100032c8:	2104      	movs	r1, #4
100032ca:	781a      	ldrb	r2, [r3, #0]
100032cc:	430a      	orrs	r2, r1
100032ce:	701a      	strb	r2, [r3, #0]
100032d0:	4b05      	ldr	r3, [pc, #20]	; (100032e8 <dcd_event_bus_signal+0xdc>)
100032d2:	681c      	ldr	r4, [r3, #0]
100032d4:	69a2      	ldr	r2, [r4, #24]
100032d6:	f3ef 8110 	mrs	r1, PRIMASK
100032da:	b672      	cpsid	i
100032dc:	6813      	ldr	r3, [r2, #0]
100032de:	2b00      	cmp	r3, #0
100032e0:	d1bc      	bne.n	1000325c <dcd_event_bus_signal+0x50>
100032e2:	e7fb      	b.n	100032dc <dcd_event_bus_signal+0xd0>
100032e4:	2000161c 	.word	0x2000161c
100032e8:	20001658 	.word	0x20001658

100032ec <dcd_event_setup_received>:
100032ec:	2300      	movs	r3, #0
100032ee:	b530      	push	{r4, r5, lr}
100032f0:	b085      	sub	sp, #20
100032f2:	ad01      	add	r5, sp, #4
100032f4:	806b      	strh	r3, [r5, #2]
100032f6:	7028      	strb	r0, [r5, #0]
100032f8:	3306      	adds	r3, #6
100032fa:	2208      	movs	r2, #8
100032fc:	a802      	add	r0, sp, #8
100032fe:	706b      	strb	r3, [r5, #1]
10003300:	f003 fa9c 	bl	1000683c <__wrap___aeabi_memcpy>
10003304:	4b0c      	ldr	r3, [pc, #48]	; (10003338 <dcd_event_setup_received+0x4c>)
10003306:	681c      	ldr	r4, [r3, #0]
10003308:	69a2      	ldr	r2, [r4, #24]
1000330a:	f3ef 8310 	mrs	r3, PRIMASK
1000330e:	b672      	cpsid	i
10003310:	6811      	ldr	r1, [r2, #0]
10003312:	2900      	cmp	r1, #0
10003314:	d0fc      	beq.n	10003310 <dcd_event_setup_received+0x24>
10003316:	f3bf 8f5f 	dmb	sy
1000331a:	61e3      	str	r3, [r4, #28]
1000331c:	0029      	movs	r1, r5
1000331e:	0020      	movs	r0, r4
10003320:	f000 fe08 	bl	10003f34 <tu_fifo_write>
10003324:	69a2      	ldr	r2, [r4, #24]
10003326:	69e3      	ldr	r3, [r4, #28]
10003328:	f3bf 8f5f 	dmb	sy
1000332c:	2100      	movs	r1, #0
1000332e:	6011      	str	r1, [r2, #0]
10003330:	f383 8810 	msr	PRIMASK, r3
10003334:	b005      	add	sp, #20
10003336:	bd30      	pop	{r4, r5, pc}
10003338:	20001658 	.word	0x20001658

1000333c <dcd_event_xfer_complete>:
1000333c:	b5f0      	push	{r4, r5, r6, r7, lr}
1000333e:	46c6      	mov	lr, r8
10003340:	4680      	mov	r8, r0
10003342:	b500      	push	{lr}
10003344:	b084      	sub	sp, #16
10003346:	ac01      	add	r4, sp, #4
10003348:	000f      	movs	r7, r1
1000334a:	0016      	movs	r6, r2
1000334c:	2100      	movs	r1, #0
1000334e:	2208      	movs	r2, #8
10003350:	0020      	movs	r0, r4
10003352:	001d      	movs	r5, r3
10003354:	f003 fa6c 	bl	10006830 <__wrap_memset>
10003358:	4643      	mov	r3, r8
1000335a:	7023      	strb	r3, [r4, #0]
1000335c:	2307      	movs	r3, #7
1000335e:	7063      	strb	r3, [r4, #1]
10003360:	4b0f      	ldr	r3, [pc, #60]	; (100033a0 <dcd_event_xfer_complete+0x64>)
10003362:	7165      	strb	r5, [r4, #5]
10003364:	681d      	ldr	r5, [r3, #0]
10003366:	7127      	strb	r7, [r4, #4]
10003368:	60a6      	str	r6, [r4, #8]
1000336a:	69aa      	ldr	r2, [r5, #24]
1000336c:	f3ef 8310 	mrs	r3, PRIMASK
10003370:	b672      	cpsid	i
10003372:	6811      	ldr	r1, [r2, #0]
10003374:	2900      	cmp	r1, #0
10003376:	d0fc      	beq.n	10003372 <dcd_event_xfer_complete+0x36>
10003378:	f3bf 8f5f 	dmb	sy
1000337c:	61eb      	str	r3, [r5, #28]
1000337e:	0021      	movs	r1, r4
10003380:	0028      	movs	r0, r5
10003382:	f000 fdd7 	bl	10003f34 <tu_fifo_write>
10003386:	69aa      	ldr	r2, [r5, #24]
10003388:	69eb      	ldr	r3, [r5, #28]
1000338a:	f3bf 8f5f 	dmb	sy
1000338e:	2100      	movs	r1, #0
10003390:	6011      	str	r1, [r2, #0]
10003392:	f383 8810 	msr	PRIMASK, r3
10003396:	b004      	add	sp, #16
10003398:	bc04      	pop	{r2}
1000339a:	4690      	mov	r8, r2
1000339c:	bdf0      	pop	{r4, r5, r6, r7, pc}
1000339e:	46c0      	nop			; (mov r8, r8)
100033a0:	20001658 	.word	0x20001658

100033a4 <usbd_open_edpt_pair>:
100033a4:	b5f8      	push	{r3, r4, r5, r6, r7, lr}
100033a6:	4647      	mov	r7, r8
100033a8:	46d6      	mov	lr, sl
100033aa:	b580      	push	{r7, lr}
100033ac:	4698      	mov	r8, r3
100033ae:	9b08      	ldr	r3, [sp, #32]
100033b0:	0006      	movs	r6, r0
100033b2:	000c      	movs	r4, r1
100033b4:	1e17      	subs	r7, r2, #0
100033b6:	469a      	mov	sl, r3
100033b8:	d021      	beq.n	100033fe <usbd_open_edpt_pair+0x5a>
100033ba:	2500      	movs	r5, #0
100033bc:	e006      	b.n	100033cc <usbd_open_edpt_pair+0x28>
100033be:	4652      	mov	r2, sl
100033c0:	7013      	strb	r3, [r2, #0]
100033c2:	7823      	ldrb	r3, [r4, #0]
100033c4:	3501      	adds	r5, #1
100033c6:	18e4      	adds	r4, r4, r3
100033c8:	42bd      	cmp	r5, r7
100033ca:	da18      	bge.n	100033fe <usbd_open_edpt_pair+0x5a>
100033cc:	7863      	ldrb	r3, [r4, #1]
100033ce:	2b05      	cmp	r3, #5
100033d0:	d117      	bne.n	10003402 <usbd_open_edpt_pair+0x5e>
100033d2:	78e1      	ldrb	r1, [r4, #3]
100033d4:	0789      	lsls	r1, r1, #30
100033d6:	0f89      	lsrs	r1, r1, #30
100033d8:	4541      	cmp	r1, r8
100033da:	d112      	bne.n	10003402 <usbd_open_edpt_pair+0x5e>
100033dc:	0021      	movs	r1, r4
100033de:	0030      	movs	r0, r6
100033e0:	f7ff f85a 	bl	10002498 <dcd_edpt_open>
100033e4:	2800      	cmp	r0, #0
100033e6:	d00c      	beq.n	10003402 <usbd_open_edpt_pair+0x5e>
100033e8:	78a3      	ldrb	r3, [r4, #2]
100033ea:	09da      	lsrs	r2, r3, #7
100033ec:	2a01      	cmp	r2, #1
100033ee:	d1e6      	bne.n	100033be <usbd_open_edpt_pair+0x1a>
100033f0:	9a09      	ldr	r2, [sp, #36]	; 0x24
100033f2:	3501      	adds	r5, #1
100033f4:	7013      	strb	r3, [r2, #0]
100033f6:	7823      	ldrb	r3, [r4, #0]
100033f8:	18e4      	adds	r4, r4, r3
100033fa:	42bd      	cmp	r5, r7
100033fc:	dbe6      	blt.n	100033cc <usbd_open_edpt_pair+0x28>
100033fe:	2001      	movs	r0, #1
10003400:	e000      	b.n	10003404 <usbd_open_edpt_pair+0x60>
10003402:	2000      	movs	r0, #0
10003404:	bc0c      	pop	{r2, r3}
10003406:	4690      	mov	r8, r2
10003408:	469a      	mov	sl, r3
1000340a:	bdf8      	pop	{r3, r4, r5, r6, r7, pc}

1000340c <usbd_edpt_open>:
1000340c:	b510      	push	{r4, lr}
1000340e:	f7ff f843 	bl	10002498 <dcd_edpt_open>
10003412:	bd10      	pop	{r4, pc}

10003414 <usbd_edpt_claim>:
10003414:	b570      	push	{r4, r5, r6, lr}
10003416:	247f      	movs	r4, #127	; 0x7f
10003418:	400c      	ands	r4, r1
1000341a:	0063      	lsls	r3, r4, #1
1000341c:	4c14      	ldr	r4, [pc, #80]	; (10003470 <usbd_edpt_claim+0x5c>)
1000341e:	09c9      	lsrs	r1, r1, #7
10003420:	18e4      	adds	r4, r4, r3
10003422:	1864      	adds	r4, r4, r1
10003424:	3420      	adds	r4, #32
10003426:	7963      	ldrb	r3, [r4, #5]
10003428:	07db      	lsls	r3, r3, #31
1000342a:	0fdd      	lsrs	r5, r3, #31
1000342c:	2b00      	cmp	r3, #0
1000342e:	d118      	bne.n	10003462 <usbd_edpt_claim+0x4e>
10003430:	7963      	ldrb	r3, [r4, #5]
10003432:	075b      	lsls	r3, r3, #29
10003434:	d501      	bpl.n	1000343a <usbd_edpt_claim+0x26>
10003436:	0028      	movs	r0, r5
10003438:	bd70      	pop	{r4, r5, r6, pc}
1000343a:	2101      	movs	r1, #1
1000343c:	4e0d      	ldr	r6, [pc, #52]	; (10003474 <usbd_edpt_claim+0x60>)
1000343e:	4249      	negs	r1, r1
10003440:	6830      	ldr	r0, [r6, #0]
10003442:	f005 f885 	bl	10008550 <__mutex_enter_timeout_ms_veneer>
10003446:	7963      	ldrb	r3, [r4, #5]
10003448:	07db      	lsls	r3, r3, #31
1000344a:	0fdd      	lsrs	r5, r3, #31
1000344c:	2b00      	cmp	r3, #0
1000344e:	d10a      	bne.n	10003466 <usbd_edpt_claim+0x52>
10003450:	7963      	ldrb	r3, [r4, #5]
10003452:	075b      	lsls	r3, r3, #29
10003454:	d408      	bmi.n	10003468 <usbd_edpt_claim+0x54>
10003456:	2204      	movs	r2, #4
10003458:	7963      	ldrb	r3, [r4, #5]
1000345a:	2501      	movs	r5, #1
1000345c:	4313      	orrs	r3, r2
1000345e:	7163      	strb	r3, [r4, #5]
10003460:	e002      	b.n	10003468 <usbd_edpt_claim+0x54>
10003462:	2500      	movs	r5, #0
10003464:	e7e7      	b.n	10003436 <usbd_edpt_claim+0x22>
10003466:	2500      	movs	r5, #0
10003468:	6830      	ldr	r0, [r6, #0]
1000346a:	f005 f849 	bl	10008500 <__mutex_exit_veneer>
1000346e:	e7e2      	b.n	10003436 <usbd_edpt_claim+0x22>
10003470:	2000161c 	.word	0x2000161c
10003474:	20001654 	.word	0x20001654

10003478 <usbd_edpt_release>:
10003478:	b570      	push	{r4, r5, r6, lr}
1000347a:	000c      	movs	r4, r1
1000347c:	2101      	movs	r1, #1
1000347e:	4d0f      	ldr	r5, [pc, #60]	; (100034bc <usbd_edpt_release+0x44>)
10003480:	4249      	negs	r1, r1
10003482:	6828      	ldr	r0, [r5, #0]
10003484:	f005 f864 	bl	10008550 <__mutex_enter_timeout_ms_veneer>
10003488:	217f      	movs	r1, #127	; 0x7f
1000348a:	4021      	ands	r1, r4
1000348c:	004b      	lsls	r3, r1, #1
1000348e:	490c      	ldr	r1, [pc, #48]	; (100034c0 <usbd_edpt_release+0x48>)
10003490:	09e4      	lsrs	r4, r4, #7
10003492:	18c9      	adds	r1, r1, r3
10003494:	1909      	adds	r1, r1, r4
10003496:	3120      	adds	r1, #32
10003498:	794b      	ldrb	r3, [r1, #5]
1000349a:	2400      	movs	r4, #0
1000349c:	07db      	lsls	r3, r3, #31
1000349e:	d408      	bmi.n	100034b2 <usbd_edpt_release+0x3a>
100034a0:	794b      	ldrb	r3, [r1, #5]
100034a2:	075b      	lsls	r3, r3, #29
100034a4:	0fdc      	lsrs	r4, r3, #31
100034a6:	2b00      	cmp	r3, #0
100034a8:	da03      	bge.n	100034b2 <usbd_edpt_release+0x3a>
100034aa:	2204      	movs	r2, #4
100034ac:	794b      	ldrb	r3, [r1, #5]
100034ae:	4393      	bics	r3, r2
100034b0:	714b      	strb	r3, [r1, #5]
100034b2:	6828      	ldr	r0, [r5, #0]
100034b4:	f005 f824 	bl	10008500 <__mutex_exit_veneer>
100034b8:	0020      	movs	r0, r4
100034ba:	bd70      	pop	{r4, r5, r6, pc}
100034bc:	20001654 	.word	0x20001654
100034c0:	2000161c 	.word	0x2000161c

100034c4 <usbd_edpt_xfer>:
100034c4:	b570      	push	{r4, r5, r6, lr}
100034c6:	247f      	movs	r4, #127	; 0x7f
100034c8:	400c      	ands	r4, r1
100034ca:	0065      	lsls	r5, r4, #1
100034cc:	4c0e      	ldr	r4, [pc, #56]	; (10003508 <usbd_edpt_xfer+0x44>)
100034ce:	0006      	movs	r6, r0
100034d0:	1964      	adds	r4, r4, r5
100034d2:	09c8      	lsrs	r0, r1, #7
100034d4:	1824      	adds	r4, r4, r0
100034d6:	3420      	adds	r4, #32
100034d8:	7965      	ldrb	r5, [r4, #5]
100034da:	2000      	movs	r0, #0
100034dc:	07ed      	lsls	r5, r5, #31
100034de:	d500      	bpl.n	100034e2 <usbd_edpt_xfer+0x1e>
100034e0:	bd70      	pop	{r4, r5, r6, pc}
100034e2:	2501      	movs	r5, #1
100034e4:	7960      	ldrb	r0, [r4, #5]
100034e6:	4328      	orrs	r0, r5
100034e8:	7160      	strb	r0, [r4, #5]
100034ea:	0030      	movs	r0, r6
100034ec:	f7ff f878 	bl	100025e0 <dcd_edpt_xfer>
100034f0:	2800      	cmp	r0, #0
100034f2:	d1f5      	bne.n	100034e0 <usbd_edpt_xfer+0x1c>
100034f4:	2201      	movs	r2, #1
100034f6:	7963      	ldrb	r3, [r4, #5]
100034f8:	4393      	bics	r3, r2
100034fa:	7163      	strb	r3, [r4, #5]
100034fc:	7963      	ldrb	r3, [r4, #5]
100034fe:	3203      	adds	r2, #3
10003500:	4393      	bics	r3, r2
10003502:	7163      	strb	r3, [r4, #5]
10003504:	e7ec      	b.n	100034e0 <usbd_edpt_xfer+0x1c>
10003506:	46c0      	nop			; (mov r8, r8)
10003508:	2000161c 	.word	0x2000161c

1000350c <tud_control_status>:
1000350c:	b570      	push	{r4, r5, r6, lr}
1000350e:	4e0a      	ldr	r6, [pc, #40]	; (10003538 <tud_control_status+0x2c>)
10003510:	0005      	movs	r5, r0
10003512:	2208      	movs	r2, #8
10003514:	0030      	movs	r0, r6
10003516:	000c      	movs	r4, r1
10003518:	f003 f990 	bl	1000683c <__wrap___aeabi_memcpy>
1000351c:	2100      	movs	r1, #0
1000351e:	5661      	ldrsb	r1, [r4, r1]
10003520:	2300      	movs	r3, #0
10003522:	43c9      	mvns	r1, r1
10003524:	0fc9      	lsrs	r1, r1, #31
10003526:	0028      	movs	r0, r5
10003528:	60f3      	str	r3, [r6, #12]
1000352a:	2200      	movs	r2, #0
1000352c:	01c9      	lsls	r1, r1, #7
1000352e:	60b3      	str	r3, [r6, #8]
10003530:	f7ff f856 	bl	100025e0 <dcd_edpt_xfer>
10003534:	bd70      	pop	{r4, r5, r6, pc}
10003536:	46c0      	nop			; (mov r8, r8)
10003538:	200015c0 	.word	0x200015c0

1000353c <tud_control_xfer>:
1000353c:	b5f8      	push	{r3, r4, r5, r6, r7, lr}
1000353e:	46ce      	mov	lr, r9
10003540:	4647      	mov	r7, r8
10003542:	4690      	mov	r8, r2
10003544:	4e29      	ldr	r6, [pc, #164]	; (100035ec <tud_control_xfer+0xb0>)
10003546:	b580      	push	{r7, lr}
10003548:	4681      	mov	r9, r0
1000354a:	2208      	movs	r2, #8
1000354c:	0030      	movs	r0, r6
1000354e:	000d      	movs	r5, r1
10003550:	001f      	movs	r7, r3
10003552:	f003 f973 	bl	1000683c <__wrap___aeabi_memcpy>
10003556:	4643      	mov	r3, r8
10003558:	60b3      	str	r3, [r6, #8]
1000355a:	2300      	movs	r3, #0
1000355c:	81f3      	strh	r3, [r6, #14]
1000355e:	79ec      	ldrb	r4, [r5, #7]
10003560:	79ab      	ldrb	r3, [r5, #6]
10003562:	0224      	lsls	r4, r4, #8
10003564:	431c      	orrs	r4, r3
10003566:	1c23      	adds	r3, r4, #0
10003568:	42bc      	cmp	r4, r7
1000356a:	d900      	bls.n	1000356e <tud_control_xfer+0x32>
1000356c:	1c3b      	adds	r3, r7, #0
1000356e:	b29f      	uxth	r7, r3
10003570:	81b3      	strh	r3, [r6, #12]
10003572:	2c00      	cmp	r4, #0
10003574:	d012      	beq.n	1000359c <tud_control_xfer+0x60>
10003576:	2f00      	cmp	r7, #0
10003578:	d01e      	beq.n	100035b8 <tud_control_xfer+0x7c>
1000357a:	4643      	mov	r3, r8
1000357c:	2b00      	cmp	r3, #0
1000357e:	d032      	beq.n	100035e6 <tud_control_xfer+0xaa>
10003580:	1c3b      	adds	r3, r7, #0
10003582:	2f40      	cmp	r7, #64	; 0x40
10003584:	d81e      	bhi.n	100035c4 <tud_control_xfer+0x88>
10003586:	b29f      	uxth	r7, r3
10003588:	7833      	ldrb	r3, [r6, #0]
1000358a:	2b7f      	cmp	r3, #127	; 0x7f
1000358c:	d81f      	bhi.n	100035ce <tud_control_xfer+0x92>
1000358e:	2100      	movs	r1, #0
10003590:	4a17      	ldr	r2, [pc, #92]	; (100035f0 <tud_control_xfer+0xb4>)
10003592:	003b      	movs	r3, r7
10003594:	4648      	mov	r0, r9
10003596:	f7ff f823 	bl	100025e0 <dcd_edpt_xfer>
1000359a:	e009      	b.n	100035b0 <tud_control_xfer+0x74>
1000359c:	2100      	movs	r1, #0
1000359e:	5669      	ldrsb	r1, [r5, r1]
100035a0:	2300      	movs	r3, #0
100035a2:	43c9      	mvns	r1, r1
100035a4:	0fc9      	lsrs	r1, r1, #31
100035a6:	2200      	movs	r2, #0
100035a8:	4648      	mov	r0, r9
100035aa:	01c9      	lsls	r1, r1, #7
100035ac:	f7ff f818 	bl	100025e0 <dcd_edpt_xfer>
100035b0:	bc0c      	pop	{r2, r3}
100035b2:	4690      	mov	r8, r2
100035b4:	4699      	mov	r9, r3
100035b6:	bdf8      	pop	{r3, r4, r5, r6, r7, pc}
100035b8:	7833      	ldrb	r3, [r6, #0]
100035ba:	2b7f      	cmp	r3, #127	; 0x7f
100035bc:	d910      	bls.n	100035e0 <tud_control_xfer+0xa4>
100035be:	2180      	movs	r1, #128	; 0x80
100035c0:	2200      	movs	r2, #0
100035c2:	e7e6      	b.n	10003592 <tud_control_xfer+0x56>
100035c4:	2340      	movs	r3, #64	; 0x40
100035c6:	b29f      	uxth	r7, r3
100035c8:	7833      	ldrb	r3, [r6, #0]
100035ca:	2b7f      	cmp	r3, #127	; 0x7f
100035cc:	d9df      	bls.n	1000358e <tud_control_xfer+0x52>
100035ce:	4c08      	ldr	r4, [pc, #32]	; (100035f0 <tud_control_xfer+0xb4>)
100035d0:	003a      	movs	r2, r7
100035d2:	4641      	mov	r1, r8
100035d4:	0020      	movs	r0, r4
100035d6:	f003 f931 	bl	1000683c <__wrap___aeabi_memcpy>
100035da:	2180      	movs	r1, #128	; 0x80
100035dc:	0022      	movs	r2, r4
100035de:	e7d8      	b.n	10003592 <tud_control_xfer+0x56>
100035e0:	2100      	movs	r1, #0
100035e2:	2200      	movs	r2, #0
100035e4:	e7d5      	b.n	10003592 <tud_control_xfer+0x56>
100035e6:	2000      	movs	r0, #0
100035e8:	e7e2      	b.n	100035b0 <tud_control_xfer+0x74>
100035ea:	46c0      	nop			; (mov r8, r8)
100035ec:	200015c0 	.word	0x200015c0
100035f0:	200015dc 	.word	0x200015dc

100035f4 <usbd_control_reset>:
100035f4:	b510      	push	{r4, lr}
100035f6:	2214      	movs	r2, #20
100035f8:	2100      	movs	r1, #0
100035fa:	4802      	ldr	r0, [pc, #8]	; (10003604 <usbd_control_reset+0x10>)
100035fc:	f003 f918 	bl	10006830 <__wrap_memset>
10003600:	bd10      	pop	{r4, pc}
10003602:	46c0      	nop			; (mov r8, r8)
10003604:	200015c0 	.word	0x200015c0

10003608 <usbd_control_set_complete_callback>:
10003608:	4b01      	ldr	r3, [pc, #4]	; (10003610 <usbd_control_set_complete_callback+0x8>)
1000360a:	6118      	str	r0, [r3, #16]
1000360c:	4770      	bx	lr
1000360e:	46c0      	nop			; (mov r8, r8)
10003610:	200015c0 	.word	0x200015c0

10003614 <usbd_control_set_request>:
10003614:	b510      	push	{r4, lr}
10003616:	4c05      	ldr	r4, [pc, #20]	; (1000362c <usbd_control_set_request+0x18>)
10003618:	0001      	movs	r1, r0
1000361a:	2208      	movs	r2, #8
1000361c:	0020      	movs	r0, r4
1000361e:	f003 f90d 	bl	1000683c <__wrap___aeabi_memcpy>
10003622:	2300      	movs	r3, #0
10003624:	60a3      	str	r3, [r4, #8]
10003626:	60e3      	str	r3, [r4, #12]
10003628:	bd10      	pop	{r4, pc}
1000362a:	46c0      	nop			; (mov r8, r8)
1000362c:	200015c0 	.word	0x200015c0

10003630 <usbd_control_xfer_cb>:
10003630:	b5f8      	push	{r3, r4, r5, r6, r7, lr}
10003632:	4d36      	ldr	r5, [pc, #216]	; (1000370c <usbd_control_xfer_cb+0xdc>)
10003634:	001c      	movs	r4, r3
10003636:	782b      	ldrb	r3, [r5, #0]
10003638:	0006      	movs	r6, r0
1000363a:	09da      	lsrs	r2, r3, #7
1000363c:	09c9      	lsrs	r1, r1, #7
1000363e:	428a      	cmp	r2, r1
10003640:	d00c      	beq.n	1000365c <usbd_control_xfer_cb+0x2c>
10003642:	2700      	movs	r7, #0
10003644:	2c00      	cmp	r4, #0
10003646:	d001      	beq.n	1000364c <usbd_control_xfer_cb+0x1c>
10003648:	0038      	movs	r0, r7
1000364a:	bdf8      	pop	{r3, r4, r5, r6, r7, pc}
1000364c:	4b30      	ldr	r3, [pc, #192]	; (10003710 <usbd_control_xfer_cb+0xe0>)
1000364e:	3701      	adds	r7, #1
10003650:	2b00      	cmp	r3, #0
10003652:	d0f9      	beq.n	10003648 <usbd_control_xfer_cb+0x18>
10003654:	0029      	movs	r1, r5
10003656:	f7fe ff03 	bl	10002460 <dcd_edpt0_status_complete>
1000365a:	e7f5      	b.n	10003648 <usbd_control_xfer_cb+0x18>
1000365c:	2b7f      	cmp	r3, #127	; 0x7f
1000365e:	d806      	bhi.n	1000366e <usbd_control_xfer_cb+0x3e>
10003660:	68a8      	ldr	r0, [r5, #8]
10003662:	2800      	cmp	r0, #0
10003664:	d037      	beq.n	100036d6 <usbd_control_xfer_cb+0xa6>
10003666:	0022      	movs	r2, r4
10003668:	492a      	ldr	r1, [pc, #168]	; (10003714 <usbd_control_xfer_cb+0xe4>)
1000366a:	f003 f8e7 	bl	1000683c <__wrap___aeabi_memcpy>
1000366e:	68ab      	ldr	r3, [r5, #8]
10003670:	89ea      	ldrh	r2, [r5, #14]
10003672:	1919      	adds	r1, r3, r4
10003674:	1912      	adds	r2, r2, r4
10003676:	88eb      	ldrh	r3, [r5, #6]
10003678:	b292      	uxth	r2, r2
1000367a:	81ea      	strh	r2, [r5, #14]
1000367c:	60a9      	str	r1, [r5, #8]
1000367e:	4293      	cmp	r3, r2
10003680:	d015      	beq.n	100036ae <usbd_control_xfer_cb+0x7e>
10003682:	2c3f      	cmp	r4, #63	; 0x3f
10003684:	d913      	bls.n	100036ae <usbd_control_xfer_cb+0x7e>
10003686:	89ac      	ldrh	r4, [r5, #12]
10003688:	1aa0      	subs	r0, r4, r2
1000368a:	1c07      	adds	r7, r0, #0
1000368c:	b280      	uxth	r0, r0
1000368e:	2840      	cmp	r0, #64	; 0x40
10003690:	d82d      	bhi.n	100036ee <usbd_control_xfer_cb+0xbe>
10003692:	782b      	ldrb	r3, [r5, #0]
10003694:	b2bf      	uxth	r7, r7
10003696:	2b7f      	cmp	r3, #127	; 0x7f
10003698:	d82b      	bhi.n	100036f2 <usbd_control_xfer_cb+0xc2>
1000369a:	2100      	movs	r1, #0
1000369c:	42a2      	cmp	r2, r4
1000369e:	d033      	beq.n	10003708 <usbd_control_xfer_cb+0xd8>
100036a0:	4a1c      	ldr	r2, [pc, #112]	; (10003714 <usbd_control_xfer_cb+0xe4>)
100036a2:	003b      	movs	r3, r7
100036a4:	0030      	movs	r0, r6
100036a6:	f7fe ff9b 	bl	100025e0 <dcd_edpt_xfer>
100036aa:	0007      	movs	r7, r0
100036ac:	e7cc      	b.n	10003648 <usbd_control_xfer_cb+0x18>
100036ae:	692b      	ldr	r3, [r5, #16]
100036b0:	2b00      	cmp	r3, #0
100036b2:	d004      	beq.n	100036be <usbd_control_xfer_cb+0x8e>
100036b4:	0029      	movs	r1, r5
100036b6:	0030      	movs	r0, r6
100036b8:	4798      	blx	r3
100036ba:	2800      	cmp	r0, #0
100036bc:	d00d      	beq.n	100036da <usbd_control_xfer_cb+0xaa>
100036be:	2100      	movs	r1, #0
100036c0:	5669      	ldrsb	r1, [r5, r1]
100036c2:	2300      	movs	r3, #0
100036c4:	43c9      	mvns	r1, r1
100036c6:	0fc9      	lsrs	r1, r1, #31
100036c8:	2200      	movs	r2, #0
100036ca:	0030      	movs	r0, r6
100036cc:	01c9      	lsls	r1, r1, #7
100036ce:	f7fe ff87 	bl	100025e0 <dcd_edpt_xfer>
100036d2:	0007      	movs	r7, r0
100036d4:	e7b8      	b.n	10003648 <usbd_control_xfer_cb+0x18>
100036d6:	2700      	movs	r7, #0
100036d8:	e7b6      	b.n	10003648 <usbd_control_xfer_cb+0x18>
100036da:	2100      	movs	r1, #0
100036dc:	0030      	movs	r0, r6
100036de:	f7fe ff95 	bl	1000260c <dcd_edpt_stall>
100036e2:	2180      	movs	r1, #128	; 0x80
100036e4:	0030      	movs	r0, r6
100036e6:	f7fe ff91 	bl	1000260c <dcd_edpt_stall>
100036ea:	2701      	movs	r7, #1
100036ec:	e7ac      	b.n	10003648 <usbd_control_xfer_cb+0x18>
100036ee:	2740      	movs	r7, #64	; 0x40
100036f0:	e7cf      	b.n	10003692 <usbd_control_xfer_cb+0x62>
100036f2:	42a2      	cmp	r2, r4
100036f4:	d007      	beq.n	10003706 <usbd_control_xfer_cb+0xd6>
100036f6:	4c07      	ldr	r4, [pc, #28]	; (10003714 <usbd_control_xfer_cb+0xe4>)
100036f8:	003a      	movs	r2, r7
100036fa:	0020      	movs	r0, r4
100036fc:	f003 f89e 	bl	1000683c <__wrap___aeabi_memcpy>
10003700:	2180      	movs	r1, #128	; 0x80
10003702:	0022      	movs	r2, r4
10003704:	e7cd      	b.n	100036a2 <usbd_control_xfer_cb+0x72>
10003706:	2180      	movs	r1, #128	; 0x80
10003708:	2200      	movs	r2, #0
1000370a:	e7ca      	b.n	100036a2 <usbd_control_xfer_cb+0x72>
1000370c:	200015c0 	.word	0x200015c0
10003710:	10002461 	.word	0x10002461
10003714:	200015dc 	.word	0x200015dc

10003718 <tud_cdc_n_connected>:
10003718:	b510      	push	{r4, lr}
1000371a:	0004      	movs	r4, r0
1000371c:	f7ff f908 	bl	10002930 <tud_mounted>
10003720:	2800      	cmp	r0, #0
10003722:	d101      	bne.n	10003728 <tud_cdc_n_connected+0x10>
10003724:	2000      	movs	r0, #0
10003726:	bd10      	pop	{r4, pc}
10003728:	f7ff f90a 	bl	10002940 <tud_suspended>
1000372c:	2800      	cmp	r0, #0
1000372e:	d1f9      	bne.n	10003724 <tud_cdc_n_connected+0xc>
10003730:	0060      	lsls	r0, r4, #1
10003732:	1904      	adds	r4, r0, r4
10003734:	0123      	lsls	r3, r4, #4
10003736:	4804      	ldr	r0, [pc, #16]	; (10003748 <tud_cdc_n_connected+0x30>)
10003738:	1b1c      	subs	r4, r3, r4
1000373a:	0124      	lsls	r4, r4, #4
1000373c:	1904      	adds	r4, r0, r4
1000373e:	2001      	movs	r0, #1
10003740:	7923      	ldrb	r3, [r4, #4]
10003742:	4018      	ands	r0, r3
10003744:	e7ef      	b.n	10003726 <tud_cdc_n_connected+0xe>
10003746:	46c0      	nop			; (mov r8, r8)
10003748:	200012f0 	.word	0x200012f0

1000374c <tud_cdc_n_available>:
1000374c:	0003      	movs	r3, r0
1000374e:	0040      	lsls	r0, r0, #1
10003750:	18c0      	adds	r0, r0, r3
10003752:	b510      	push	{r4, lr}
10003754:	0103      	lsls	r3, r0, #4
10003756:	1a18      	subs	r0, r3, r0
10003758:	0100      	lsls	r0, r0, #4
1000375a:	4b03      	ldr	r3, [pc, #12]	; (10003768 <tud_cdc_n_available+0x1c>)
1000375c:	3010      	adds	r0, #16
1000375e:	18c0      	adds	r0, r0, r3
10003760:	f000 fb02 	bl	10003d68 <tu_fifo_count>
10003764:	bd10      	pop	{r4, pc}
10003766:	46c0      	nop			; (mov r8, r8)
10003768:	200012f0 	.word	0x200012f0

1000376c <tud_cdc_n_read>:
1000376c:	b5f0      	push	{r4, r5, r6, r7, lr}
1000376e:	0044      	lsls	r4, r0, #1
10003770:	1820      	adds	r0, r4, r0
10003772:	0104      	lsls	r4, r0, #4
10003774:	1a24      	subs	r4, r4, r0
10003776:	0124      	lsls	r4, r4, #4
10003778:	0026      	movs	r6, r4
1000377a:	46c6      	mov	lr, r8
1000377c:	4f17      	ldr	r7, [pc, #92]	; (100037dc <tud_cdc_n_read+0x70>)
1000377e:	3610      	adds	r6, #16
10003780:	19f6      	adds	r6, r6, r7
10003782:	b500      	push	{lr}
10003784:	0030      	movs	r0, r6
10003786:	b292      	uxth	r2, r2
10003788:	f000 fb5c 	bl	10003e44 <tu_fifo_read_n>
1000378c:	0005      	movs	r5, r0
1000378e:	0030      	movs	r0, r6
10003790:	f000 faf6 	bl	10003d80 <tu_fifo_remaining>
10003794:	283f      	cmp	r0, #63	; 0x3f
10003796:	d803      	bhi.n	100037a0 <tud_cdc_n_read+0x34>
10003798:	0028      	movs	r0, r5
1000379a:	bc04      	pop	{r2}
1000379c:	4690      	mov	r8, r2
1000379e:	bdf0      	pop	{r4, r5, r6, r7, pc}
100037a0:	193b      	adds	r3, r7, r4
100037a2:	2000      	movs	r0, #0
100037a4:	78d9      	ldrb	r1, [r3, #3]
100037a6:	4698      	mov	r8, r3
100037a8:	f7ff fe34 	bl	10003414 <usbd_edpt_claim>
100037ac:	2800      	cmp	r0, #0
100037ae:	d0f3      	beq.n	10003798 <tud_cdc_n_read+0x2c>
100037b0:	0030      	movs	r0, r6
100037b2:	f000 fae5 	bl	10003d80 <tu_fifo_remaining>
100037b6:	283f      	cmp	r0, #63	; 0x3f
100037b8:	d90a      	bls.n	100037d0 <tud_cdc_n_read+0x64>
100037ba:	2394      	movs	r3, #148	; 0x94
100037bc:	009b      	lsls	r3, r3, #2
100037be:	18e2      	adds	r2, r4, r3
100037c0:	4643      	mov	r3, r8
100037c2:	19d2      	adds	r2, r2, r7
100037c4:	78d9      	ldrb	r1, [r3, #3]
100037c6:	2000      	movs	r0, #0
100037c8:	2340      	movs	r3, #64	; 0x40
100037ca:	f7ff fe7b 	bl	100034c4 <usbd_edpt_xfer>
100037ce:	e7e3      	b.n	10003798 <tud_cdc_n_read+0x2c>
100037d0:	4643      	mov	r3, r8
100037d2:	2000      	movs	r0, #0
100037d4:	78d9      	ldrb	r1, [r3, #3]
100037d6:	f7ff fe4f 	bl	10003478 <usbd_edpt_release>
100037da:	e7dd      	b.n	10003798 <tud_cdc_n_read+0x2c>
100037dc:	200012f0 	.word	0x200012f0

100037e0 <tud_cdc_n_write_flush>:
100037e0:	b5f8      	push	{r3, r4, r5, r6, r7, lr}
100037e2:	4647      	mov	r7, r8
100037e4:	46ce      	mov	lr, r9
100037e6:	b580      	push	{r7, lr}
100037e8:	0047      	lsls	r7, r0, #1
100037ea:	183b      	adds	r3, r7, r0
100037ec:	011c      	lsls	r4, r3, #4
100037ee:	1ae4      	subs	r4, r4, r3
100037f0:	0124      	lsls	r4, r4, #4
100037f2:	4b23      	ldr	r3, [pc, #140]	; (10003880 <tud_cdc_n_write_flush+0xa0>)
100037f4:	0026      	movs	r6, r4
100037f6:	4698      	mov	r8, r3
100037f8:	3628      	adds	r6, #40	; 0x28
100037fa:	4446      	add	r6, r8
100037fc:	0005      	movs	r5, r0
100037fe:	0030      	movs	r0, r6
10003800:	f000 fab2 	bl	10003d68 <tu_fifo_count>
10003804:	2800      	cmp	r0, #0
10003806:	d104      	bne.n	10003812 <tud_cdc_n_write_flush+0x32>
10003808:	2000      	movs	r0, #0
1000380a:	bc0c      	pop	{r2, r3}
1000380c:	4690      	mov	r8, r2
1000380e:	4699      	mov	r9, r3
10003810:	bdf8      	pop	{r3, r4, r5, r6, r7, pc}
10003812:	46a1      	mov	r9, r4
10003814:	44c1      	add	r9, r8
10003816:	464b      	mov	r3, r9
10003818:	2000      	movs	r0, #0
1000381a:	7899      	ldrb	r1, [r3, #2]
1000381c:	f7ff fdfa 	bl	10003414 <usbd_edpt_claim>
10003820:	2800      	cmp	r0, #0
10003822:	d0f1      	beq.n	10003808 <tud_cdc_n_write_flush+0x28>
10003824:	23a4      	movs	r3, #164	; 0xa4
10003826:	009b      	lsls	r3, r3, #2
10003828:	469c      	mov	ip, r3
1000382a:	4464      	add	r4, ip
1000382c:	4444      	add	r4, r8
1000382e:	0030      	movs	r0, r6
10003830:	2240      	movs	r2, #64	; 0x40
10003832:	0021      	movs	r1, r4
10003834:	f000 fb06 	bl	10003e44 <tu_fifo_read_n>
10003838:	1e06      	subs	r6, r0, #0
1000383a:	d016      	beq.n	1000386a <tud_cdc_n_write_flush+0x8a>
1000383c:	f7ff f878 	bl	10002930 <tud_mounted>
10003840:	2800      	cmp	r0, #0
10003842:	d012      	beq.n	1000386a <tud_cdc_n_write_flush+0x8a>
10003844:	f7ff f87c 	bl	10002940 <tud_suspended>
10003848:	2800      	cmp	r0, #0
1000384a:	d10e      	bne.n	1000386a <tud_cdc_n_write_flush+0x8a>
1000384c:	464b      	mov	r3, r9
1000384e:	791b      	ldrb	r3, [r3, #4]
10003850:	07db      	lsls	r3, r3, #31
10003852:	d50a      	bpl.n	1000386a <tud_cdc_n_write_flush+0x8a>
10003854:	464b      	mov	r3, r9
10003856:	0022      	movs	r2, r4
10003858:	7899      	ldrb	r1, [r3, #2]
1000385a:	2000      	movs	r0, #0
1000385c:	0033      	movs	r3, r6
1000385e:	f7ff fe31 	bl	100034c4 <usbd_edpt_xfer>
10003862:	2800      	cmp	r0, #0
10003864:	d0d0      	beq.n	10003808 <tud_cdc_n_write_flush+0x28>
10003866:	0030      	movs	r0, r6
10003868:	e7cf      	b.n	1000380a <tud_cdc_n_write_flush+0x2a>
1000386a:	197d      	adds	r5, r7, r5
1000386c:	012b      	lsls	r3, r5, #4
1000386e:	1b5d      	subs	r5, r3, r5
10003870:	012d      	lsls	r5, r5, #4
10003872:	4445      	add	r5, r8
10003874:	78a9      	ldrb	r1, [r5, #2]
10003876:	2000      	movs	r0, #0
10003878:	f7ff fdfe 	bl	10003478 <usbd_edpt_release>
1000387c:	e7c4      	b.n	10003808 <tud_cdc_n_write_flush+0x28>
1000387e:	46c0      	nop			; (mov r8, r8)
10003880:	200012f0 	.word	0x200012f0

10003884 <tud_cdc_n_write>:
10003884:	0043      	lsls	r3, r0, #1
10003886:	181b      	adds	r3, r3, r0
10003888:	b570      	push	{r4, r5, r6, lr}
1000388a:	011c      	lsls	r4, r3, #4
1000388c:	1ae4      	subs	r4, r4, r3
1000388e:	0124      	lsls	r4, r4, #4
10003890:	4b09      	ldr	r3, [pc, #36]	; (100038b8 <tud_cdc_n_write+0x34>)
10003892:	3428      	adds	r4, #40	; 0x28
10003894:	18e4      	adds	r4, r4, r3
10003896:	0005      	movs	r5, r0
10003898:	b292      	uxth	r2, r2
1000389a:	0020      	movs	r0, r4
1000389c:	f000 fb8c 	bl	10003fb8 <tu_fifo_write_n>
100038a0:	0006      	movs	r6, r0
100038a2:	0020      	movs	r0, r4
100038a4:	f000 fa60 	bl	10003d68 <tu_fifo_count>
100038a8:	283f      	cmp	r0, #63	; 0x3f
100038aa:	d801      	bhi.n	100038b0 <tud_cdc_n_write+0x2c>
100038ac:	0030      	movs	r0, r6
100038ae:	bd70      	pop	{r4, r5, r6, pc}
100038b0:	0028      	movs	r0, r5
100038b2:	f7ff ff95 	bl	100037e0 <tud_cdc_n_write_flush>
100038b6:	e7f9      	b.n	100038ac <tud_cdc_n_write+0x28>
100038b8:	200012f0 	.word	0x200012f0

100038bc <tud_cdc_n_write_available>:
100038bc:	0003      	movs	r3, r0
100038be:	0040      	lsls	r0, r0, #1
100038c0:	18c0      	adds	r0, r0, r3
100038c2:	b510      	push	{r4, lr}
100038c4:	0103      	lsls	r3, r0, #4
100038c6:	1a18      	subs	r0, r3, r0
100038c8:	0100      	lsls	r0, r0, #4
100038ca:	4b03      	ldr	r3, [pc, #12]	; (100038d8 <tud_cdc_n_write_available+0x1c>)
100038cc:	3028      	adds	r0, #40	; 0x28
100038ce:	18c0      	adds	r0, r0, r3
100038d0:	f000 fa56 	bl	10003d80 <tu_fifo_remaining>
100038d4:	bd10      	pop	{r4, pc}
100038d6:	46c0      	nop			; (mov r8, r8)
100038d8:	200012f0 	.word	0x200012f0

100038dc <cdcd_init>:
100038dc:	22b4      	movs	r2, #180	; 0xb4
100038de:	b570      	push	{r4, r5, r6, lr}
100038e0:	4c1a      	ldr	r4, [pc, #104]	; (1000394c <cdcd_init+0x70>)
100038e2:	b082      	sub	sp, #8
100038e4:	2100      	movs	r1, #0
100038e6:	0020      	movs	r0, r4
100038e8:	0092      	lsls	r2, r2, #2
100038ea:	f002 ffa1 	bl	10006830 <__wrap_memset>
100038ee:	23ff      	movs	r3, #255	; 0xff
100038f0:	7163      	strb	r3, [r4, #5]
100038f2:	4b17      	ldr	r3, [pc, #92]	; (10003950 <cdcd_init+0x74>)
100038f4:	2680      	movs	r6, #128	; 0x80
100038f6:	80e3      	strh	r3, [r4, #6]
100038f8:	2301      	movs	r3, #1
100038fa:	2500      	movs	r5, #0
100038fc:	0021      	movs	r1, r4
100038fe:	0020      	movs	r0, r4
10003900:	8123      	strh	r3, [r4, #8]
10003902:	0076      	lsls	r6, r6, #1
10003904:	3307      	adds	r3, #7
10003906:	8165      	strh	r5, [r4, #10]
10003908:	7323      	strb	r3, [r4, #12]
1000390a:	0032      	movs	r2, r6
1000390c:	9500      	str	r5, [sp, #0]
1000390e:	3140      	adds	r1, #64	; 0x40
10003910:	3b07      	subs	r3, #7
10003912:	3010      	adds	r0, #16
10003914:	f000 f9ec 	bl	10003cf0 <tu_fifo_config>
10003918:	0021      	movs	r1, r4
1000391a:	0020      	movs	r0, r4
1000391c:	3141      	adds	r1, #65	; 0x41
1000391e:	0032      	movs	r2, r6
10003920:	31ff      	adds	r1, #255	; 0xff
10003922:	9500      	str	r5, [sp, #0]
10003924:	2301      	movs	r3, #1
10003926:	3028      	adds	r0, #40	; 0x28
10003928:	f000 f9e2 	bl	10003cf0 <tu_fifo_config>
1000392c:	2390      	movs	r3, #144	; 0x90
1000392e:	009b      	lsls	r3, r3, #2
10003930:	18e5      	adds	r5, r4, r3
10003932:	0028      	movs	r0, r5
10003934:	f001 fd34 	bl	100053a0 <mutex_init>
10003938:	2392      	movs	r3, #146	; 0x92
1000393a:	009b      	lsls	r3, r3, #2
1000393c:	6265      	str	r5, [r4, #36]	; 0x24
1000393e:	18e5      	adds	r5, r4, r3
10003940:	0028      	movs	r0, r5
10003942:	f001 fd2d 	bl	100053a0 <mutex_init>
10003946:	63e5      	str	r5, [r4, #60]	; 0x3c
10003948:	b002      	add	sp, #8
1000394a:	bd70      	pop	{r4, r5, r6, pc}
1000394c:	200012f0 	.word	0x200012f0
10003950:	ffffc200 	.word	0xffffc200

10003954 <cdcd_reset>:
10003954:	b510      	push	{r4, lr}
10003956:	4c07      	ldr	r4, [pc, #28]	; (10003974 <cdcd_reset+0x20>)
10003958:	2205      	movs	r2, #5
1000395a:	2100      	movs	r1, #0
1000395c:	0020      	movs	r0, r4
1000395e:	f002 ff67 	bl	10006830 <__wrap_memset>
10003962:	0020      	movs	r0, r4
10003964:	3010      	adds	r0, #16
10003966:	f000 fba5 	bl	100040b4 <tu_fifo_clear>
1000396a:	0020      	movs	r0, r4
1000396c:	3028      	adds	r0, #40	; 0x28
1000396e:	f000 fba1 	bl	100040b4 <tu_fifo_clear>
10003972:	bd10      	pop	{r4, pc}
10003974:	200012f0 	.word	0x200012f0

10003978 <cdcd_open>:
10003978:	b5f0      	push	{r4, r5, r6, r7, lr}
1000397a:	794b      	ldrb	r3, [r1, #5]
1000397c:	0006      	movs	r6, r0
1000397e:	b083      	sub	sp, #12
10003980:	2b02      	cmp	r3, #2
10003982:	d102      	bne.n	1000398a <cdcd_open+0x12>
10003984:	798b      	ldrb	r3, [r1, #6]
10003986:	2b02      	cmp	r3, #2
10003988:	d003      	beq.n	10003992 <cdcd_open+0x1a>
1000398a:	2500      	movs	r5, #0
1000398c:	0028      	movs	r0, r5
1000398e:	b003      	add	sp, #12
10003990:	bdf0      	pop	{r4, r5, r6, r7, pc}
10003992:	79cb      	ldrb	r3, [r1, #7]
10003994:	2b06      	cmp	r3, #6
10003996:	d8f8      	bhi.n	1000398a <cdcd_open+0x12>
10003998:	4f2f      	ldr	r7, [pc, #188]	; (10003a58 <cdcd_open+0xe0>)
1000399a:	78bb      	ldrb	r3, [r7, #2]
1000399c:	2b00      	cmp	r3, #0
1000399e:	d1f4      	bne.n	1000398a <cdcd_open+0x12>
100039a0:	788b      	ldrb	r3, [r1, #2]
100039a2:	2509      	movs	r5, #9
100039a4:	703b      	strb	r3, [r7, #0]
100039a6:	780c      	ldrb	r4, [r1, #0]
100039a8:	190c      	adds	r4, r1, r4
100039aa:	7863      	ldrb	r3, [r4, #1]
100039ac:	2b24      	cmp	r3, #36	; 0x24
100039ae:	d10b      	bne.n	100039c8 <cdcd_open+0x50>
100039b0:	2a08      	cmp	r2, #8
100039b2:	d802      	bhi.n	100039ba <cdcd_open+0x42>
100039b4:	e00f      	b.n	100039d6 <cdcd_open+0x5e>
100039b6:	42aa      	cmp	r2, r5
100039b8:	d30d      	bcc.n	100039d6 <cdcd_open+0x5e>
100039ba:	7823      	ldrb	r3, [r4, #0]
100039bc:	18e4      	adds	r4, r4, r3
100039be:	18ed      	adds	r5, r5, r3
100039c0:	7863      	ldrb	r3, [r4, #1]
100039c2:	b2ad      	uxth	r5, r5
100039c4:	2b24      	cmp	r3, #36	; 0x24
100039c6:	d0f6      	beq.n	100039b6 <cdcd_open+0x3e>
100039c8:	2b05      	cmp	r3, #5
100039ca:	d020      	beq.n	10003a0e <cdcd_open+0x96>
100039cc:	2b04      	cmp	r3, #4
100039ce:	d102      	bne.n	100039d6 <cdcd_open+0x5e>
100039d0:	7963      	ldrb	r3, [r4, #5]
100039d2:	2b0a      	cmp	r3, #10
100039d4:	d02e      	beq.n	10003a34 <cdcd_open+0xbc>
100039d6:	4c21      	ldr	r4, [pc, #132]	; (10003a5c <cdcd_open+0xe4>)
100039d8:	0020      	movs	r0, r4
100039da:	f000 f9d1 	bl	10003d80 <tu_fifo_remaining>
100039de:	283f      	cmp	r0, #63	; 0x3f
100039e0:	d9d4      	bls.n	1000398c <cdcd_open+0x14>
100039e2:	0026      	movs	r6, r4
100039e4:	3e10      	subs	r6, #16
100039e6:	2000      	movs	r0, #0
100039e8:	78f1      	ldrb	r1, [r6, #3]
100039ea:	f7ff fd13 	bl	10003414 <usbd_edpt_claim>
100039ee:	2800      	cmp	r0, #0
100039f0:	d0cc      	beq.n	1000398c <cdcd_open+0x14>
100039f2:	0020      	movs	r0, r4
100039f4:	f000 f9c4 	bl	10003d80 <tu_fifo_remaining>
100039f8:	283f      	cmp	r0, #63	; 0x3f
100039fa:	d916      	bls.n	10003a2a <cdcd_open+0xb2>
100039fc:	2390      	movs	r3, #144	; 0x90
100039fe:	009b      	lsls	r3, r3, #2
10003a00:	18e2      	adds	r2, r4, r3
10003a02:	78f1      	ldrb	r1, [r6, #3]
10003a04:	2340      	movs	r3, #64	; 0x40
10003a06:	2000      	movs	r0, #0
10003a08:	f7ff fd5c 	bl	100034c4 <usbd_edpt_xfer>
10003a0c:	e7be      	b.n	1000398c <cdcd_open+0x14>
10003a0e:	0021      	movs	r1, r4
10003a10:	0030      	movs	r0, r6
10003a12:	f7ff fcfb 	bl	1000340c <usbd_edpt_open>
10003a16:	2800      	cmp	r0, #0
10003a18:	d0b7      	beq.n	1000398a <cdcd_open+0x12>
10003a1a:	78a3      	ldrb	r3, [r4, #2]
10003a1c:	707b      	strb	r3, [r7, #1]
10003a1e:	7823      	ldrb	r3, [r4, #0]
10003a20:	18ed      	adds	r5, r5, r3
10003a22:	18e4      	adds	r4, r4, r3
10003a24:	7863      	ldrb	r3, [r4, #1]
10003a26:	b2ad      	uxth	r5, r5
10003a28:	e7d0      	b.n	100039cc <cdcd_open+0x54>
10003a2a:	78f1      	ldrb	r1, [r6, #3]
10003a2c:	2000      	movs	r0, #0
10003a2e:	f7ff fd23 	bl	10003478 <usbd_edpt_release>
10003a32:	e7ab      	b.n	1000398c <cdcd_open+0x14>
10003a34:	4b0a      	ldr	r3, [pc, #40]	; (10003a60 <cdcd_open+0xe8>)
10003a36:	7827      	ldrb	r7, [r4, #0]
10003a38:	9301      	str	r3, [sp, #4]
10003a3a:	3301      	adds	r3, #1
10003a3c:	9300      	str	r3, [sp, #0]
10003a3e:	2202      	movs	r2, #2
10003a40:	2302      	movs	r3, #2
10003a42:	0030      	movs	r0, r6
10003a44:	19e1      	adds	r1, r4, r7
10003a46:	f7ff fcad 	bl	100033a4 <usbd_open_edpt_pair>
10003a4a:	2800      	cmp	r0, #0
10003a4c:	d09d      	beq.n	1000398a <cdcd_open+0x12>
10003a4e:	350e      	adds	r5, #14
10003a50:	19ed      	adds	r5, r5, r7
10003a52:	b2ad      	uxth	r5, r5
10003a54:	e7bf      	b.n	100039d6 <cdcd_open+0x5e>
10003a56:	46c0      	nop			; (mov r8, r8)
10003a58:	200012f0 	.word	0x200012f0
10003a5c:	20001300 	.word	0x20001300
10003a60:	200012f2 	.word	0x200012f2

10003a64 <cdcd_control_complete>:
10003a64:	2360      	movs	r3, #96	; 0x60
10003a66:	780a      	ldrb	r2, [r1, #0]
10003a68:	b570      	push	{r4, r5, r6, lr}
10003a6a:	4013      	ands	r3, r2
10003a6c:	2400      	movs	r4, #0
10003a6e:	2b20      	cmp	r3, #32
10003a70:	d10b      	bne.n	10003a8a <cdcd_control_complete+0x26>
10003a72:	4a0b      	ldr	r2, [pc, #44]	; (10003aa0 <cdcd_control_complete+0x3c>)
10003a74:	794b      	ldrb	r3, [r1, #5]
10003a76:	790d      	ldrb	r5, [r1, #4]
10003a78:	7810      	ldrb	r0, [r2, #0]
10003a7a:	021b      	lsls	r3, r3, #8
10003a7c:	432b      	orrs	r3, r5
10003a7e:	4298      	cmp	r0, r3
10003a80:	d103      	bne.n	10003a8a <cdcd_control_complete+0x26>
10003a82:	784b      	ldrb	r3, [r1, #1]
10003a84:	3401      	adds	r4, #1
10003a86:	2b20      	cmp	r3, #32
10003a88:	d001      	beq.n	10003a8e <cdcd_control_complete+0x2a>
10003a8a:	0020      	movs	r0, r4
10003a8c:	bd70      	pop	{r4, r5, r6, pc}
10003a8e:	4b05      	ldr	r3, [pc, #20]	; (10003aa4 <cdcd_control_complete+0x40>)
10003a90:	2b00      	cmp	r3, #0
10003a92:	d0fa      	beq.n	10003a8a <cdcd_control_complete+0x26>
10003a94:	2000      	movs	r0, #0
10003a96:	1d91      	adds	r1, r2, #6
10003a98:	e000      	b.n	10003a9c <cdcd_control_complete+0x38>
10003a9a:	bf00      	nop
10003a9c:	e7f5      	b.n	10003a8a <cdcd_control_complete+0x26>
10003a9e:	46c0      	nop			; (mov r8, r8)
10003aa0:	200012f0 	.word	0x200012f0
10003aa4:	00000000 	.word	0x00000000

10003aa8 <cdcd_control_request>:
10003aa8:	2360      	movs	r3, #96	; 0x60
10003aaa:	780a      	ldrb	r2, [r1, #0]
10003aac:	b570      	push	{r4, r5, r6, lr}
10003aae:	4013      	ands	r3, r2
10003ab0:	2400      	movs	r4, #0
10003ab2:	2b20      	cmp	r3, #32
10003ab4:	d111      	bne.n	10003ada <cdcd_control_request+0x32>
10003ab6:	4a14      	ldr	r2, [pc, #80]	; (10003b08 <cdcd_control_request+0x60>)
10003ab8:	794b      	ldrb	r3, [r1, #5]
10003aba:	790e      	ldrb	r6, [r1, #4]
10003abc:	7815      	ldrb	r5, [r2, #0]
10003abe:	021b      	lsls	r3, r3, #8
10003ac0:	4333      	orrs	r3, r6
10003ac2:	429d      	cmp	r5, r3
10003ac4:	d109      	bne.n	10003ada <cdcd_control_request+0x32>
10003ac6:	784b      	ldrb	r3, [r1, #1]
10003ac8:	2b21      	cmp	r3, #33	; 0x21
10003aca:	d808      	bhi.n	10003ade <cdcd_control_request+0x36>
10003acc:	2b1f      	cmp	r3, #31
10003ace:	d904      	bls.n	10003ada <cdcd_control_request+0x32>
10003ad0:	2307      	movs	r3, #7
10003ad2:	3206      	adds	r2, #6
10003ad4:	f7ff fd32 	bl	1000353c <tud_control_xfer>
10003ad8:	2401      	movs	r4, #1
10003ada:	0020      	movs	r0, r4
10003adc:	bd70      	pop	{r4, r5, r6, pc}
10003ade:	2b22      	cmp	r3, #34	; 0x22
10003ae0:	d1fb      	bne.n	10003ada <cdcd_control_request+0x32>
10003ae2:	78cd      	ldrb	r5, [r1, #3]
10003ae4:	788b      	ldrb	r3, [r1, #2]
10003ae6:	022d      	lsls	r5, r5, #8
10003ae8:	431d      	orrs	r5, r3
10003aea:	7115      	strb	r5, [r2, #4]
10003aec:	f7ff fd0e 	bl	1000350c <tud_control_status>
10003af0:	4b06      	ldr	r3, [pc, #24]	; (10003b0c <cdcd_control_request+0x64>)
10003af2:	2401      	movs	r4, #1
10003af4:	2b00      	cmp	r3, #0
10003af6:	d0f0      	beq.n	10003ada <cdcd_control_request+0x32>
10003af8:	0029      	movs	r1, r5
10003afa:	086a      	lsrs	r2, r5, #1
10003afc:	2000      	movs	r0, #0
10003afe:	4022      	ands	r2, r4
10003b00:	4021      	ands	r1, r4
10003b02:	e000      	b.n	10003b06 <cdcd_control_request+0x5e>
10003b04:	bf00      	nop
10003b06:	e7e8      	b.n	10003ada <cdcd_control_request+0x32>
10003b08:	200012f0 	.word	0x200012f0
10003b0c:	00000000 	.word	0x00000000

10003b10 <cdcd_xfer_cb>:
10003b10:	b5f8      	push	{r3, r4, r5, r6, r7, lr}
10003b12:	464e      	mov	r6, r9
10003b14:	4645      	mov	r5, r8
10003b16:	46de      	mov	lr, fp
10003b18:	4657      	mov	r7, sl
10003b1a:	b5e0      	push	{r5, r6, r7, lr}
10003b1c:	001e      	movs	r6, r3
10003b1e:	4b64      	ldr	r3, [pc, #400]	; (10003cb0 <cdcd_xfer_cb+0x1a0>)
10003b20:	4680      	mov	r8, r0
10003b22:	4699      	mov	r9, r3
10003b24:	78db      	ldrb	r3, [r3, #3]
10003b26:	000d      	movs	r5, r1
10003b28:	428b      	cmp	r3, r1
10003b2a:	d000      	beq.n	10003b2e <cdcd_xfer_cb+0x1e>
10003b2c:	e072      	b.n	10003c14 <cdcd_xfer_cb+0x104>
10003b2e:	464f      	mov	r7, r9
10003b30:	3710      	adds	r7, #16
10003b32:	2e00      	cmp	r6, #0
10003b34:	d019      	beq.n	10003b6a <cdcd_xfer_cb+0x5a>
10003b36:	2494      	movs	r4, #148	; 0x94
10003b38:	4b5e      	ldr	r3, [pc, #376]	; (10003cb4 <cdcd_xfer_cb+0x1a4>)
10003b3a:	00a4      	lsls	r4, r4, #2
10003b3c:	444c      	add	r4, r9
10003b3e:	2b00      	cmp	r3, #0
10003b40:	d100      	bne.n	10003b44 <cdcd_xfer_cb+0x34>
10003b42:	e094      	b.n	10003c6e <cdcd_xfer_cb+0x15e>
10003b44:	464f      	mov	r7, r9
10003b46:	19a3      	adds	r3, r4, r6
10003b48:	469b      	mov	fp, r3
10003b4a:	46ca      	mov	sl, r9
10003b4c:	3710      	adds	r7, #16
10003b4e:	0021      	movs	r1, r4
10003b50:	0038      	movs	r0, r7
10003b52:	f000 f9ef 	bl	10003f34 <tu_fifo_write>
10003b56:	4653      	mov	r3, sl
10003b58:	795b      	ldrb	r3, [r3, #5]
10003b5a:	2bff      	cmp	r3, #255	; 0xff
10003b5c:	d002      	beq.n	10003b64 <cdcd_xfer_cb+0x54>
10003b5e:	7821      	ldrb	r1, [r4, #0]
10003b60:	4299      	cmp	r1, r3
10003b62:	d05d      	beq.n	10003c20 <cdcd_xfer_cb+0x110>
10003b64:	3401      	adds	r4, #1
10003b66:	45a3      	cmp	fp, r4
10003b68:	d1f1      	bne.n	10003b4e <cdcd_xfer_cb+0x3e>
10003b6a:	4b53      	ldr	r3, [pc, #332]	; (10003cb8 <cdcd_xfer_cb+0x1a8>)
10003b6c:	2b00      	cmp	r3, #0
10003b6e:	d005      	beq.n	10003b7c <cdcd_xfer_cb+0x6c>
10003b70:	0038      	movs	r0, r7
10003b72:	f000 f8f9 	bl	10003d68 <tu_fifo_count>
10003b76:	2800      	cmp	r0, #0
10003b78:	d000      	beq.n	10003b7c <cdcd_xfer_cb+0x6c>
10003b7a:	e084      	b.n	10003c86 <cdcd_xfer_cb+0x176>
10003b7c:	0038      	movs	r0, r7
10003b7e:	f000 f8ff 	bl	10003d80 <tu_fifo_remaining>
10003b82:	283f      	cmp	r0, #63	; 0x3f
10003b84:	d82f      	bhi.n	10003be6 <cdcd_xfer_cb+0xd6>
10003b86:	3f10      	subs	r7, #16
10003b88:	78bb      	ldrb	r3, [r7, #2]
10003b8a:	429d      	cmp	r5, r3
10003b8c:	d007      	beq.n	10003b9e <cdcd_xfer_cb+0x8e>
10003b8e:	2401      	movs	r4, #1
10003b90:	0020      	movs	r0, r4
10003b92:	bc3c      	pop	{r2, r3, r4, r5}
10003b94:	4690      	mov	r8, r2
10003b96:	4699      	mov	r9, r3
10003b98:	46a2      	mov	sl, r4
10003b9a:	46ab      	mov	fp, r5
10003b9c:	bdf8      	pop	{r3, r4, r5, r6, r7, pc}
10003b9e:	4b47      	ldr	r3, [pc, #284]	; (10003cbc <cdcd_xfer_cb+0x1ac>)
10003ba0:	2b00      	cmp	r3, #0
10003ba2:	d002      	beq.n	10003baa <cdcd_xfer_cb+0x9a>
10003ba4:	2000      	movs	r0, #0
10003ba6:	e000      	b.n	10003baa <cdcd_xfer_cb+0x9a>
10003ba8:	bf00      	nop
10003baa:	4c45      	ldr	r4, [pc, #276]	; (10003cc0 <cdcd_xfer_cb+0x1b0>)
10003bac:	0020      	movs	r0, r4
10003bae:	f000 f8db 	bl	10003d68 <tu_fifo_count>
10003bb2:	2800      	cmp	r0, #0
10003bb4:	d138      	bne.n	10003c28 <cdcd_xfer_cb+0x118>
10003bb6:	0020      	movs	r0, r4
10003bb8:	f000 f8d6 	bl	10003d68 <tu_fifo_count>
10003bbc:	2800      	cmp	r0, #0
10003bbe:	d1e6      	bne.n	10003b8e <cdcd_xfer_cb+0x7e>
10003bc0:	2e00      	cmp	r6, #0
10003bc2:	d0e4      	beq.n	10003b8e <cdcd_xfer_cb+0x7e>
10003bc4:	06b3      	lsls	r3, r6, #26
10003bc6:	d1e2      	bne.n	10003b8e <cdcd_xfer_cb+0x7e>
10003bc8:	3c28      	subs	r4, #40	; 0x28
10003bca:	78a1      	ldrb	r1, [r4, #2]
10003bcc:	4640      	mov	r0, r8
10003bce:	f7ff fc21 	bl	10003414 <usbd_edpt_claim>
10003bd2:	0025      	movs	r5, r4
10003bd4:	1e04      	subs	r4, r0, #0
10003bd6:	d0da      	beq.n	10003b8e <cdcd_xfer_cb+0x7e>
10003bd8:	2300      	movs	r3, #0
10003bda:	2200      	movs	r2, #0
10003bdc:	4640      	mov	r0, r8
10003bde:	78a9      	ldrb	r1, [r5, #2]
10003be0:	f7ff fc70 	bl	100034c4 <usbd_edpt_xfer>
10003be4:	e7d4      	b.n	10003b90 <cdcd_xfer_cb+0x80>
10003be6:	003c      	movs	r4, r7
10003be8:	3c10      	subs	r4, #16
10003bea:	2000      	movs	r0, #0
10003bec:	78e1      	ldrb	r1, [r4, #3]
10003bee:	f7ff fc11 	bl	10003414 <usbd_edpt_claim>
10003bf2:	2800      	cmp	r0, #0
10003bf4:	d039      	beq.n	10003c6a <cdcd_xfer_cb+0x15a>
10003bf6:	0038      	movs	r0, r7
10003bf8:	f000 f8c2 	bl	10003d80 <tu_fifo_remaining>
10003bfc:	283f      	cmp	r0, #63	; 0x3f
10003bfe:	d930      	bls.n	10003c62 <cdcd_xfer_cb+0x152>
10003c00:	2390      	movs	r3, #144	; 0x90
10003c02:	009b      	lsls	r3, r3, #2
10003c04:	18fa      	adds	r2, r7, r3
10003c06:	2000      	movs	r0, #0
10003c08:	2340      	movs	r3, #64	; 0x40
10003c0a:	78e1      	ldrb	r1, [r4, #3]
10003c0c:	f7ff fc5a 	bl	100034c4 <usbd_edpt_xfer>
10003c10:	78a3      	ldrb	r3, [r4, #2]
10003c12:	e7ba      	b.n	10003b8a <cdcd_xfer_cb+0x7a>
10003c14:	464b      	mov	r3, r9
10003c16:	789b      	ldrb	r3, [r3, #2]
10003c18:	428b      	cmp	r3, r1
10003c1a:	d0c0      	beq.n	10003b9e <cdcd_xfer_cb+0x8e>
10003c1c:	2400      	movs	r4, #0
10003c1e:	e7b7      	b.n	10003b90 <cdcd_xfer_cb+0x80>
10003c20:	2000      	movs	r0, #0
10003c22:	e000      	b.n	10003c26 <cdcd_xfer_cb+0x116>
10003c24:	bf00      	nop
10003c26:	e79d      	b.n	10003b64 <cdcd_xfer_cb+0x54>
10003c28:	0025      	movs	r5, r4
10003c2a:	3d28      	subs	r5, #40	; 0x28
10003c2c:	2000      	movs	r0, #0
10003c2e:	78a9      	ldrb	r1, [r5, #2]
10003c30:	f7ff fbf0 	bl	10003414 <usbd_edpt_claim>
10003c34:	2800      	cmp	r0, #0
10003c36:	d0be      	beq.n	10003bb6 <cdcd_xfer_cb+0xa6>
10003c38:	239a      	movs	r3, #154	; 0x9a
10003c3a:	009b      	lsls	r3, r3, #2
10003c3c:	18e7      	adds	r7, r4, r3
10003c3e:	2240      	movs	r2, #64	; 0x40
10003c40:	0039      	movs	r1, r7
10003c42:	0020      	movs	r0, r4
10003c44:	f000 f8fe 	bl	10003e44 <tu_fifo_read_n>
10003c48:	4682      	mov	sl, r0
10003c4a:	2800      	cmp	r0, #0
10003c4c:	d003      	beq.n	10003c56 <cdcd_xfer_cb+0x146>
10003c4e:	f7fe fe6f 	bl	10002930 <tud_mounted>
10003c52:	2800      	cmp	r0, #0
10003c54:	d11b      	bne.n	10003c8e <cdcd_xfer_cb+0x17e>
10003c56:	464b      	mov	r3, r9
10003c58:	2000      	movs	r0, #0
10003c5a:	7899      	ldrb	r1, [r3, #2]
10003c5c:	f7ff fc0c 	bl	10003478 <usbd_edpt_release>
10003c60:	e7a9      	b.n	10003bb6 <cdcd_xfer_cb+0xa6>
10003c62:	2000      	movs	r0, #0
10003c64:	78e1      	ldrb	r1, [r4, #3]
10003c66:	f7ff fc07 	bl	10003478 <usbd_edpt_release>
10003c6a:	78a3      	ldrb	r3, [r4, #2]
10003c6c:	e78d      	b.n	10003b8a <cdcd_xfer_cb+0x7a>
10003c6e:	464f      	mov	r7, r9
10003c70:	19a3      	adds	r3, r4, r6
10003c72:	469a      	mov	sl, r3
10003c74:	3710      	adds	r7, #16
10003c76:	0021      	movs	r1, r4
10003c78:	0038      	movs	r0, r7
10003c7a:	3401      	adds	r4, #1
10003c7c:	f000 f95a 	bl	10003f34 <tu_fifo_write>
10003c80:	45a2      	cmp	sl, r4
10003c82:	d1f8      	bne.n	10003c76 <cdcd_xfer_cb+0x166>
10003c84:	e771      	b.n	10003b6a <cdcd_xfer_cb+0x5a>
10003c86:	2000      	movs	r0, #0
10003c88:	e000      	b.n	10003c8c <cdcd_xfer_cb+0x17c>
10003c8a:	bf00      	nop
10003c8c:	e776      	b.n	10003b7c <cdcd_xfer_cb+0x6c>
10003c8e:	f7fe fe57 	bl	10002940 <tud_suspended>
10003c92:	2800      	cmp	r0, #0
10003c94:	d1df      	bne.n	10003c56 <cdcd_xfer_cb+0x146>
10003c96:	792b      	ldrb	r3, [r5, #4]
10003c98:	07db      	lsls	r3, r3, #31
10003c9a:	d5dc      	bpl.n	10003c56 <cdcd_xfer_cb+0x146>
10003c9c:	4653      	mov	r3, sl
10003c9e:	003a      	movs	r2, r7
10003ca0:	2000      	movs	r0, #0
10003ca2:	78a9      	ldrb	r1, [r5, #2]
10003ca4:	f7ff fc0e 	bl	100034c4 <usbd_edpt_xfer>
10003ca8:	2800      	cmp	r0, #0
10003caa:	d000      	beq.n	10003cae <cdcd_xfer_cb+0x19e>
10003cac:	e76f      	b.n	10003b8e <cdcd_xfer_cb+0x7e>
10003cae:	e782      	b.n	10003bb6 <cdcd_xfer_cb+0xa6>
10003cb0:	200012f0 	.word	0x200012f0
	...
10003cc0:	20001318 	.word	0x20001318

10003cc4 <tusb_init>:
10003cc4:	b570      	push	{r4, r5, r6, lr}
10003cc6:	4d06      	ldr	r5, [pc, #24]	; (10003ce0 <tusb_init+0x1c>)
10003cc8:	782c      	ldrb	r4, [r5, #0]
10003cca:	2c00      	cmp	r4, #0
10003ccc:	d001      	beq.n	10003cd2 <tusb_init+0xe>
10003cce:	0020      	movs	r0, r4
10003cd0:	bd70      	pop	{r4, r5, r6, pc}
10003cd2:	f7fe fe3d 	bl	10002950 <tud_init>
10003cd6:	2800      	cmp	r0, #0
10003cd8:	d0f9      	beq.n	10003cce <tusb_init+0xa>
10003cda:	2301      	movs	r3, #1
10003cdc:	702b      	strb	r3, [r5, #0]
10003cde:	e7f6      	b.n	10003cce <tusb_init+0xa>
10003ce0:	20001d8e 	.word	0x20001d8e

10003ce4 <tusb_inited>:
10003ce4:	4b01      	ldr	r3, [pc, #4]	; (10003cec <tusb_inited+0x8>)
10003ce6:	7818      	ldrb	r0, [r3, #0]
10003ce8:	4770      	bx	lr
10003cea:	46c0      	nop			; (mov r8, r8)
10003cec:	20001d8e 	.word	0x20001d8e

10003cf0 <tu_fifo_config>:
10003cf0:	b5f0      	push	{r4, r5, r6, r7, lr}
10003cf2:	46c6      	mov	lr, r8
10003cf4:	b500      	push	{lr}
10003cf6:	0014      	movs	r4, r2
10003cf8:	aa06      	add	r2, sp, #24
10003cfa:	001e      	movs	r6, r3
10003cfc:	7813      	ldrb	r3, [r2, #0]
10003cfe:	2280      	movs	r2, #128	; 0x80
10003d00:	0005      	movs	r5, r0
10003d02:	000f      	movs	r7, r1
10003d04:	4698      	mov	r8, r3
10003d06:	0212      	lsls	r2, r2, #8
10003d08:	4294      	cmp	r4, r2
10003d0a:	d82b      	bhi.n	10003d64 <tu_fifo_config+0x74>
10003d0c:	6940      	ldr	r0, [r0, #20]
10003d0e:	2800      	cmp	r0, #0
10003d10:	d01a      	beq.n	10003d48 <tu_fifo_config+0x58>
10003d12:	2101      	movs	r1, #1
10003d14:	4249      	negs	r1, r1
10003d16:	f004 fc1b 	bl	10008550 <__mutex_enter_timeout_ms_veneer>
10003d1a:	4643      	mov	r3, r8
10003d1c:	80ac      	strh	r4, [r5, #4]
10003d1e:	0064      	lsls	r4, r4, #1
10003d20:	b2a4      	uxth	r4, r4
10003d22:	722b      	strb	r3, [r5, #8]
10003d24:	1e63      	subs	r3, r4, #1
10003d26:	81ab      	strh	r3, [r5, #12]
10003d28:	2300      	movs	r3, #0
10003d2a:	6968      	ldr	r0, [r5, #20]
10003d2c:	4264      	negs	r4, r4
10003d2e:	81eb      	strh	r3, [r5, #14]
10003d30:	602f      	str	r7, [r5, #0]
10003d32:	80ee      	strh	r6, [r5, #6]
10003d34:	816c      	strh	r4, [r5, #10]
10003d36:	822b      	strh	r3, [r5, #16]
10003d38:	2800      	cmp	r0, #0
10003d3a:	d011      	beq.n	10003d60 <tu_fifo_config+0x70>
10003d3c:	f004 fbe0 	bl	10008500 <__mutex_exit_veneer>
10003d40:	2001      	movs	r0, #1
10003d42:	bc04      	pop	{r2}
10003d44:	4690      	mov	r8, r2
10003d46:	bdf0      	pop	{r4, r5, r6, r7, pc}
10003d48:	80ac      	strh	r4, [r5, #4]
10003d4a:	0064      	lsls	r4, r4, #1
10003d4c:	b2a4      	uxth	r4, r4
10003d4e:	722b      	strb	r3, [r5, #8]
10003d50:	1e63      	subs	r3, r4, #1
10003d52:	4264      	negs	r4, r4
10003d54:	81e8      	strh	r0, [r5, #14]
10003d56:	6029      	str	r1, [r5, #0]
10003d58:	80ee      	strh	r6, [r5, #6]
10003d5a:	81ab      	strh	r3, [r5, #12]
10003d5c:	816c      	strh	r4, [r5, #10]
10003d5e:	8228      	strh	r0, [r5, #16]
10003d60:	2001      	movs	r0, #1
10003d62:	e7ee      	b.n	10003d42 <tu_fifo_config+0x52>
10003d64:	2000      	movs	r0, #0
10003d66:	e7ec      	b.n	10003d42 <tu_fifo_config+0x52>

10003d68 <tu_fifo_count>:
10003d68:	b510      	push	{r4, lr}
10003d6a:	89c4      	ldrh	r4, [r0, #14]
10003d6c:	8a01      	ldrh	r1, [r0, #16]
10003d6e:	0002      	movs	r2, r0
10003d70:	1a60      	subs	r0, r4, r1
10003d72:	b280      	uxth	r0, r0
10003d74:	428c      	cmp	r4, r1
10003d76:	d202      	bcs.n	10003d7e <tu_fifo_count+0x16>
10003d78:	8953      	ldrh	r3, [r2, #10]
10003d7a:	1ac0      	subs	r0, r0, r3
10003d7c:	b280      	uxth	r0, r0
10003d7e:	bd10      	pop	{r4, pc}

10003d80 <tu_fifo_remaining>:
10003d80:	b510      	push	{r4, lr}
10003d82:	89c4      	ldrh	r4, [r0, #14]
10003d84:	8a01      	ldrh	r1, [r0, #16]
10003d86:	8883      	ldrh	r3, [r0, #4]
10003d88:	1a62      	subs	r2, r4, r1
10003d8a:	b292      	uxth	r2, r2
10003d8c:	428c      	cmp	r4, r1
10003d8e:	d202      	bcs.n	10003d96 <tu_fifo_remaining+0x16>
10003d90:	8940      	ldrh	r0, [r0, #10]
10003d92:	1a12      	subs	r2, r2, r0
10003d94:	b292      	uxth	r2, r2
10003d96:	1a98      	subs	r0, r3, r2
10003d98:	b280      	uxth	r0, r0
10003d9a:	bd10      	pop	{r4, pc}

10003d9c <tu_fifo_read>:
10003d9c:	b5f8      	push	{r3, r4, r5, r6, r7, lr}
10003d9e:	0004      	movs	r4, r0
10003da0:	6940      	ldr	r0, [r0, #20]
10003da2:	000e      	movs	r6, r1
10003da4:	2800      	cmp	r0, #0
10003da6:	d003      	beq.n	10003db0 <tu_fifo_read+0x14>
10003da8:	2101      	movs	r1, #1
10003daa:	4249      	negs	r1, r1
10003dac:	f004 fbd0 	bl	10008550 <__mutex_enter_timeout_ms_veneer>
10003db0:	89e5      	ldrh	r5, [r4, #14]
10003db2:	8a20      	ldrh	r0, [r4, #16]
10003db4:	b2a9      	uxth	r1, r5
10003db6:	1a2a      	subs	r2, r5, r0
10003db8:	b283      	uxth	r3, r0
10003dba:	b292      	uxth	r2, r2
10003dbc:	4285      	cmp	r5, r0
10003dbe:	d202      	bcs.n	10003dc6 <tu_fifo_read+0x2a>
10003dc0:	8960      	ldrh	r0, [r4, #10]
10003dc2:	1a12      	subs	r2, r2, r0
10003dc4:	b292      	uxth	r2, r2
10003dc6:	88a0      	ldrh	r0, [r4, #4]
10003dc8:	89a7      	ldrh	r7, [r4, #12]
10003dca:	4290      	cmp	r0, r2
10003dcc:	d205      	bcs.n	10003dda <tu_fifo_read+0x3e>
10003dce:	1a0a      	subs	r2, r1, r0
10003dd0:	42ba      	cmp	r2, r7
10003dd2:	dc2b      	bgt.n	10003e2c <tu_fifo_read+0x90>
10003dd4:	b292      	uxth	r2, r2
10003dd6:	8222      	strh	r2, [r4, #16]
10003dd8:	0002      	movs	r2, r0
10003dda:	2a00      	cmp	r2, #0
10003ddc:	d02e      	beq.n	10003e3c <tu_fifo_read+0xa0>
10003dde:	42bb      	cmp	r3, r7
10003de0:	d906      	bls.n	10003df0 <tu_fifo_read+0x54>
10003de2:	8961      	ldrh	r1, [r4, #10]
10003de4:	185b      	adds	r3, r3, r1
10003de6:	b29b      	uxth	r3, r3
10003de8:	4298      	cmp	r0, r3
10003dea:	d803      	bhi.n	10003df4 <tu_fifo_read+0x58>
10003dec:	1a1b      	subs	r3, r3, r0
10003dee:	b29b      	uxth	r3, r3
10003df0:	4298      	cmp	r0, r3
10003df2:	d9fb      	bls.n	10003dec <tu_fifo_read+0x50>
10003df4:	88e2      	ldrh	r2, [r4, #6]
10003df6:	6821      	ldr	r1, [r4, #0]
10003df8:	4353      	muls	r3, r2
10003dfa:	0030      	movs	r0, r6
10003dfc:	18c9      	adds	r1, r1, r3
10003dfe:	f002 fd1d 	bl	1000683c <__wrap___aeabi_memcpy>
10003e02:	2501      	movs	r5, #1
10003e04:	2001      	movs	r0, #1
10003e06:	2201      	movs	r2, #1
10003e08:	89a7      	ldrh	r7, [r4, #12]
10003e0a:	8a21      	ldrh	r1, [r4, #16]
10003e0c:	b28b      	uxth	r3, r1
10003e0e:	1809      	adds	r1, r1, r0
10003e10:	42b9      	cmp	r1, r7
10003e12:	dd10      	ble.n	10003e36 <tu_fifo_read+0x9a>
10003e14:	8961      	ldrh	r1, [r4, #10]
10003e16:	185b      	adds	r3, r3, r1
10003e18:	18d3      	adds	r3, r2, r3
10003e1a:	b29b      	uxth	r3, r3
10003e1c:	6960      	ldr	r0, [r4, #20]
10003e1e:	8223      	strh	r3, [r4, #16]
10003e20:	2800      	cmp	r0, #0
10003e22:	d001      	beq.n	10003e28 <tu_fifo_read+0x8c>
10003e24:	f004 fb6c 	bl	10008500 <__mutex_exit_veneer>
10003e28:	0028      	movs	r0, r5
10003e2a:	bdf8      	pop	{r3, r4, r5, r6, r7, pc}
10003e2c:	8962      	ldrh	r2, [r4, #10]
10003e2e:	1882      	adds	r2, r0, r2
10003e30:	1a8a      	subs	r2, r1, r2
10003e32:	b292      	uxth	r2, r2
10003e34:	e7cf      	b.n	10003dd6 <tu_fifo_read+0x3a>
10003e36:	189b      	adds	r3, r3, r2
10003e38:	b29b      	uxth	r3, r3
10003e3a:	e7ef      	b.n	10003e1c <tu_fifo_read+0x80>
10003e3c:	2000      	movs	r0, #0
10003e3e:	2500      	movs	r5, #0
10003e40:	e7e3      	b.n	10003e0a <tu_fifo_read+0x6e>
10003e42:	46c0      	nop			; (mov r8, r8)

10003e44 <tu_fifo_read_n>:
10003e44:	b5f0      	push	{r4, r5, r6, r7, lr}
10003e46:	46c6      	mov	lr, r8
10003e48:	0004      	movs	r4, r0
10003e4a:	6940      	ldr	r0, [r0, #20]
10003e4c:	4688      	mov	r8, r1
10003e4e:	0017      	movs	r7, r2
10003e50:	b500      	push	{lr}
10003e52:	2800      	cmp	r0, #0
10003e54:	d003      	beq.n	10003e5e <tu_fifo_read_n+0x1a>
10003e56:	2101      	movs	r1, #1
10003e58:	4249      	negs	r1, r1
10003e5a:	f004 fb79 	bl	10008550 <__mutex_enter_timeout_ms_veneer>
10003e5e:	89e0      	ldrh	r0, [r4, #14]
10003e60:	8a21      	ldrh	r1, [r4, #16]
10003e62:	b282      	uxth	r2, r0
10003e64:	1a45      	subs	r5, r0, r1
10003e66:	b28b      	uxth	r3, r1
10003e68:	b2ad      	uxth	r5, r5
10003e6a:	4288      	cmp	r0, r1
10003e6c:	d202      	bcs.n	10003e74 <tu_fifo_read_n+0x30>
10003e6e:	8961      	ldrh	r1, [r4, #10]
10003e70:	1a6d      	subs	r5, r5, r1
10003e72:	b2ad      	uxth	r5, r5
10003e74:	88a6      	ldrh	r6, [r4, #4]
10003e76:	89a0      	ldrh	r0, [r4, #12]
10003e78:	42ae      	cmp	r6, r5
10003e7a:	d207      	bcs.n	10003e8c <tu_fifo_read_n+0x48>
10003e7c:	1b93      	subs	r3, r2, r6
10003e7e:	4283      	cmp	r3, r0
10003e80:	dc36      	bgt.n	10003ef0 <tu_fifo_read_n+0xac>
10003e82:	b29b      	uxth	r3, r3
10003e84:	0035      	movs	r5, r6
10003e86:	8223      	strh	r3, [r4, #16]
10003e88:	8a23      	ldrh	r3, [r4, #16]
10003e8a:	b29b      	uxth	r3, r3
10003e8c:	2d00      	cmp	r5, #0
10003e8e:	d039      	beq.n	10003f04 <tu_fifo_read_n+0xc0>
10003e90:	1c3a      	adds	r2, r7, #0
10003e92:	42af      	cmp	r7, r5
10003e94:	d831      	bhi.n	10003efa <tu_fifo_read_n+0xb6>
10003e96:	b295      	uxth	r5, r2
10003e98:	4283      	cmp	r3, r0
10003e9a:	d905      	bls.n	10003ea8 <tu_fifo_read_n+0x64>
10003e9c:	8961      	ldrh	r1, [r4, #10]
10003e9e:	185b      	adds	r3, r3, r1
10003ea0:	b29b      	uxth	r3, r3
10003ea2:	e001      	b.n	10003ea8 <tu_fifo_read_n+0x64>
10003ea4:	1b9b      	subs	r3, r3, r6
10003ea6:	b29b      	uxth	r3, r3
10003ea8:	429e      	cmp	r6, r3
10003eaa:	d9fb      	bls.n	10003ea4 <tu_fifo_read_n+0x60>
10003eac:	195a      	adds	r2, r3, r5
10003eae:	002f      	movs	r7, r5
10003eb0:	88e1      	ldrh	r1, [r4, #6]
10003eb2:	42b2      	cmp	r2, r6
10003eb4:	dc28      	bgt.n	10003f08 <tu_fifo_read_n+0xc4>
10003eb6:	000a      	movs	r2, r1
10003eb8:	4359      	muls	r1, r3
10003eba:	6823      	ldr	r3, [r4, #0]
10003ebc:	4640      	mov	r0, r8
10003ebe:	469c      	mov	ip, r3
10003ec0:	436a      	muls	r2, r5
10003ec2:	4461      	add	r1, ip
10003ec4:	f002 fcba 	bl	1000683c <__wrap___aeabi_memcpy>
10003ec8:	89a0      	ldrh	r0, [r4, #12]
10003eca:	8a22      	ldrh	r2, [r4, #16]
10003ecc:	19d7      	adds	r7, r2, r7
10003ece:	b293      	uxth	r3, r2
10003ed0:	4287      	cmp	r7, r0
10003ed2:	dd14      	ble.n	10003efe <tu_fifo_read_n+0xba>
10003ed4:	8962      	ldrh	r2, [r4, #10]
10003ed6:	189b      	adds	r3, r3, r2
10003ed8:	18eb      	adds	r3, r5, r3
10003eda:	b29b      	uxth	r3, r3
10003edc:	6960      	ldr	r0, [r4, #20]
10003ede:	8223      	strh	r3, [r4, #16]
10003ee0:	2800      	cmp	r0, #0
10003ee2:	d001      	beq.n	10003ee8 <tu_fifo_read_n+0xa4>
10003ee4:	f004 fb0c 	bl	10008500 <__mutex_exit_veneer>
10003ee8:	0028      	movs	r0, r5
10003eea:	bc04      	pop	{r2}
10003eec:	4690      	mov	r8, r2
10003eee:	bdf0      	pop	{r4, r5, r6, r7, pc}
10003ef0:	8963      	ldrh	r3, [r4, #10]
10003ef2:	18f3      	adds	r3, r6, r3
10003ef4:	1ad3      	subs	r3, r2, r3
10003ef6:	b29b      	uxth	r3, r3
10003ef8:	e7c4      	b.n	10003e84 <tu_fifo_read_n+0x40>
10003efa:	1c2a      	adds	r2, r5, #0
10003efc:	e7cb      	b.n	10003e96 <tu_fifo_read_n+0x52>
10003efe:	195b      	adds	r3, r3, r5
10003f00:	b29b      	uxth	r3, r3
10003f02:	e7eb      	b.n	10003edc <tu_fifo_read_n+0x98>
10003f04:	2700      	movs	r7, #0
10003f06:	e7e0      	b.n	10003eca <tu_fifo_read_n+0x86>
10003f08:	1af6      	subs	r6, r6, r3
10003f0a:	b2b6      	uxth	r6, r6
10003f0c:	0032      	movs	r2, r6
10003f0e:	434a      	muls	r2, r1
10003f10:	4359      	muls	r1, r3
10003f12:	6823      	ldr	r3, [r4, #0]
10003f14:	4640      	mov	r0, r8
10003f16:	469c      	mov	ip, r3
10003f18:	4461      	add	r1, ip
10003f1a:	f002 fc8f 	bl	1000683c <__wrap___aeabi_memcpy>
10003f1e:	88e3      	ldrh	r3, [r4, #6]
10003f20:	1baa      	subs	r2, r5, r6
10003f22:	0018      	movs	r0, r3
10003f24:	4370      	muls	r0, r6
10003f26:	435a      	muls	r2, r3
10003f28:	6821      	ldr	r1, [r4, #0]
10003f2a:	4440      	add	r0, r8
10003f2c:	f002 fc86 	bl	1000683c <__wrap___aeabi_memcpy>
10003f30:	89a0      	ldrh	r0, [r4, #12]
10003f32:	e7ca      	b.n	10003eca <tu_fifo_read_n+0x86>

10003f34 <tu_fifo_write>:
10003f34:	b5f8      	push	{r3, r4, r5, r6, r7, lr}
10003f36:	0004      	movs	r4, r0
10003f38:	6940      	ldr	r0, [r0, #20]
10003f3a:	000e      	movs	r6, r1
10003f3c:	2800      	cmp	r0, #0
10003f3e:	d003      	beq.n	10003f48 <tu_fifo_write+0x14>
10003f40:	2101      	movs	r1, #1
10003f42:	4249      	negs	r1, r1
10003f44:	f004 fb04 	bl	10008550 <__mutex_enter_timeout_ms_veneer>
10003f48:	89e2      	ldrh	r2, [r4, #14]
10003f4a:	8a21      	ldrh	r1, [r4, #16]
10003f4c:	b295      	uxth	r5, r2
10003f4e:	1a53      	subs	r3, r2, r1
10003f50:	b29b      	uxth	r3, r3
10003f52:	4291      	cmp	r1, r2
10003f54:	d902      	bls.n	10003f5c <tu_fifo_write+0x28>
10003f56:	8962      	ldrh	r2, [r4, #10]
10003f58:	1a9b      	subs	r3, r3, r2
10003f5a:	b29b      	uxth	r3, r3
10003f5c:	88a2      	ldrh	r2, [r4, #4]
10003f5e:	429a      	cmp	r2, r3
10003f60:	d026      	beq.n	10003fb0 <tu_fifo_write+0x7c>
10003f62:	89a1      	ldrh	r1, [r4, #12]
10003f64:	002b      	movs	r3, r5
10003f66:	42a9      	cmp	r1, r5
10003f68:	d206      	bcs.n	10003f78 <tu_fifo_write+0x44>
10003f6a:	8963      	ldrh	r3, [r4, #10]
10003f6c:	18eb      	adds	r3, r5, r3
10003f6e:	b29b      	uxth	r3, r3
10003f70:	429a      	cmp	r2, r3
10003f72:	d803      	bhi.n	10003f7c <tu_fifo_write+0x48>
10003f74:	1a9b      	subs	r3, r3, r2
10003f76:	b29b      	uxth	r3, r3
10003f78:	429a      	cmp	r2, r3
10003f7a:	d9fb      	bls.n	10003f74 <tu_fifo_write+0x40>
10003f7c:	88e2      	ldrh	r2, [r4, #6]
10003f7e:	6821      	ldr	r1, [r4, #0]
10003f80:	4353      	muls	r3, r2
10003f82:	18c8      	adds	r0, r1, r3
10003f84:	0031      	movs	r1, r6
10003f86:	f002 fc59 	bl	1000683c <__wrap___aeabi_memcpy>
10003f8a:	89a3      	ldrh	r3, [r4, #12]
10003f8c:	42ab      	cmp	r3, r5
10003f8e:	d90a      	bls.n	10003fa6 <tu_fifo_write+0x72>
10003f90:	3501      	adds	r5, #1
10003f92:	b2ad      	uxth	r5, r5
10003f94:	6960      	ldr	r0, [r4, #20]
10003f96:	2701      	movs	r7, #1
10003f98:	81e5      	strh	r5, [r4, #14]
10003f9a:	2800      	cmp	r0, #0
10003f9c:	d001      	beq.n	10003fa2 <tu_fifo_write+0x6e>
10003f9e:	f004 faaf 	bl	10008500 <__mutex_exit_veneer>
10003fa2:	0038      	movs	r0, r7
10003fa4:	bdf8      	pop	{r3, r4, r5, r6, r7, pc}
10003fa6:	8963      	ldrh	r3, [r4, #10]
10003fa8:	18ed      	adds	r5, r5, r3
10003faa:	3501      	adds	r5, #1
10003fac:	b2ad      	uxth	r5, r5
10003fae:	e7f1      	b.n	10003f94 <tu_fifo_write+0x60>
10003fb0:	7a27      	ldrb	r7, [r4, #8]
10003fb2:	2f00      	cmp	r7, #0
10003fb4:	d1d5      	bne.n	10003f62 <tu_fifo_write+0x2e>
10003fb6:	e7f4      	b.n	10003fa2 <tu_fifo_write+0x6e>

10003fb8 <tu_fifo_write_n>:
10003fb8:	b5f8      	push	{r3, r4, r5, r6, r7, lr}
10003fba:	4647      	mov	r7, r8
10003fbc:	46ce      	mov	lr, r9
10003fbe:	0004      	movs	r4, r0
10003fc0:	b580      	push	{r7, lr}
10003fc2:	0015      	movs	r5, r2
10003fc4:	000f      	movs	r7, r1
10003fc6:	2a00      	cmp	r2, #0
10003fc8:	d052      	beq.n	10004070 <tu_fifo_write_n+0xb8>
10003fca:	6940      	ldr	r0, [r0, #20]
10003fcc:	2800      	cmp	r0, #0
10003fce:	d003      	beq.n	10003fd8 <tu_fifo_write_n+0x20>
10003fd0:	2101      	movs	r1, #1
10003fd2:	4249      	negs	r1, r1
10003fd4:	f004 fabc 	bl	10008550 <__mutex_enter_timeout_ms_veneer>
10003fd8:	89e6      	ldrh	r6, [r4, #14]
10003fda:	7a23      	ldrb	r3, [r4, #8]
10003fdc:	8a20      	ldrh	r0, [r4, #16]
10003fde:	88a1      	ldrh	r1, [r4, #4]
10003fe0:	b2b6      	uxth	r6, r6
10003fe2:	b280      	uxth	r0, r0
10003fe4:	2b00      	cmp	r3, #0
10003fe6:	d138      	bne.n	1000405a <tu_fifo_write_n+0xa2>
10003fe8:	1a33      	subs	r3, r6, r0
10003fea:	b29b      	uxth	r3, r3
10003fec:	4286      	cmp	r6, r0
10003fee:	d202      	bcs.n	10003ff6 <tu_fifo_write_n+0x3e>
10003ff0:	8962      	ldrh	r2, [r4, #10]
10003ff2:	1a9b      	subs	r3, r3, r2
10003ff4:	b29b      	uxth	r3, r3
10003ff6:	1acb      	subs	r3, r1, r3
10003ff8:	1c1a      	adds	r2, r3, #0
10003ffa:	b29b      	uxth	r3, r3
10003ffc:	42ab      	cmp	r3, r5
10003ffe:	d852      	bhi.n	100040a6 <tu_fifo_write_n+0xee>
10004000:	b293      	uxth	r3, r2
10004002:	4698      	mov	r8, r3
10004004:	001d      	movs	r5, r3
10004006:	88e2      	ldrh	r2, [r4, #6]
10004008:	89a0      	ldrh	r0, [r4, #12]
1000400a:	0033      	movs	r3, r6
1000400c:	42b0      	cmp	r0, r6
1000400e:	d205      	bcs.n	1000401c <tu_fifo_write_n+0x64>
10004010:	8963      	ldrh	r3, [r4, #10]
10004012:	18f3      	adds	r3, r6, r3
10004014:	b29b      	uxth	r3, r3
10004016:	e001      	b.n	1000401c <tu_fifo_write_n+0x64>
10004018:	1a5b      	subs	r3, r3, r1
1000401a:	b29b      	uxth	r3, r3
1000401c:	428b      	cmp	r3, r1
1000401e:	d2fb      	bcs.n	10004018 <tu_fifo_write_n+0x60>
10004020:	1958      	adds	r0, r3, r5
10004022:	4288      	cmp	r0, r1
10004024:	dc2a      	bgt.n	1000407c <tu_fifo_write_n+0xc4>
10004026:	4353      	muls	r3, r2
10004028:	6821      	ldr	r1, [r4, #0]
1000402a:	436a      	muls	r2, r5
1000402c:	18c8      	adds	r0, r1, r3
1000402e:	0039      	movs	r1, r7
10004030:	f002 fc04 	bl	1000683c <__wrap___aeabi_memcpy>
10004034:	89a3      	ldrh	r3, [r4, #12]
10004036:	1975      	adds	r5, r6, r5
10004038:	429d      	cmp	r5, r3
1000403a:	dd1c      	ble.n	10004076 <tu_fifo_write_n+0xbe>
1000403c:	8963      	ldrh	r3, [r4, #10]
1000403e:	18f6      	adds	r6, r6, r3
10004040:	4446      	add	r6, r8
10004042:	b2b6      	uxth	r6, r6
10004044:	6960      	ldr	r0, [r4, #20]
10004046:	81e6      	strh	r6, [r4, #14]
10004048:	2800      	cmp	r0, #0
1000404a:	d001      	beq.n	10004050 <tu_fifo_write_n+0x98>
1000404c:	f004 fa58 	bl	10008500 <__mutex_exit_veneer>
10004050:	4640      	mov	r0, r8
10004052:	bc0c      	pop	{r2, r3}
10004054:	4690      	mov	r8, r2
10004056:	4699      	mov	r9, r3
10004058:	bdf8      	pop	{r3, r4, r5, r6, r7, pc}
1000405a:	46a8      	mov	r8, r5
1000405c:	88e2      	ldrh	r2, [r4, #6]
1000405e:	42a9      	cmp	r1, r5
10004060:	d2d2      	bcs.n	10004008 <tu_fifo_write_n+0x50>
10004062:	1a6d      	subs	r5, r5, r1
10004064:	4355      	muls	r5, r2
10004066:	4688      	mov	r8, r1
10004068:	197f      	adds	r7, r7, r5
1000406a:	81e0      	strh	r0, [r4, #14]
1000406c:	000d      	movs	r5, r1
1000406e:	e7cb      	b.n	10004008 <tu_fifo_write_n+0x50>
10004070:	2300      	movs	r3, #0
10004072:	4698      	mov	r8, r3
10004074:	e7ec      	b.n	10004050 <tu_fifo_write_n+0x98>
10004076:	4446      	add	r6, r8
10004078:	b2b6      	uxth	r6, r6
1000407a:	e7e3      	b.n	10004044 <tu_fifo_write_n+0x8c>
1000407c:	1ac9      	subs	r1, r1, r3
1000407e:	b289      	uxth	r1, r1
10004080:	4689      	mov	r9, r1
10004082:	4353      	muls	r3, r2
10004084:	6821      	ldr	r1, [r4, #0]
10004086:	18c8      	adds	r0, r1, r3
10004088:	464b      	mov	r3, r9
1000408a:	0039      	movs	r1, r7
1000408c:	435a      	muls	r2, r3
1000408e:	f002 fbd5 	bl	1000683c <__wrap___aeabi_memcpy>
10004092:	464b      	mov	r3, r9
10004094:	88e1      	ldrh	r1, [r4, #6]
10004096:	1aea      	subs	r2, r5, r3
10004098:	434a      	muls	r2, r1
1000409a:	4359      	muls	r1, r3
1000409c:	6820      	ldr	r0, [r4, #0]
1000409e:	1879      	adds	r1, r7, r1
100040a0:	f002 fbcc 	bl	1000683c <__wrap___aeabi_memcpy>
100040a4:	e7c6      	b.n	10004034 <tu_fifo_write_n+0x7c>
100040a6:	1c2a      	adds	r2, r5, #0
100040a8:	b293      	uxth	r3, r2
100040aa:	4698      	mov	r8, r3
100040ac:	001d      	movs	r5, r3
100040ae:	88e2      	ldrh	r2, [r4, #6]
100040b0:	e7aa      	b.n	10004008 <tu_fifo_write_n+0x50>
100040b2:	46c0      	nop			; (mov r8, r8)

100040b4 <tu_fifo_clear>:
100040b4:	b510      	push	{r4, lr}
100040b6:	0004      	movs	r4, r0
100040b8:	6940      	ldr	r0, [r0, #20]
100040ba:	2800      	cmp	r0, #0
100040bc:	d00d      	beq.n	100040da <tu_fifo_clear+0x26>
100040be:	2101      	movs	r1, #1
100040c0:	4249      	negs	r1, r1
100040c2:	f004 fa45 	bl	10008550 <__mutex_enter_timeout_ms_veneer>
100040c6:	2300      	movs	r3, #0
100040c8:	6960      	ldr	r0, [r4, #20]
100040ca:	81e3      	strh	r3, [r4, #14]
100040cc:	8223      	strh	r3, [r4, #16]
100040ce:	2800      	cmp	r0, #0
100040d0:	d001      	beq.n	100040d6 <tu_fifo_clear+0x22>
100040d2:	f004 fa15 	bl	10008500 <__mutex_exit_veneer>
100040d6:	2001      	movs	r0, #1
100040d8:	bd10      	pop	{r4, pc}
100040da:	81e0      	strh	r0, [r4, #14]
100040dc:	8220      	strh	r0, [r4, #16]
100040de:	e7fa      	b.n	100040d6 <tu_fifo_clear+0x22>

100040e0 <irq_set_enabled>:
100040e0:	2301      	movs	r3, #1
100040e2:	4083      	lsls	r3, r0
100040e4:	2900      	cmp	r1, #0
100040e6:	d004      	beq.n	100040f2 <irq_set_enabled+0x12>
100040e8:	4a03      	ldr	r2, [pc, #12]	; (100040f8 <irq_set_enabled+0x18>)
100040ea:	6013      	str	r3, [r2, #0]
100040ec:	4a03      	ldr	r2, [pc, #12]	; (100040fc <irq_set_enabled+0x1c>)
100040ee:	6013      	str	r3, [r2, #0]
100040f0:	4770      	bx	lr
100040f2:	4a03      	ldr	r2, [pc, #12]	; (10004100 <irq_set_enabled+0x20>)
100040f4:	6013      	str	r3, [r2, #0]
100040f6:	e7fb      	b.n	100040f0 <irq_set_enabled+0x10>
100040f8:	e000e280 	.word	0xe000e280
100040fc:	e000e100 	.word	0xe000e100
10004100:	e000e180 	.word	0xe000e180

10004104 <irq_set_pending>:
10004104:	2301      	movs	r3, #1
10004106:	4083      	lsls	r3, r0
10004108:	4a01      	ldr	r2, [pc, #4]	; (10004110 <irq_set_pending+0xc>)
1000410a:	6013      	str	r3, [r2, #0]
1000410c:	4770      	bx	lr
1000410e:	46c0      	nop			; (mov r8, r8)
10004110:	e000e200 	.word	0xe000e200

10004114 <irq_get_vtable_handler>:
10004114:	4b02      	ldr	r3, [pc, #8]	; (10004120 <irq_get_vtable_handler+0xc>)
10004116:	3010      	adds	r0, #16
10004118:	689b      	ldr	r3, [r3, #8]
1000411a:	0080      	lsls	r0, r0, #2
1000411c:	58c0      	ldr	r0, [r0, r3]
1000411e:	4770      	bx	lr
10004120:	e000ed00 	.word	0xe000ed00

10004124 <irq_set_exclusive_handler>:
10004124:	b570      	push	{r4, r5, r6, lr}
10004126:	000d      	movs	r5, r1
10004128:	f3ef 8610 	mrs	r6, PRIMASK
1000412c:	b672      	cpsid	i
1000412e:	4a0f      	ldr	r2, [pc, #60]	; (1000416c <irq_set_exclusive_handler+0x48>)
10004130:	6813      	ldr	r3, [r2, #0]
10004132:	2b00      	cmp	r3, #0
10004134:	d0fc      	beq.n	10004130 <irq_set_exclusive_handler+0xc>
10004136:	f3bf 8f5f 	dmb	sy
1000413a:	4b0d      	ldr	r3, [pc, #52]	; (10004170 <irq_set_exclusive_handler+0x4c>)
1000413c:	3010      	adds	r0, #16
1000413e:	689b      	ldr	r3, [r3, #8]
10004140:	0084      	lsls	r4, r0, #2
10004142:	591b      	ldr	r3, [r3, r4]
10004144:	4a0b      	ldr	r2, [pc, #44]	; (10004174 <irq_set_exclusive_handler+0x50>)
10004146:	4293      	cmp	r3, r2
10004148:	d003      	beq.n	10004152 <irq_set_exclusive_handler+0x2e>
1000414a:	429d      	cmp	r5, r3
1000414c:	d001      	beq.n	10004152 <irq_set_exclusive_handler+0x2e>
1000414e:	f001 fa7f 	bl	10005650 <hard_assertion_failure>
10004152:	4b07      	ldr	r3, [pc, #28]	; (10004170 <irq_set_exclusive_handler+0x4c>)
10004154:	689b      	ldr	r3, [r3, #8]
10004156:	511d      	str	r5, [r3, r4]
10004158:	f3bf 8f5f 	dmb	sy
1000415c:	f3bf 8f5f 	dmb	sy
10004160:	2200      	movs	r2, #0
10004162:	4b02      	ldr	r3, [pc, #8]	; (1000416c <irq_set_exclusive_handler+0x48>)
10004164:	601a      	str	r2, [r3, #0]
10004166:	f386 8810 	msr	PRIMASK, r6
1000416a:	bd70      	pop	{r4, r5, r6, pc}
1000416c:	d0000124 	.word	0xd0000124
10004170:	e000ed00 	.word	0xe000ed00
10004174:	100002cd 	.word	0x100002cd

10004178 <irq_remove_handler>:
10004178:	b5f0      	push	{r4, r5, r6, r7, lr}
1000417a:	46de      	mov	lr, fp
1000417c:	4657      	mov	r7, sl
1000417e:	464e      	mov	r6, r9
10004180:	4645      	mov	r5, r8
10004182:	b5e0      	push	{r5, r6, r7, lr}
10004184:	000c      	movs	r4, r1
10004186:	b083      	sub	sp, #12
10004188:	f3ef 8a10 	mrs	sl, PRIMASK
1000418c:	b672      	cpsid	i
1000418e:	4a5f      	ldr	r2, [pc, #380]	; (1000430c <irq_remove_handler+0x194>)
10004190:	6813      	ldr	r3, [r2, #0]
10004192:	2b00      	cmp	r3, #0
10004194:	d0fc      	beq.n	10004190 <irq_remove_handler+0x18>
10004196:	f3bf 8f5f 	dmb	sy
1000419a:	2210      	movs	r2, #16
1000419c:	4691      	mov	r9, r2
1000419e:	4481      	add	r9, r0
100041a0:	464a      	mov	r2, r9
100041a2:	4b5b      	ldr	r3, [pc, #364]	; (10004310 <irq_remove_handler+0x198>)
100041a4:	0096      	lsls	r6, r2, #2
100041a6:	689b      	ldr	r3, [r3, #8]
100041a8:	599d      	ldr	r5, [r3, r6]
100041aa:	4b5a      	ldr	r3, [pc, #360]	; (10004314 <irq_remove_handler+0x19c>)
100041ac:	4698      	mov	r8, r3
100041ae:	429d      	cmp	r5, r3
100041b0:	d005      	beq.n	100041be <irq_remove_handler+0x46>
100041b2:	42a5      	cmp	r5, r4
100041b4:	d016      	beq.n	100041e4 <irq_remove_handler+0x6c>
100041b6:	4f58      	ldr	r7, [pc, #352]	; (10004318 <irq_remove_handler+0x1a0>)
100041b8:	1beb      	subs	r3, r5, r7
100041ba:	2b2f      	cmp	r3, #47	; 0x2f
100041bc:	d914      	bls.n	100041e8 <irq_remove_handler+0x70>
100041be:	4b54      	ldr	r3, [pc, #336]	; (10004310 <irq_remove_handler+0x198>)
100041c0:	689b      	ldr	r3, [r3, #8]
100041c2:	519d      	str	r5, [r3, r6]
100041c4:	f3bf 8f5f 	dmb	sy
100041c8:	f3bf 8f5f 	dmb	sy
100041cc:	2200      	movs	r2, #0
100041ce:	4b4f      	ldr	r3, [pc, #316]	; (1000430c <irq_remove_handler+0x194>)
100041d0:	601a      	str	r2, [r3, #0]
100041d2:	f38a 8810 	msr	PRIMASK, sl
100041d6:	b003      	add	sp, #12
100041d8:	bc3c      	pop	{r2, r3, r4, r5}
100041da:	4690      	mov	r8, r2
100041dc:	4699      	mov	r9, r3
100041de:	46a2      	mov	sl, r4
100041e0:	46ab      	mov	fp, r5
100041e2:	bdf0      	pop	{r4, r5, r6, r7, pc}
100041e4:	001d      	movs	r5, r3
100041e6:	e7ea      	b.n	100041be <irq_remove_handler+0x46>
100041e8:	2301      	movs	r3, #1
100041ea:	4083      	lsls	r3, r0
100041ec:	469b      	mov	fp, r3
100041ee:	465a      	mov	r2, fp
100041f0:	4b4a      	ldr	r3, [pc, #296]	; (1000431c <irq_remove_handler+0x1a4>)
100041f2:	681b      	ldr	r3, [r3, #0]
100041f4:	401a      	ands	r2, r3
100041f6:	9200      	str	r2, [sp, #0]
100041f8:	465a      	mov	r2, fp
100041fa:	4b49      	ldr	r3, [pc, #292]	; (10004320 <irq_remove_handler+0x1a8>)
100041fc:	601a      	str	r2, [r3, #0]
100041fe:	f3bf 8f5f 	dmb	sy
10004202:	f7fb ffc8 	bl	10000196 <__get_current_exception>
10004206:	9001      	str	r0, [sp, #4]
10004208:	2800      	cmp	r0, #0
1000420a:	d003      	beq.n	10004214 <irq_remove_handler+0x9c>
1000420c:	4581      	cmp	r9, r0
1000420e:	d001      	beq.n	10004214 <irq_remove_handler+0x9c>
10004210:	f001 fa1e 	bl	10005650 <hard_assertion_failure>
10004214:	2301      	movs	r3, #1
10004216:	0029      	movs	r1, r5
10004218:	4399      	bics	r1, r3
1000421a:	688b      	ldr	r3, [r1, #8]
1000421c:	42a3      	cmp	r3, r4
1000421e:	d069      	beq.n	100042f4 <irq_remove_handler+0x17c>
10004220:	000a      	movs	r2, r1
10004222:	e007      	b.n	10004234 <irq_remove_handler+0xbc>
10004224:	0043      	lsls	r3, r0, #1
10004226:	181b      	adds	r3, r3, r0
10004228:	009b      	lsls	r3, r3, #2
1000422a:	18fb      	adds	r3, r7, r3
1000422c:	6898      	ldr	r0, [r3, #8]
1000422e:	42a0      	cmp	r0, r4
10004230:	d011      	beq.n	10004256 <irq_remove_handler+0xde>
10004232:	001a      	movs	r2, r3
10004234:	2006      	movs	r0, #6
10004236:	5610      	ldrsb	r0, [r2, r0]
10004238:	2800      	cmp	r0, #0
1000423a:	daf3      	bge.n	10004224 <irq_remove_handler+0xac>
1000423c:	9b00      	ldr	r3, [sp, #0]
1000423e:	2b00      	cmp	r3, #0
10004240:	d005      	beq.n	1000424e <irq_remove_handler+0xd6>
10004242:	465a      	mov	r2, fp
10004244:	4b37      	ldr	r3, [pc, #220]	; (10004324 <irq_remove_handler+0x1ac>)
10004246:	601a      	str	r2, [r3, #0]
10004248:	4b34      	ldr	r3, [pc, #208]	; (1000431c <irq_remove_handler+0x1a4>)
1000424a:	601a      	str	r2, [r3, #0]
1000424c:	e7b7      	b.n	100041be <irq_remove_handler+0x46>
1000424e:	465a      	mov	r2, fp
10004250:	4b33      	ldr	r3, [pc, #204]	; (10004320 <irq_remove_handler+0x1a8>)
10004252:	601a      	str	r2, [r3, #0]
10004254:	e7b3      	b.n	100041be <irq_remove_handler+0x46>
10004256:	2006      	movs	r0, #6
10004258:	5618      	ldrsb	r0, [r3, r0]
1000425a:	2800      	cmp	r0, #0
1000425c:	db22      	blt.n	100042a4 <irq_remove_handler+0x12c>
1000425e:	0042      	lsls	r2, r0, #1
10004260:	1811      	adds	r1, r2, r0
10004262:	0089      	lsls	r1, r1, #2
10004264:	187c      	adds	r4, r7, r1
10004266:	4688      	mov	r8, r1
10004268:	68a1      	ldr	r1, [r4, #8]
1000426a:	6099      	str	r1, [r3, #8]
1000426c:	79e1      	ldrb	r1, [r4, #7]
1000426e:	71d9      	strb	r1, [r3, #7]
10004270:	2106      	movs	r1, #6
10004272:	5661      	ldrsb	r1, [r4, r1]
10004274:	7199      	strb	r1, [r3, #6]
10004276:	79a1      	ldrb	r1, [r4, #6]
10004278:	297f      	cmp	r1, #127	; 0x7f
1000427a:	d82b      	bhi.n	100042d4 <irq_remove_handler+0x15c>
1000427c:	88a4      	ldrh	r4, [r4, #4]
1000427e:	1af9      	subs	r1, r7, r3
10004280:	0564      	lsls	r4, r4, #21
10004282:	1524      	asrs	r4, r4, #20
10004284:	4444      	add	r4, r8
10004286:	1909      	adds	r1, r1, r4
10004288:	24e0      	movs	r4, #224	; 0xe0
1000428a:	0509      	lsls	r1, r1, #20
1000428c:	0d49      	lsrs	r1, r1, #21
1000428e:	0224      	lsls	r4, r4, #8
10004290:	4321      	orrs	r1, r4
10004292:	8099      	strh	r1, [r3, #4]
10004294:	1812      	adds	r2, r2, r0
10004296:	4b24      	ldr	r3, [pc, #144]	; (10004328 <irq_remove_handler+0x1b0>)
10004298:	0092      	lsls	r2, r2, #2
1000429a:	18bf      	adds	r7, r7, r2
1000429c:	781a      	ldrb	r2, [r3, #0]
1000429e:	7018      	strb	r0, [r3, #0]
100042a0:	71ba      	strb	r2, [r7, #6]
100042a2:	e7cb      	b.n	1000423c <irq_remove_handler+0xc4>
100042a4:	9801      	ldr	r0, [sp, #4]
100042a6:	2800      	cmp	r0, #0
100042a8:	d117      	bne.n	100042da <irq_remove_handler+0x162>
100042aa:	30ff      	adds	r0, #255	; 0xff
100042ac:	7190      	strb	r0, [r2, #6]
100042ae:	481f      	ldr	r0, [pc, #124]	; (1000432c <irq_remove_handler+0x1b4>)
100042b0:	8090      	strh	r0, [r2, #4]
100042b2:	4a1d      	ldr	r2, [pc, #116]	; (10004328 <irq_remove_handler+0x1b0>)
100042b4:	1bcf      	subs	r7, r1, r7
100042b6:	7810      	ldrb	r0, [r2, #0]
100042b8:	10bf      	asrs	r7, r7, #2
100042ba:	7198      	strb	r0, [r3, #6]
100042bc:	00bb      	lsls	r3, r7, #2
100042be:	19db      	adds	r3, r3, r7
100042c0:	0119      	lsls	r1, r3, #4
100042c2:	185b      	adds	r3, r3, r1
100042c4:	0219      	lsls	r1, r3, #8
100042c6:	185b      	adds	r3, r3, r1
100042c8:	0419      	lsls	r1, r3, #16
100042ca:	185b      	adds	r3, r3, r1
100042cc:	005b      	lsls	r3, r3, #1
100042ce:	19db      	adds	r3, r3, r7
100042d0:	7013      	strb	r3, [r2, #0]
100042d2:	e7b3      	b.n	1000423c <irq_remove_handler+0xc4>
100042d4:	21bd      	movs	r1, #189	; 0xbd
100042d6:	0209      	lsls	r1, r1, #8
100042d8:	e7db      	b.n	10004292 <irq_remove_handler+0x11a>
100042da:	4a15      	ldr	r2, [pc, #84]	; (10004330 <irq_remove_handler+0x1b8>)
100042dc:	4915      	ldr	r1, [pc, #84]	; (10004334 <irq_remove_handler+0x1bc>)
100042de:	1ad2      	subs	r2, r2, r3
100042e0:	3a08      	subs	r2, #8
100042e2:	0250      	lsls	r0, r2, #9
100042e4:	0d40      	lsrs	r0, r0, #21
100042e6:	4301      	orrs	r1, r0
100042e8:	8099      	strh	r1, [r3, #4]
100042ea:	4913      	ldr	r1, [pc, #76]	; (10004338 <irq_remove_handler+0x1c0>)
100042ec:	0852      	lsrs	r2, r2, #1
100042ee:	430a      	orrs	r2, r1
100042f0:	80da      	strh	r2, [r3, #6]
100042f2:	e7a3      	b.n	1000423c <irq_remove_handler+0xc4>
100042f4:	2006      	movs	r0, #6
100042f6:	5608      	ldrsb	r0, [r1, r0]
100042f8:	000b      	movs	r3, r1
100042fa:	2800      	cmp	r0, #0
100042fc:	daaf      	bge.n	1000425e <irq_remove_handler+0xe6>
100042fe:	9a01      	ldr	r2, [sp, #4]
10004300:	2a00      	cmp	r2, #0
10004302:	d1ea      	bne.n	100042da <irq_remove_handler+0x162>
10004304:	000b      	movs	r3, r1
10004306:	4645      	mov	r5, r8
10004308:	e7d3      	b.n	100042b2 <irq_remove_handler+0x13a>
1000430a:	46c0      	nop			; (mov r8, r8)
1000430c:	d0000124 	.word	0xd0000124
10004310:	e000ed00 	.word	0xe000ed00
10004314:	100002cd 	.word	0x100002cd
10004318:	20000320 	.word	0x20000320
1000431c:	e000e100 	.word	0xe000e100
10004320:	e000e180 	.word	0xe000e180
10004324:	e000e280 	.word	0xe000e280
10004328:	20001d91 	.word	0x20001d91
1000432c:	ffffbd00 	.word	0xffffbd00
10004330:	2000035a 	.word	0x2000035a
10004334:	fffff000 	.word	0xfffff000
10004338:	fffff800 	.word	0xfffff800

1000433c <irq_add_tail_to_free_list>:
1000433c:	b5f8      	push	{r3, r4, r5, r6, r7, lr}
1000433e:	2501      	movs	r5, #1
10004340:	0004      	movs	r4, r0
10004342:	4305      	orrs	r5, r0
10004344:	f7fb ff27 	bl	10000196 <__get_current_exception>
10004348:	f3ef 8610 	mrs	r6, PRIMASK
1000434c:	b672      	cpsid	i
1000434e:	4a24      	ldr	r2, [pc, #144]	; (100043e0 <irq_add_tail_to_free_list+0xa4>)
10004350:	6813      	ldr	r3, [r2, #0]
10004352:	2b00      	cmp	r3, #0
10004354:	d0fc      	beq.n	10004350 <irq_add_tail_to_free_list+0x14>
10004356:	f3bf 8f5f 	dmb	sy
1000435a:	4f22      	ldr	r7, [pc, #136]	; (100043e4 <irq_add_tail_to_free_list+0xa8>)
1000435c:	0080      	lsls	r0, r0, #2
1000435e:	1be1      	subs	r1, r4, r7
10004360:	1089      	asrs	r1, r1, #2
10004362:	008a      	lsls	r2, r1, #2
10004364:	1852      	adds	r2, r2, r1
10004366:	0113      	lsls	r3, r2, #4
10004368:	18d2      	adds	r2, r2, r3
1000436a:	0213      	lsls	r3, r2, #8
1000436c:	18d2      	adds	r2, r2, r3
1000436e:	0413      	lsls	r3, r2, #16
10004370:	18d3      	adds	r3, r2, r3
10004372:	4a1d      	ldr	r2, [pc, #116]	; (100043e8 <irq_add_tail_to_free_list+0xac>)
10004374:	005b      	lsls	r3, r3, #1
10004376:	185b      	adds	r3, r3, r1
10004378:	6891      	ldr	r1, [r2, #8]
1000437a:	5809      	ldr	r1, [r1, r0]
1000437c:	42a9      	cmp	r1, r5
1000437e:	d01c      	beq.n	100043ba <irq_add_tail_to_free_list+0x7e>
10004380:	2206      	movs	r2, #6
10004382:	56ba      	ldrsb	r2, [r7, r2]
10004384:	4293      	cmp	r3, r2
10004386:	d01c      	beq.n	100043c2 <irq_add_tail_to_free_list+0x86>
10004388:	2212      	movs	r2, #18
1000438a:	56ba      	ldrsb	r2, [r7, r2]
1000438c:	4293      	cmp	r3, r2
1000438e:	d022      	beq.n	100043d6 <irq_add_tail_to_free_list+0x9a>
10004390:	221e      	movs	r2, #30
10004392:	56ba      	ldrsb	r2, [r7, r2]
10004394:	4293      	cmp	r3, r2
10004396:	d020      	beq.n	100043da <irq_add_tail_to_free_list+0x9e>
10004398:	222a      	movs	r2, #42	; 0x2a
1000439a:	56ba      	ldrsb	r2, [r7, r2]
1000439c:	2103      	movs	r1, #3
1000439e:	429a      	cmp	r2, r3
100043a0:	d010      	beq.n	100043c4 <irq_add_tail_to_free_list+0x88>
100043a2:	4a12      	ldr	r2, [pc, #72]	; (100043ec <irq_add_tail_to_free_list+0xb0>)
100043a4:	7811      	ldrb	r1, [r2, #0]
100043a6:	7013      	strb	r3, [r2, #0]
100043a8:	71a1      	strb	r1, [r4, #6]
100043aa:	f3bf 8f5f 	dmb	sy
100043ae:	2200      	movs	r2, #0
100043b0:	4b0b      	ldr	r3, [pc, #44]	; (100043e0 <irq_add_tail_to_free_list+0xa4>)
100043b2:	601a      	str	r2, [r3, #0]
100043b4:	f386 8810 	msr	PRIMASK, r6
100043b8:	bdf8      	pop	{r3, r4, r5, r6, r7, pc}
100043ba:	6892      	ldr	r2, [r2, #8]
100043bc:	490c      	ldr	r1, [pc, #48]	; (100043f0 <irq_add_tail_to_free_list+0xb4>)
100043be:	5011      	str	r1, [r2, r0]
100043c0:	e7ef      	b.n	100043a2 <irq_add_tail_to_free_list+0x66>
100043c2:	2100      	movs	r1, #0
100043c4:	004a      	lsls	r2, r1, #1
100043c6:	1852      	adds	r2, r2, r1
100043c8:	21ff      	movs	r1, #255	; 0xff
100043ca:	0092      	lsls	r2, r2, #2
100043cc:	18ba      	adds	r2, r7, r2
100043ce:	7191      	strb	r1, [r2, #6]
100043d0:	4908      	ldr	r1, [pc, #32]	; (100043f4 <irq_add_tail_to_free_list+0xb8>)
100043d2:	8091      	strh	r1, [r2, #4]
100043d4:	e7e5      	b.n	100043a2 <irq_add_tail_to_free_list+0x66>
100043d6:	2101      	movs	r1, #1
100043d8:	e7f4      	b.n	100043c4 <irq_add_tail_to_free_list+0x88>
100043da:	2102      	movs	r1, #2
100043dc:	e7f2      	b.n	100043c4 <irq_add_tail_to_free_list+0x88>
100043de:	46c0      	nop			; (mov r8, r8)
100043e0:	d0000124 	.word	0xd0000124
100043e4:	20000320 	.word	0x20000320
100043e8:	e000ed00 	.word	0xe000ed00
100043ec:	20001d91 	.word	0x20001d91
100043f0:	100002cd 	.word	0x100002cd
100043f4:	ffffbd00 	.word	0xffffbd00

100043f8 <irq_init_priorities>:
100043f8:	b5f0      	push	{r4, r5, r6, r7, lr}
100043fa:	2200      	movs	r2, #0
100043fc:	2403      	movs	r4, #3
100043fe:	27ff      	movs	r7, #255	; 0xff
10004400:	2680      	movs	r6, #128	; 0x80
10004402:	0020      	movs	r0, r4
10004404:	003d      	movs	r5, r7
10004406:	4b09      	ldr	r3, [pc, #36]	; (1000442c <irq_init_priorities+0x34>)
10004408:	0011      	movs	r1, r2
1000440a:	469c      	mov	ip, r3
1000440c:	4010      	ands	r0, r2
1000440e:	00c0      	lsls	r0, r0, #3
10004410:	4085      	lsls	r5, r0
10004412:	43a1      	bics	r1, r4
10004414:	4461      	add	r1, ip
10004416:	680b      	ldr	r3, [r1, #0]
10004418:	3201      	adds	r2, #1
1000441a:	43ab      	bics	r3, r5
1000441c:	0035      	movs	r5, r6
1000441e:	4085      	lsls	r5, r0
10004420:	432b      	orrs	r3, r5
10004422:	600b      	str	r3, [r1, #0]
10004424:	2a20      	cmp	r2, #32
10004426:	d1ec      	bne.n	10004402 <irq_init_priorities+0xa>
10004428:	bdf0      	pop	{r4, r5, r6, r7, pc}
1000442a:	46c0      	nop			; (mov r8, r8)
1000442c:	e000e400 	.word	0xe000e400

10004430 <hw_claim_or_assert>:
10004430:	b5f8      	push	{r3, r4, r5, r6, r7, lr}
10004432:	46ce      	mov	lr, r9
10004434:	4647      	mov	r7, r8
10004436:	4691      	mov	r9, r2
10004438:	b580      	push	{r7, lr}
1000443a:	f3ef 8710 	mrs	r7, PRIMASK
1000443e:	b672      	cpsid	i
10004440:	4e12      	ldr	r6, [pc, #72]	; (1000448c <hw_claim_or_assert+0x5c>)
10004442:	6833      	ldr	r3, [r6, #0]
10004444:	2b00      	cmp	r3, #0
10004446:	d0fc      	beq.n	10004442 <hw_claim_or_assert+0x12>
10004448:	f3bf 8f5f 	dmb	sy
1000444c:	08cb      	lsrs	r3, r1, #3
1000444e:	5cc5      	ldrb	r5, [r0, r3]
10004450:	2407      	movs	r4, #7
10004452:	18c2      	adds	r2, r0, r3
10004454:	0028      	movs	r0, r5
10004456:	2301      	movs	r3, #1
10004458:	400c      	ands	r4, r1
1000445a:	4694      	mov	ip, r2
1000445c:	40e0      	lsrs	r0, r4
1000445e:	001a      	movs	r2, r3
10004460:	4002      	ands	r2, r0
10004462:	4690      	mov	r8, r2
10004464:	4203      	tst	r3, r0
10004466:	d10d      	bne.n	10004484 <hw_claim_or_assert+0x54>
10004468:	40a3      	lsls	r3, r4
1000446a:	4662      	mov	r2, ip
1000446c:	432b      	orrs	r3, r5
1000446e:	7013      	strb	r3, [r2, #0]
10004470:	f3bf 8f5f 	dmb	sy
10004474:	4643      	mov	r3, r8
10004476:	6033      	str	r3, [r6, #0]
10004478:	f387 8810 	msr	PRIMASK, r7
1000447c:	bc0c      	pop	{r2, r3}
1000447e:	4690      	mov	r8, r2
10004480:	4699      	mov	r9, r3
10004482:	bdf8      	pop	{r3, r4, r5, r6, r7, pc}
10004484:	4648      	mov	r0, r9
10004486:	f001 f8cb 	bl	10005620 <panic>
1000448a:	46c0      	nop			; (mov r8, r8)
1000448c:	d000012c 	.word	0xd000012c

10004490 <hw_claim_unused_from_range>:
10004490:	b5f8      	push	{r3, r4, r5, r6, r7, lr}
10004492:	4647      	mov	r7, r8
10004494:	46ce      	mov	lr, r9
10004496:	4688      	mov	r8, r1
10004498:	b580      	push	{r7, lr}
1000449a:	f3ef 8c10 	mrs	ip, PRIMASK
1000449e:	b672      	cpsid	i
100044a0:	4d21      	ldr	r5, [pc, #132]	; (10004528 <hw_claim_unused_from_range+0x98>)
100044a2:	682c      	ldr	r4, [r5, #0]
100044a4:	2c00      	cmp	r4, #0
100044a6:	d0fc      	beq.n	100044a2 <hw_claim_unused_from_range+0x12>
100044a8:	f3bf 8f5f 	dmb	sy
100044ac:	429a      	cmp	r2, r3
100044ae:	d82d      	bhi.n	1000450c <hw_claim_unused_from_range+0x7c>
100044b0:	08d4      	lsrs	r4, r2, #3
100044b2:	5d05      	ldrb	r5, [r0, r4]
100044b4:	1907      	adds	r7, r0, r4
100044b6:	2407      	movs	r4, #7
100044b8:	002e      	movs	r6, r5
100044ba:	4014      	ands	r4, r2
100044bc:	40e6      	lsrs	r6, r4
100044be:	07f1      	lsls	r1, r6, #31
100044c0:	d51e      	bpl.n	10004500 <hw_claim_unused_from_range+0x70>
100044c2:	2107      	movs	r1, #7
100044c4:	4689      	mov	r9, r1
100044c6:	3906      	subs	r1, #6
100044c8:	e008      	b.n	100044dc <hw_claim_unused_from_range+0x4c>
100044ca:	08d4      	lsrs	r4, r2, #3
100044cc:	5d05      	ldrb	r5, [r0, r4]
100044ce:	1907      	adds	r7, r0, r4
100044d0:	464c      	mov	r4, r9
100044d2:	002e      	movs	r6, r5
100044d4:	4014      	ands	r4, r2
100044d6:	40e6      	lsrs	r6, r4
100044d8:	4231      	tst	r1, r6
100044da:	d011      	beq.n	10004500 <hw_claim_unused_from_range+0x70>
100044dc:	3201      	adds	r2, #1
100044de:	4293      	cmp	r3, r2
100044e0:	d2f3      	bcs.n	100044ca <hw_claim_unused_from_range+0x3a>
100044e2:	2001      	movs	r0, #1
100044e4:	4240      	negs	r0, r0
100044e6:	f3bf 8f5f 	dmb	sy
100044ea:	2200      	movs	r2, #0
100044ec:	4b0e      	ldr	r3, [pc, #56]	; (10004528 <hw_claim_unused_from_range+0x98>)
100044ee:	601a      	str	r2, [r3, #0]
100044f0:	f38c 8810 	msr	PRIMASK, ip
100044f4:	2800      	cmp	r0, #0
100044f6:	db11      	blt.n	1000451c <hw_claim_unused_from_range+0x8c>
100044f8:	bc0c      	pop	{r2, r3}
100044fa:	4690      	mov	r8, r2
100044fc:	4699      	mov	r9, r3
100044fe:	bdf8      	pop	{r3, r4, r5, r6, r7, pc}
10004500:	2301      	movs	r3, #1
10004502:	40a3      	lsls	r3, r4
10004504:	431d      	orrs	r5, r3
10004506:	0010      	movs	r0, r2
10004508:	703d      	strb	r5, [r7, #0]
1000450a:	e7ec      	b.n	100044e6 <hw_claim_unused_from_range+0x56>
1000450c:	f3bf 8f5f 	dmb	sy
10004510:	2300      	movs	r3, #0
10004512:	602b      	str	r3, [r5, #0]
10004514:	f38c 8810 	msr	PRIMASK, ip
10004518:	2001      	movs	r0, #1
1000451a:	4240      	negs	r0, r0
1000451c:	4643      	mov	r3, r8
1000451e:	2b00      	cmp	r3, #0
10004520:	d0ea      	beq.n	100044f8 <hw_claim_unused_from_range+0x68>
10004522:	9808      	ldr	r0, [sp, #32]
10004524:	f001 f87c 	bl	10005620 <panic>
10004528:	d000012c 	.word	0xd000012c

1000452c <spin_locks_reset>:
1000452c:	2100      	movs	r1, #0
1000452e:	4b04      	ldr	r3, [pc, #16]	; (10004540 <spin_locks_reset+0x14>)
10004530:	4a04      	ldr	r2, [pc, #16]	; (10004544 <spin_locks_reset+0x18>)
10004532:	f3bf 8f5f 	dmb	sy
10004536:	c302      	stmia	r3!, {r1}
10004538:	4293      	cmp	r3, r2
1000453a:	d1fa      	bne.n	10004532 <spin_locks_reset+0x6>
1000453c:	4770      	bx	lr
1000453e:	46c0      	nop			; (mov r8, r8)
10004540:	d0000100 	.word	0xd0000100
10004544:	d0000180 	.word	0xd0000180

10004548 <next_striped_spin_lock_num>:
10004548:	4a04      	ldr	r2, [pc, #16]	; (1000455c <next_striped_spin_lock_num+0x14>)
1000454a:	7810      	ldrb	r0, [r2, #0]
1000454c:	1c43      	adds	r3, r0, #1
1000454e:	b2db      	uxtb	r3, r3
10004550:	2b17      	cmp	r3, #23
10004552:	d900      	bls.n	10004556 <next_striped_spin_lock_num+0xe>
10004554:	2310      	movs	r3, #16
10004556:	7013      	strb	r3, [r2, #0]
10004558:	4770      	bx	lr
1000455a:	46c0      	nop			; (mov r8, r8)
1000455c:	20000368 	.word	0x20000368

10004560 <spin_lock_claim_unused>:
10004560:	b500      	push	{lr}
10004562:	4b05      	ldr	r3, [pc, #20]	; (10004578 <spin_lock_claim_unused+0x18>)
10004564:	b083      	sub	sp, #12
10004566:	0001      	movs	r1, r0
10004568:	9300      	str	r3, [sp, #0]
1000456a:	2218      	movs	r2, #24
1000456c:	231f      	movs	r3, #31
1000456e:	4803      	ldr	r0, [pc, #12]	; (1000457c <spin_lock_claim_unused+0x1c>)
10004570:	f7ff ff8e 	bl	10004490 <hw_claim_unused_from_range>
10004574:	b003      	add	sp, #12
10004576:	bd00      	pop	{pc}
10004578:	10008a74 	.word	0x10008a74
1000457c:	2000166c 	.word	0x2000166c

10004580 <running_on_fpga>:
10004580:	4b02      	ldr	r3, [pc, #8]	; (1000458c <running_on_fpga+0xc>)
10004582:	6818      	ldr	r0, [r3, #0]
10004584:	0780      	lsls	r0, r0, #30
10004586:	0fc0      	lsrs	r0, r0, #31
10004588:	4770      	bx	lr
1000458a:	46c0      	nop			; (mov r8, r8)
1000458c:	4006c000 	.word	0x4006c000

10004590 <sem_init>:
10004590:	b570      	push	{r4, r5, r6, lr}
10004592:	0004      	movs	r4, r0
10004594:	000e      	movs	r6, r1
10004596:	0015      	movs	r5, r2
10004598:	f7ff ffd6 	bl	10004548 <next_striped_spin_lock_num>
1000459c:	0001      	movs	r1, r0
1000459e:	0020      	movs	r0, r4
100045a0:	f000 f806 	bl	100045b0 <lock_init>
100045a4:	80a6      	strh	r6, [r4, #4]
100045a6:	80e5      	strh	r5, [r4, #6]
100045a8:	f3bf 8f5f 	dmb	sy
100045ac:	bd70      	pop	{r4, r5, r6, pc}
100045ae:	46c0      	nop			; (mov r8, r8)

100045b0 <lock_init>:
100045b0:	4b02      	ldr	r3, [pc, #8]	; (100045bc <lock_init+0xc>)
100045b2:	469c      	mov	ip, r3
100045b4:	4461      	add	r1, ip
100045b6:	0089      	lsls	r1, r1, #2
100045b8:	6001      	str	r1, [r0, #0]
100045ba:	4770      	bx	lr
100045bc:	34000040 	.word	0x34000040

100045c0 <timer_pool_entry_comparator>:
100045c0:	6883      	ldr	r3, [r0, #8]
100045c2:	480b      	ldr	r0, [pc, #44]	; (100045f0 <timer_pool_entry_comparator+0x30>)
100045c4:	b510      	push	{r4, lr}
100045c6:	4684      	mov	ip, r0
100045c8:	4461      	add	r1, ip
100045ca:	4462      	add	r2, ip
100045cc:	0109      	lsls	r1, r1, #4
100045ce:	0112      	lsls	r2, r2, #4
100045d0:	189a      	adds	r2, r3, r2
100045d2:	1859      	adds	r1, r3, r1
100045d4:	6854      	ldr	r4, [r2, #4]
100045d6:	684b      	ldr	r3, [r1, #4]
100045d8:	2001      	movs	r0, #1
100045da:	429c      	cmp	r4, r3
100045dc:	d801      	bhi.n	100045e2 <timer_pool_entry_comparator+0x22>
100045de:	d002      	beq.n	100045e6 <timer_pool_entry_comparator+0x26>
100045e0:	2000      	movs	r0, #0
100045e2:	b2c0      	uxtb	r0, r0
100045e4:	bd10      	pop	{r4, pc}
100045e6:	6812      	ldr	r2, [r2, #0]
100045e8:	680b      	ldr	r3, [r1, #0]
100045ea:	429a      	cmp	r2, r3
100045ec:	d8f9      	bhi.n	100045e2 <timer_pool_entry_comparator+0x22>
100045ee:	e7f7      	b.n	100045e0 <timer_pool_entry_comparator+0x20>
100045f0:	0fffffff 	.word	0x0fffffff

100045f4 <sev_callback>:
100045f4:	bf40      	sev
100045f6:	2000      	movs	r0, #0
100045f8:	2100      	movs	r1, #0
100045fa:	4770      	bx	lr

100045fc <add_alarm_under_lock>:
100045fc:	b5f0      	push	{r4, r5, r6, r7, lr}
100045fe:	4657      	mov	r7, sl
10004600:	4645      	mov	r5, r8
10004602:	46de      	mov	lr, fp
10004604:	464e      	mov	r6, r9
10004606:	b5e0      	push	{r5, r6, r7, lr}
10004608:	b083      	sub	sp, #12
1000460a:	001f      	movs	r7, r3
1000460c:	ab0f      	add	r3, sp, #60	; 0x3c
1000460e:	781b      	ldrb	r3, [r3, #0]
10004610:	9c0e      	ldr	r4, [sp, #56]	; 0x38
10004612:	0005      	movs	r5, r0
10004614:	4692      	mov	sl, r2
10004616:	9301      	str	r3, [sp, #4]
10004618:	2c00      	cmp	r4, #0
1000461a:	d10d      	bne.n	10004638 <add_alarm_under_lock+0x3c>
1000461c:	6802      	ldr	r2, [r0, #0]
1000461e:	7b94      	ldrb	r4, [r2, #14]
10004620:	2c00      	cmp	r4, #0
10004622:	d056      	beq.n	100046d2 <add_alarm_under_lock+0xd6>
10004624:	6811      	ldr	r1, [r2, #0]
10004626:	0063      	lsls	r3, r4, #1
10004628:	468c      	mov	ip, r1
1000462a:	191b      	adds	r3, r3, r4
1000462c:	4463      	add	r3, ip
1000462e:	3b03      	subs	r3, #3
10004630:	785b      	ldrb	r3, [r3, #1]
10004632:	7393      	strb	r3, [r2, #14]
10004634:	2b00      	cmp	r3, #0
10004636:	d054      	beq.n	100046e2 <add_alarm_under_lock+0xe6>
10004638:	68aa      	ldr	r2, [r5, #8]
1000463a:	b2e3      	uxtb	r3, r4
1000463c:	4694      	mov	ip, r2
1000463e:	4652      	mov	r2, sl
10004640:	469b      	mov	fp, r3
10004642:	4b38      	ldr	r3, [pc, #224]	; (10004724 <add_alarm_under_lock+0x128>)
10004644:	682e      	ldr	r6, [r5, #0]
10004646:	18e3      	adds	r3, r4, r3
10004648:	011b      	lsls	r3, r3, #4
1000464a:	4463      	add	r3, ip
1000464c:	601a      	str	r2, [r3, #0]
1000464e:	9a0c      	ldr	r2, [sp, #48]	; 0x30
10004650:	605f      	str	r7, [r3, #4]
10004652:	609a      	str	r2, [r3, #8]
10004654:	9a0d      	ldr	r2, [sp, #52]	; 0x34
10004656:	60da      	str	r2, [r3, #12]
10004658:	23d0      	movs	r3, #208	; 0xd0
1000465a:	2280      	movs	r2, #128	; 0x80
1000465c:	061b      	lsls	r3, r3, #24
1000465e:	0312      	lsls	r2, r2, #12
10004660:	615a      	str	r2, [r3, #20]
10004662:	0063      	lsls	r3, r4, #1
10004664:	191b      	adds	r3, r3, r4
10004666:	3b03      	subs	r3, #3
10004668:	4698      	mov	r8, r3
1000466a:	2200      	movs	r2, #0
1000466c:	6833      	ldr	r3, [r6, #0]
1000466e:	4443      	add	r3, r8
10004670:	709a      	strb	r2, [r3, #2]
10004672:	705a      	strb	r2, [r3, #1]
10004674:	701a      	strb	r2, [r3, #0]
10004676:	7b73      	ldrb	r3, [r6, #13]
10004678:	4699      	mov	r9, r3
1000467a:	2b00      	cmp	r3, #0
1000467c:	d017      	beq.n	100046ae <add_alarm_under_lock+0xb2>
1000467e:	465a      	mov	r2, fp
10004680:	0019      	movs	r1, r3
10004682:	68b0      	ldr	r0, [r6, #8]
10004684:	6873      	ldr	r3, [r6, #4]
10004686:	4798      	blx	r3
10004688:	6832      	ldr	r2, [r6, #0]
1000468a:	2800      	cmp	r0, #0
1000468c:	d12b      	bne.n	100046e6 <add_alarm_under_lock+0xea>
1000468e:	4643      	mov	r3, r8
10004690:	18d1      	adds	r1, r2, r3
10004692:	464b      	mov	r3, r9
10004694:	4658      	mov	r0, fp
10004696:	005b      	lsls	r3, r3, #1
10004698:	444b      	add	r3, r9
1000469a:	3b03      	subs	r3, #3
1000469c:	18d3      	adds	r3, r2, r3
1000469e:	7098      	strb	r0, [r3, #2]
100046a0:	4640      	mov	r0, r8
100046a2:	5c12      	ldrb	r2, [r2, r0]
100046a4:	2a00      	cmp	r2, #0
100046a6:	d000      	beq.n	100046aa <add_alarm_under_lock+0xae>
100046a8:	705a      	strb	r2, [r3, #1]
100046aa:	464b      	mov	r3, r9
100046ac:	700b      	strb	r3, [r1, #0]
100046ae:	465b      	mov	r3, fp
100046b0:	7373      	strb	r3, [r6, #13]
100046b2:	4652      	mov	r2, sl
100046b4:	003b      	movs	r3, r7
100046b6:	7d28      	ldrb	r0, [r5, #20]
100046b8:	f000 fbea 	bl	10004e90 <hardware_alarm_set_target>
100046bc:	1e06      	subs	r6, r0, #0
100046be:	d002      	beq.n	100046c6 <add_alarm_under_lock+0xca>
100046c0:	9b01      	ldr	r3, [sp, #4]
100046c2:	2b00      	cmp	r3, #0
100046c4:	d026      	beq.n	10004714 <add_alarm_under_lock+0x118>
100046c6:	9b10      	ldr	r3, [sp, #64]	; 0x40
100046c8:	2b00      	cmp	r3, #0
100046ca:	d028      	beq.n	1000471e <add_alarm_under_lock+0x122>
100046cc:	0020      	movs	r0, r4
100046ce:	701e      	strb	r6, [r3, #0]
100046d0:	e000      	b.n	100046d4 <add_alarm_under_lock+0xd8>
100046d2:	2000      	movs	r0, #0
100046d4:	b003      	add	sp, #12
100046d6:	bc3c      	pop	{r2, r3, r4, r5}
100046d8:	4690      	mov	r8, r2
100046da:	4699      	mov	r9, r3
100046dc:	46a2      	mov	sl, r4
100046de:	46ab      	mov	fp, r5
100046e0:	bdf0      	pop	{r4, r5, r6, r7, pc}
100046e2:	73d3      	strb	r3, [r2, #15]
100046e4:	e7a8      	b.n	10004638 <add_alarm_under_lock+0x3c>
100046e6:	464b      	mov	r3, r9
100046e8:	005b      	lsls	r3, r3, #1
100046ea:	444b      	add	r3, r9
100046ec:	3b03      	subs	r3, #3
100046ee:	18d1      	adds	r1, r2, r3
100046f0:	468c      	mov	ip, r1
100046f2:	4641      	mov	r1, r8
100046f4:	4648      	mov	r0, r9
100046f6:	1851      	adds	r1, r2, r1
100046f8:	7088      	strb	r0, [r1, #2]
100046fa:	5cd3      	ldrb	r3, [r2, r3]
100046fc:	2b00      	cmp	r3, #0
100046fe:	d000      	beq.n	10004702 <add_alarm_under_lock+0x106>
10004700:	704b      	strb	r3, [r1, #1]
10004702:	465b      	mov	r3, fp
10004704:	4662      	mov	r2, ip
10004706:	7013      	strb	r3, [r2, #0]
10004708:	464b      	mov	r3, r9
1000470a:	0020      	movs	r0, r4
1000470c:	7373      	strb	r3, [r6, #13]
1000470e:	45a1      	cmp	r9, r4
10004710:	d1e0      	bne.n	100046d4 <add_alarm_under_lock+0xd8>
10004712:	e7ce      	b.n	100046b2 <add_alarm_under_lock+0xb6>
10004714:	4659      	mov	r1, fp
10004716:	6828      	ldr	r0, [r5, #0]
10004718:	f000 fe04 	bl	10005324 <ph_delete>
1000471c:	e7d3      	b.n	100046c6 <add_alarm_under_lock+0xca>
1000471e:	0020      	movs	r0, r4
10004720:	e7d8      	b.n	100046d4 <add_alarm_under_lock+0xd8>
10004722:	46c0      	nop			; (mov r8, r8)
10004724:	0fffffff 	.word	0x0fffffff

10004728 <alarm_pool_alarm_callback>:
10004728:	b5f0      	push	{r4, r5, r6, r7, lr}
1000472a:	46de      	mov	lr, fp
1000472c:	464e      	mov	r6, r9
1000472e:	4657      	mov	r7, sl
10004730:	4645      	mov	r5, r8
10004732:	2300      	movs	r3, #0
10004734:	b5e0      	push	{r5, r6, r7, lr}
10004736:	b08d      	sub	sp, #52	; 0x34
10004738:	930a      	str	r3, [sp, #40]	; 0x28
1000473a:	4b71      	ldr	r3, [pc, #452]	; (10004900 <alarm_pool_alarm_callback+0x1d8>)
1000473c:	0082      	lsls	r2, r0, #2
1000473e:	58d3      	ldr	r3, [r2, r3]
10004740:	900b      	str	r0, [sp, #44]	; 0x2c
10004742:	4699      	mov	r9, r3
10004744:	2300      	movs	r3, #0
10004746:	469b      	mov	fp, r3
10004748:	464b      	mov	r3, r9
1000474a:	9307      	str	r3, [sp, #28]
1000474c:	f000 fb50 	bl	10004df0 <time_us_64>
10004750:	9c07      	ldr	r4, [sp, #28]
10004752:	0006      	movs	r6, r0
10004754:	000f      	movs	r7, r1
10004756:	6862      	ldr	r2, [r4, #4]
10004758:	f3ef 8510 	mrs	r5, PRIMASK
1000475c:	b672      	cpsid	i
1000475e:	6813      	ldr	r3, [r2, #0]
10004760:	2b00      	cmp	r3, #0
10004762:	d0fc      	beq.n	1000475e <alarm_pool_alarm_callback+0x36>
10004764:	0022      	movs	r2, r4
10004766:	9407      	str	r4, [sp, #28]
10004768:	f3bf 8f5f 	dmb	sy
1000476c:	6824      	ldr	r4, [r4, #0]
1000476e:	7b63      	ldrb	r3, [r4, #13]
10004770:	4699      	mov	r9, r3
10004772:	2b00      	cmp	r3, #0
10004774:	d100      	bne.n	10004778 <alarm_pool_alarm_callback+0x50>
10004776:	e070      	b.n	1000485a <alarm_pool_alarm_callback+0x132>
10004778:	6892      	ldr	r2, [r2, #8]
1000477a:	4b62      	ldr	r3, [pc, #392]	; (10004904 <alarm_pool_alarm_callback+0x1dc>)
1000477c:	4690      	mov	r8, r2
1000477e:	444b      	add	r3, r9
10004780:	011b      	lsls	r3, r3, #4
10004782:	4498      	add	r8, r3
10004784:	4643      	mov	r3, r8
10004786:	681a      	ldr	r2, [r3, #0]
10004788:	685b      	ldr	r3, [r3, #4]
1000478a:	0010      	movs	r0, r2
1000478c:	0019      	movs	r1, r3
1000478e:	1b80      	subs	r0, r0, r6
10004790:	41b9      	sbcs	r1, r7
10004792:	2900      	cmp	r1, #0
10004794:	dd68      	ble.n	10004868 <alarm_pool_alarm_callback+0x140>
10004796:	980b      	ldr	r0, [sp, #44]	; 0x2c
10004798:	f000 fb7a 	bl	10004e90 <hardware_alarm_set_target>
1000479c:	2300      	movs	r3, #0
1000479e:	2600      	movs	r6, #0
100047a0:	4698      	mov	r8, r3
100047a2:	2700      	movs	r7, #0
100047a4:	469a      	mov	sl, r3
100047a6:	9c07      	ldr	r4, [sp, #28]
100047a8:	6863      	ldr	r3, [r4, #4]
100047aa:	f3bf 8f5f 	dmb	sy
100047ae:	465a      	mov	r2, fp
100047b0:	601a      	str	r2, [r3, #0]
100047b2:	f385 8810 	msr	PRIMASK, r5
100047b6:	4653      	mov	r3, sl
100047b8:	2b00      	cmp	r3, #0
100047ba:	d108      	bne.n	100047ce <alarm_pool_alarm_callback+0xa6>
100047bc:	2800      	cmp	r0, #0
100047be:	d1c5      	bne.n	1000474c <alarm_pool_alarm_callback+0x24>
100047c0:	b00d      	add	sp, #52	; 0x34
100047c2:	bc3c      	pop	{r2, r3, r4, r5}
100047c4:	4690      	mov	r8, r2
100047c6:	4699      	mov	r9, r3
100047c8:	46a2      	mov	sl, r4
100047ca:	46ab      	mov	fp, r5
100047cc:	bdf0      	pop	{r4, r5, r6, r7, pc}
100047ce:	23d0      	movs	r3, #208	; 0xd0
100047d0:	2280      	movs	r2, #128	; 0x80
100047d2:	2180      	movs	r1, #128	; 0x80
100047d4:	061b      	lsls	r3, r3, #24
100047d6:	0392      	lsls	r2, r2, #14
100047d8:	0309      	lsls	r1, r1, #12
100047da:	615a      	str	r2, [r3, #20]
100047dc:	6199      	str	r1, [r3, #24]
100047de:	619a      	str	r2, [r3, #24]
100047e0:	9b0a      	ldr	r3, [sp, #40]	; 0x28
100047e2:	4641      	mov	r1, r8
100047e4:	0218      	lsls	r0, r3, #8
100047e6:	464b      	mov	r3, r9
100047e8:	4318      	orrs	r0, r3
100047ea:	47d0      	blx	sl
100047ec:	9008      	str	r0, [sp, #32]
100047ee:	9109      	str	r1, [sp, #36]	; 0x24
100047f0:	6862      	ldr	r2, [r4, #4]
100047f2:	f3ef 8510 	mrs	r5, PRIMASK
100047f6:	b672      	cpsid	i
100047f8:	6813      	ldr	r3, [r2, #0]
100047fa:	2b00      	cmp	r3, #0
100047fc:	d0fc      	beq.n	100047f8 <alarm_pool_alarm_callback+0xd0>
100047fe:	9407      	str	r4, [sp, #28]
10004800:	f3bf 8f5f 	dmb	sy
10004804:	9908      	ldr	r1, [sp, #32]
10004806:	9a09      	ldr	r2, [sp, #36]	; 0x24
10004808:	2a00      	cmp	r2, #0
1000480a:	db49      	blt.n	100048a0 <alarm_pool_alarm_callback+0x178>
1000480c:	4311      	orrs	r1, r2
1000480e:	d003      	beq.n	10004818 <alarm_pool_alarm_callback+0xf0>
10004810:	9b07      	ldr	r3, [sp, #28]
10004812:	691b      	ldr	r3, [r3, #16]
10004814:	2b00      	cmp	r3, #0
10004816:	d15e      	bne.n	100048d6 <alarm_pool_alarm_callback+0x1ae>
10004818:	9b07      	ldr	r3, [sp, #28]
1000481a:	681b      	ldr	r3, [r3, #0]
1000481c:	7bda      	ldrb	r2, [r3, #15]
1000481e:	2a00      	cmp	r2, #0
10004820:	d007      	beq.n	10004832 <alarm_pool_alarm_callback+0x10a>
10004822:	0051      	lsls	r1, r2, #1
10004824:	188a      	adds	r2, r1, r2
10004826:	6819      	ldr	r1, [r3, #0]
10004828:	468c      	mov	ip, r1
1000482a:	4649      	mov	r1, r9
1000482c:	4462      	add	r2, ip
1000482e:	3a03      	subs	r2, #3
10004830:	7051      	strb	r1, [r2, #1]
10004832:	464a      	mov	r2, r9
10004834:	73da      	strb	r2, [r3, #15]
10004836:	464b      	mov	r3, r9
10004838:	9a07      	ldr	r2, [sp, #28]
1000483a:	3b01      	subs	r3, #1
1000483c:	68d1      	ldr	r1, [r2, #12]
1000483e:	5cca      	ldrb	r2, [r1, r3]
10004840:	3201      	adds	r2, #1
10004842:	54ca      	strb	r2, [r1, r3]
10004844:	465b      	mov	r3, fp
10004846:	9a07      	ldr	r2, [sp, #28]
10004848:	6113      	str	r3, [r2, #16]
1000484a:	6853      	ldr	r3, [r2, #4]
1000484c:	f3bf 8f5f 	dmb	sy
10004850:	465a      	mov	r2, fp
10004852:	601a      	str	r2, [r3, #0]
10004854:	f385 8810 	msr	PRIMASK, r5
10004858:	e778      	b.n	1000474c <alarm_pool_alarm_callback+0x24>
1000485a:	2300      	movs	r3, #0
1000485c:	2600      	movs	r6, #0
1000485e:	4698      	mov	r8, r3
10004860:	2700      	movs	r7, #0
10004862:	469a      	mov	sl, r3
10004864:	2000      	movs	r0, #0
10004866:	e79e      	b.n	100047a6 <alarm_pool_alarm_callback+0x7e>
10004868:	2900      	cmp	r1, #0
1000486a:	d102      	bne.n	10004872 <alarm_pool_alarm_callback+0x14a>
1000486c:	2800      	cmp	r0, #0
1000486e:	d000      	beq.n	10004872 <alarm_pool_alarm_callback+0x14a>
10004870:	e791      	b.n	10004796 <alarm_pool_alarm_callback+0x6e>
10004872:	2101      	movs	r1, #1
10004874:	0020      	movs	r0, r4
10004876:	f000 fcb7 	bl	100051e8 <ph_remove_head_reserve>
1000487a:	4643      	mov	r3, r8
1000487c:	681e      	ldr	r6, [r3, #0]
1000487e:	685f      	ldr	r7, [r3, #4]
10004880:	689b      	ldr	r3, [r3, #8]
10004882:	9a07      	ldr	r2, [sp, #28]
10004884:	469a      	mov	sl, r3
10004886:	4643      	mov	r3, r8
10004888:	68db      	ldr	r3, [r3, #12]
1000488a:	4698      	mov	r8, r3
1000488c:	68d3      	ldr	r3, [r2, #12]
1000488e:	444b      	add	r3, r9
10004890:	3b01      	subs	r3, #1
10004892:	781b      	ldrb	r3, [r3, #0]
10004894:	930a      	str	r3, [sp, #40]	; 0x28
10004896:	021b      	lsls	r3, r3, #8
10004898:	4303      	orrs	r3, r0
1000489a:	6113      	str	r3, [r2, #16]
1000489c:	2000      	movs	r0, #0
1000489e:	e782      	b.n	100047a6 <alarm_pool_alarm_callback+0x7e>
100048a0:	6923      	ldr	r3, [r4, #16]
100048a2:	2b00      	cmp	r3, #0
100048a4:	d0b8      	beq.n	10004818 <alarm_pool_alarm_callback+0xf0>
100048a6:	0033      	movs	r3, r6
100048a8:	003c      	movs	r4, r7
100048aa:	1a5b      	subs	r3, r3, r1
100048ac:	4194      	sbcs	r4, r2
100048ae:	001a      	movs	r2, r3
100048b0:	0023      	movs	r3, r4
100048b2:	42a7      	cmp	r7, r4
100048b4:	d819      	bhi.n	100048ea <alarm_pool_alarm_callback+0x1c2>
100048b6:	429f      	cmp	r7, r3
100048b8:	d01b      	beq.n	100048f2 <alarm_pool_alarm_callback+0x1ca>
100048ba:	4659      	mov	r1, fp
100048bc:	9104      	str	r1, [sp, #16]
100048be:	2101      	movs	r1, #1
100048c0:	9103      	str	r1, [sp, #12]
100048c2:	4649      	mov	r1, r9
100048c4:	9102      	str	r1, [sp, #8]
100048c6:	4641      	mov	r1, r8
100048c8:	9101      	str	r1, [sp, #4]
100048ca:	4651      	mov	r1, sl
100048cc:	9807      	ldr	r0, [sp, #28]
100048ce:	9100      	str	r1, [sp, #0]
100048d0:	f7ff fe94 	bl	100045fc <add_alarm_under_lock>
100048d4:	e7b6      	b.n	10004844 <alarm_pool_alarm_callback+0x11c>
100048d6:	f000 fa8b 	bl	10004df0 <time_us_64>
100048da:	9a08      	ldr	r2, [sp, #32]
100048dc:	9b09      	ldr	r3, [sp, #36]	; 0x24
100048de:	0006      	movs	r6, r0
100048e0:	000f      	movs	r7, r1
100048e2:	1992      	adds	r2, r2, r6
100048e4:	417b      	adcs	r3, r7
100048e6:	4299      	cmp	r1, r3
100048e8:	d9e5      	bls.n	100048b6 <alarm_pool_alarm_callback+0x18e>
100048ea:	2201      	movs	r2, #1
100048ec:	4252      	negs	r2, r2
100048ee:	17d3      	asrs	r3, r2, #31
100048f0:	e7e3      	b.n	100048ba <alarm_pool_alarm_callback+0x192>
100048f2:	4296      	cmp	r6, r2
100048f4:	d9e1      	bls.n	100048ba <alarm_pool_alarm_callback+0x192>
100048f6:	2201      	movs	r2, #1
100048f8:	4252      	negs	r2, r2
100048fa:	17d3      	asrs	r3, r2, #31
100048fc:	e7dd      	b.n	100048ba <alarm_pool_alarm_callback+0x192>
100048fe:	46c0      	nop			; (mov r8, r8)
10004900:	20001d5c 	.word	0x20001d5c
10004904:	0fffffff 	.word	0x0fffffff

10004908 <alarm_pool_add_alarm_at.constprop.0>:
10004908:	b5f8      	push	{r3, r4, r5, r6, r7, lr}
1000490a:	4657      	mov	r7, sl
1000490c:	464e      	mov	r6, r9
1000490e:	46de      	mov	lr, fp
10004910:	4645      	mov	r5, r8
10004912:	4691      	mov	r9, r2
10004914:	b5e0      	push	{r5, r6, r7, lr}
10004916:	0004      	movs	r4, r0
10004918:	469a      	mov	sl, r3
1000491a:	6842      	ldr	r2, [r0, #4]
1000491c:	f3ef 8810 	mrs	r8, PRIMASK
10004920:	b672      	cpsid	i
10004922:	6813      	ldr	r3, [r2, #0]
10004924:	2b00      	cmp	r3, #0
10004926:	d0fc      	beq.n	10004922 <alarm_pool_add_alarm_at.constprop.0+0x1a>
10004928:	f3bf 8f5f 	dmb	sy
1000492c:	6826      	ldr	r6, [r4, #0]
1000492e:	7bb5      	ldrb	r5, [r6, #14]
10004930:	2d00      	cmp	r5, #0
10004932:	d040      	beq.n	100049b6 <alarm_pool_add_alarm_at.constprop.0+0xae>
10004934:	006f      	lsls	r7, r5, #1
10004936:	6833      	ldr	r3, [r6, #0]
10004938:	197f      	adds	r7, r7, r5
1000493a:	3f03      	subs	r7, #3
1000493c:	19db      	adds	r3, r3, r7
1000493e:	785b      	ldrb	r3, [r3, #1]
10004940:	73b3      	strb	r3, [r6, #14]
10004942:	2b00      	cmp	r3, #0
10004944:	d100      	bne.n	10004948 <alarm_pool_add_alarm_at.constprop.0+0x40>
10004946:	73f3      	strb	r3, [r6, #15]
10004948:	4b37      	ldr	r3, [pc, #220]	; (10004a28 <alarm_pool_add_alarm_at.constprop.0+0x120>)
1000494a:	2200      	movs	r2, #0
1000494c:	18e9      	adds	r1, r5, r3
1000494e:	68a3      	ldr	r3, [r4, #8]
10004950:	0109      	lsls	r1, r1, #4
10004952:	469c      	mov	ip, r3
10004954:	464b      	mov	r3, r9
10004956:	4461      	add	r1, ip
10004958:	600b      	str	r3, [r1, #0]
1000495a:	4653      	mov	r3, sl
1000495c:	604b      	str	r3, [r1, #4]
1000495e:	4b33      	ldr	r3, [pc, #204]	; (10004a2c <alarm_pool_add_alarm_at.constprop.0+0x124>)
10004960:	60ca      	str	r2, [r1, #12]
10004962:	608b      	str	r3, [r1, #8]
10004964:	23d0      	movs	r3, #208	; 0xd0
10004966:	2180      	movs	r1, #128	; 0x80
10004968:	061b      	lsls	r3, r3, #24
1000496a:	0309      	lsls	r1, r1, #12
1000496c:	6159      	str	r1, [r3, #20]
1000496e:	6833      	ldr	r3, [r6, #0]
10004970:	19db      	adds	r3, r3, r7
10004972:	709a      	strb	r2, [r3, #2]
10004974:	705a      	strb	r2, [r3, #1]
10004976:	701a      	strb	r2, [r3, #0]
10004978:	7b73      	ldrb	r3, [r6, #13]
1000497a:	469b      	mov	fp, r3
1000497c:	2b00      	cmp	r3, #0
1000497e:	d035      	beq.n	100049ec <alarm_pool_add_alarm_at.constprop.0+0xe4>
10004980:	002a      	movs	r2, r5
10004982:	0019      	movs	r1, r3
10004984:	68b0      	ldr	r0, [r6, #8]
10004986:	6873      	ldr	r3, [r6, #4]
10004988:	4798      	blx	r3
1000498a:	6832      	ldr	r2, [r6, #0]
1000498c:	2800      	cmp	r0, #0
1000498e:	d020      	beq.n	100049d2 <alarm_pool_add_alarm_at.constprop.0+0xca>
10004990:	465b      	mov	r3, fp
10004992:	4658      	mov	r0, fp
10004994:	005b      	lsls	r3, r3, #1
10004996:	445b      	add	r3, fp
10004998:	19d7      	adds	r7, r2, r7
1000499a:	3b03      	subs	r3, #3
1000499c:	70b8      	strb	r0, [r7, #2]
1000499e:	18d1      	adds	r1, r2, r3
100049a0:	5cd3      	ldrb	r3, [r2, r3]
100049a2:	2b00      	cmp	r3, #0
100049a4:	d000      	beq.n	100049a8 <alarm_pool_add_alarm_at.constprop.0+0xa0>
100049a6:	707b      	strb	r3, [r7, #1]
100049a8:	465b      	mov	r3, fp
100049aa:	700d      	strb	r5, [r1, #0]
100049ac:	7373      	strb	r3, [r6, #13]
100049ae:	455d      	cmp	r5, fp
100049b0:	d01d      	beq.n	100049ee <alarm_pool_add_alarm_at.constprop.0+0xe6>
100049b2:	2600      	movs	r6, #0
100049b4:	e026      	b.n	10004a04 <alarm_pool_add_alarm_at.constprop.0+0xfc>
100049b6:	6863      	ldr	r3, [r4, #4]
100049b8:	f3bf 8f5f 	dmb	sy
100049bc:	601d      	str	r5, [r3, #0]
100049be:	f388 8810 	msr	PRIMASK, r8
100049c2:	2001      	movs	r0, #1
100049c4:	4240      	negs	r0, r0
100049c6:	bc3c      	pop	{r2, r3, r4, r5}
100049c8:	4690      	mov	r8, r2
100049ca:	4699      	mov	r9, r3
100049cc:	46a2      	mov	sl, r4
100049ce:	46ab      	mov	fp, r5
100049d0:	bdf8      	pop	{r3, r4, r5, r6, r7, pc}
100049d2:	465b      	mov	r3, fp
100049d4:	005b      	lsls	r3, r3, #1
100049d6:	445b      	add	r3, fp
100049d8:	3b03      	subs	r3, #3
100049da:	18d3      	adds	r3, r2, r3
100049dc:	709d      	strb	r5, [r3, #2]
100049de:	19d1      	adds	r1, r2, r7
100049e0:	5dd2      	ldrb	r2, [r2, r7]
100049e2:	2a00      	cmp	r2, #0
100049e4:	d000      	beq.n	100049e8 <alarm_pool_add_alarm_at.constprop.0+0xe0>
100049e6:	705a      	strb	r2, [r3, #1]
100049e8:	465b      	mov	r3, fp
100049ea:	700b      	strb	r3, [r1, #0]
100049ec:	7375      	strb	r5, [r6, #13]
100049ee:	464a      	mov	r2, r9
100049f0:	4653      	mov	r3, sl
100049f2:	7d20      	ldrb	r0, [r4, #20]
100049f4:	f000 fa4c 	bl	10004e90 <hardware_alarm_set_target>
100049f8:	1e06      	subs	r6, r0, #0
100049fa:	d0da      	beq.n	100049b2 <alarm_pool_add_alarm_at.constprop.0+0xaa>
100049fc:	0029      	movs	r1, r5
100049fe:	6820      	ldr	r0, [r4, #0]
10004a00:	f000 fc90 	bl	10005324 <ph_delete>
10004a04:	68e3      	ldr	r3, [r4, #12]
10004a06:	6862      	ldr	r2, [r4, #4]
10004a08:	195b      	adds	r3, r3, r5
10004a0a:	3b01      	subs	r3, #1
10004a0c:	781b      	ldrb	r3, [r3, #0]
10004a0e:	f3bf 8f5f 	dmb	sy
10004a12:	2100      	movs	r1, #0
10004a14:	6011      	str	r1, [r2, #0]
10004a16:	f388 8810 	msr	PRIMASK, r8
10004a1a:	2000      	movs	r0, #0
10004a1c:	2e00      	cmp	r6, #0
10004a1e:	d1d2      	bne.n	100049c6 <alarm_pool_add_alarm_at.constprop.0+0xbe>
10004a20:	0218      	lsls	r0, r3, #8
10004a22:	4328      	orrs	r0, r5
10004a24:	e7cf      	b.n	100049c6 <alarm_pool_add_alarm_at.constprop.0+0xbe>
10004a26:	46c0      	nop			; (mov r8, r8)
10004a28:	0fffffff 	.word	0x0fffffff
10004a2c:	100045f5 	.word	0x100045f5

10004a30 <alarm_pool_init_default>:
10004a30:	b570      	push	{r4, r5, r6, lr}
10004a32:	4c18      	ldr	r4, [pc, #96]	; (10004a94 <alarm_pool_init_default+0x64>)
10004a34:	6823      	ldr	r3, [r4, #0]
10004a36:	2b00      	cmp	r3, #0
10004a38:	d000      	beq.n	10004a3c <alarm_pool_init_default+0xc>
10004a3a:	bd70      	pop	{r4, r5, r6, pc}
10004a3c:	2003      	movs	r0, #3
10004a3e:	f000 f9cb 	bl	10004dd8 <hardware_alarm_claim>
10004a42:	2003      	movs	r0, #3
10004a44:	f000 fa86 	bl	10004f54 <hardware_alarm_cancel>
10004a48:	4913      	ldr	r1, [pc, #76]	; (10004a98 <alarm_pool_init_default+0x68>)
10004a4a:	2003      	movs	r0, #3
10004a4c:	f000 f9da 	bl	10004e04 <hardware_alarm_set_callback>
10004a50:	2018      	movs	r0, #24
10004a52:	f001 fedd 	bl	10006810 <__wrap_malloc>
10004a56:	0005      	movs	r5, r0
10004a58:	f7ff fd76 	bl	10004548 <next_striped_spin_lock_num>
10004a5c:	4b0f      	ldr	r3, [pc, #60]	; (10004a9c <alarm_pool_init_default+0x6c>)
10004a5e:	002a      	movs	r2, r5
10004a60:	469c      	mov	ip, r3
10004a62:	4460      	add	r0, ip
10004a64:	0080      	lsls	r0, r0, #2
10004a66:	490e      	ldr	r1, [pc, #56]	; (10004aa0 <alarm_pool_init_default+0x70>)
10004a68:	6068      	str	r0, [r5, #4]
10004a6a:	2010      	movs	r0, #16
10004a6c:	f000 fac6 	bl	10004ffc <ph_create>
10004a70:	2110      	movs	r1, #16
10004a72:	6028      	str	r0, [r5, #0]
10004a74:	2010      	movs	r0, #16
10004a76:	f001 fecf 	bl	10006818 <__wrap_calloc>
10004a7a:	2101      	movs	r1, #1
10004a7c:	60a8      	str	r0, [r5, #8]
10004a7e:	2010      	movs	r0, #16
10004a80:	f001 feca 	bl	10006818 <__wrap_calloc>
10004a84:	2303      	movs	r3, #3
10004a86:	752b      	strb	r3, [r5, #20]
10004a88:	4b06      	ldr	r3, [pc, #24]	; (10004aa4 <alarm_pool_init_default+0x74>)
10004a8a:	60e8      	str	r0, [r5, #12]
10004a8c:	60dd      	str	r5, [r3, #12]
10004a8e:	6025      	str	r5, [r4, #0]
10004a90:	e7d3      	b.n	10004a3a <alarm_pool_init_default+0xa>
10004a92:	46c0      	nop			; (mov r8, r8)
10004a94:	2000169c 	.word	0x2000169c
10004a98:	10004729 	.word	0x10004729
10004a9c:	34000040 	.word	0x34000040
10004aa0:	100045c1 	.word	0x100045c1
10004aa4:	20001d5c 	.word	0x20001d5c

10004aa8 <alarm_pool_get_default>:
10004aa8:	4b01      	ldr	r3, [pc, #4]	; (10004ab0 <alarm_pool_get_default+0x8>)
10004aaa:	6818      	ldr	r0, [r3, #0]
10004aac:	4770      	bx	lr
10004aae:	46c0      	nop			; (mov r8, r8)
10004ab0:	2000169c 	.word	0x2000169c

10004ab4 <alarm_pool_add_alarm_at>:
10004ab4:	b5f0      	push	{r4, r5, r6, r7, lr}
10004ab6:	464e      	mov	r6, r9
10004ab8:	4657      	mov	r7, sl
10004aba:	46de      	mov	lr, fp
10004abc:	4645      	mov	r5, r8
10004abe:	b5e0      	push	{r5, r6, r7, lr}
10004ac0:	b085      	sub	sp, #20
10004ac2:	9301      	str	r3, [sp, #4]
10004ac4:	ab10      	add	r3, sp, #64	; 0x40
10004ac6:	781b      	ldrb	r3, [r3, #0]
10004ac8:	0006      	movs	r6, r0
10004aca:	9303      	str	r3, [sp, #12]
10004acc:	2300      	movs	r3, #0
10004ace:	469a      	mov	sl, r3
10004ad0:	23d0      	movs	r3, #208	; 0xd0
10004ad2:	061b      	lsls	r3, r3, #24
10004ad4:	4699      	mov	r9, r3
10004ad6:	9200      	str	r2, [sp, #0]
10004ad8:	6872      	ldr	r2, [r6, #4]
10004ada:	f3ef 8b10 	mrs	fp, PRIMASK
10004ade:	b672      	cpsid	i
10004ae0:	6813      	ldr	r3, [r2, #0]
10004ae2:	2b00      	cmp	r3, #0
10004ae4:	d0fc      	beq.n	10004ae0 <alarm_pool_add_alarm_at+0x2c>
10004ae6:	f3bf 8f5f 	dmb	sy
10004aea:	6835      	ldr	r5, [r6, #0]
10004aec:	7bac      	ldrb	r4, [r5, #14]
10004aee:	2c00      	cmp	r4, #0
10004af0:	d100      	bne.n	10004af4 <alarm_pool_add_alarm_at+0x40>
10004af2:	e088      	b.n	10004c06 <alarm_pool_add_alarm_at+0x152>
10004af4:	0067      	lsls	r7, r4, #1
10004af6:	682b      	ldr	r3, [r5, #0]
10004af8:	193f      	adds	r7, r7, r4
10004afa:	3f03      	subs	r7, #3
10004afc:	19db      	adds	r3, r3, r7
10004afe:	785b      	ldrb	r3, [r3, #1]
10004b00:	73ab      	strb	r3, [r5, #14]
10004b02:	2b00      	cmp	r3, #0
10004b04:	d100      	bne.n	10004b08 <alarm_pool_add_alarm_at+0x54>
10004b06:	73eb      	strb	r3, [r5, #15]
10004b08:	68b2      	ldr	r2, [r6, #8]
10004b0a:	4b57      	ldr	r3, [pc, #348]	; (10004c68 <alarm_pool_add_alarm_at+0x1b4>)
10004b0c:	4694      	mov	ip, r2
10004b0e:	9900      	ldr	r1, [sp, #0]
10004b10:	9a01      	ldr	r2, [sp, #4]
10004b12:	18e3      	adds	r3, r4, r3
10004b14:	011b      	lsls	r3, r3, #4
10004b16:	4463      	add	r3, ip
10004b18:	6019      	str	r1, [r3, #0]
10004b1a:	605a      	str	r2, [r3, #4]
10004b1c:	9a0e      	ldr	r2, [sp, #56]	; 0x38
10004b1e:	609a      	str	r2, [r3, #8]
10004b20:	9a0f      	ldr	r2, [sp, #60]	; 0x3c
10004b22:	60da      	str	r2, [r3, #12]
10004b24:	2280      	movs	r2, #128	; 0x80
10004b26:	464b      	mov	r3, r9
10004b28:	0312      	lsls	r2, r2, #12
10004b2a:	615a      	str	r2, [r3, #20]
10004b2c:	2200      	movs	r2, #0
10004b2e:	682b      	ldr	r3, [r5, #0]
10004b30:	19db      	adds	r3, r3, r7
10004b32:	709a      	strb	r2, [r3, #2]
10004b34:	705a      	strb	r2, [r3, #1]
10004b36:	701a      	strb	r2, [r3, #0]
10004b38:	7b6b      	ldrb	r3, [r5, #13]
10004b3a:	4698      	mov	r8, r3
10004b3c:	2b00      	cmp	r3, #0
10004b3e:	d100      	bne.n	10004b42 <alarm_pool_add_alarm_at+0x8e>
10004b40:	e080      	b.n	10004c44 <alarm_pool_add_alarm_at+0x190>
10004b42:	0022      	movs	r2, r4
10004b44:	0019      	movs	r1, r3
10004b46:	68a8      	ldr	r0, [r5, #8]
10004b48:	686b      	ldr	r3, [r5, #4]
10004b4a:	4798      	blx	r3
10004b4c:	682a      	ldr	r2, [r5, #0]
10004b4e:	2800      	cmp	r0, #0
10004b50:	d06b      	beq.n	10004c2a <alarm_pool_add_alarm_at+0x176>
10004b52:	4643      	mov	r3, r8
10004b54:	4640      	mov	r0, r8
10004b56:	005b      	lsls	r3, r3, #1
10004b58:	4443      	add	r3, r8
10004b5a:	19d7      	adds	r7, r2, r7
10004b5c:	3b03      	subs	r3, #3
10004b5e:	70b8      	strb	r0, [r7, #2]
10004b60:	18d1      	adds	r1, r2, r3
10004b62:	5cd3      	ldrb	r3, [r2, r3]
10004b64:	2b00      	cmp	r3, #0
10004b66:	d000      	beq.n	10004b6a <alarm_pool_add_alarm_at+0xb6>
10004b68:	707b      	strb	r3, [r7, #1]
10004b6a:	4643      	mov	r3, r8
10004b6c:	700c      	strb	r4, [r1, #0]
10004b6e:	736b      	strb	r3, [r5, #13]
10004b70:	4544      	cmp	r4, r8
10004b72:	d068      	beq.n	10004c46 <alarm_pool_add_alarm_at+0x192>
10004b74:	68f3      	ldr	r3, [r6, #12]
10004b76:	191b      	adds	r3, r3, r4
10004b78:	3b01      	subs	r3, #1
10004b7a:	7818      	ldrb	r0, [r3, #0]
10004b7c:	6873      	ldr	r3, [r6, #4]
10004b7e:	f3bf 8f5f 	dmb	sy
10004b82:	2200      	movs	r2, #0
10004b84:	601a      	str	r2, [r3, #0]
10004b86:	f38b 8810 	msr	PRIMASK, fp
10004b8a:	4653      	mov	r3, sl
10004b8c:	2b00      	cmp	r3, #0
10004b8e:	d108      	bne.n	10004ba2 <alarm_pool_add_alarm_at+0xee>
10004b90:	0200      	lsls	r0, r0, #8
10004b92:	4320      	orrs	r0, r4
10004b94:	b005      	add	sp, #20
10004b96:	bc3c      	pop	{r2, r3, r4, r5}
10004b98:	4690      	mov	r8, r2
10004b9a:	4699      	mov	r9, r3
10004b9c:	46a2      	mov	sl, r4
10004b9e:	46ab      	mov	fp, r5
10004ba0:	bdf0      	pop	{r4, r5, r6, r7, pc}
10004ba2:	9b03      	ldr	r3, [sp, #12]
10004ba4:	2b00      	cmp	r3, #0
10004ba6:	d05c      	beq.n	10004c62 <alarm_pool_add_alarm_at+0x1ae>
10004ba8:	9b0e      	ldr	r3, [sp, #56]	; 0x38
10004baa:	2000      	movs	r0, #0
10004bac:	990f      	ldr	r1, [sp, #60]	; 0x3c
10004bae:	4798      	blx	r3
10004bb0:	0003      	movs	r3, r0
10004bb2:	0004      	movs	r4, r0
10004bb4:	000d      	movs	r5, r1
10004bb6:	430b      	orrs	r3, r1
10004bb8:	d053      	beq.n	10004c62 <alarm_pool_add_alarm_at+0x1ae>
10004bba:	2900      	cmp	r1, #0
10004bbc:	da0d      	bge.n	10004bda <alarm_pool_add_alarm_at+0x126>
10004bbe:	9800      	ldr	r0, [sp, #0]
10004bc0:	9901      	ldr	r1, [sp, #4]
10004bc2:	0002      	movs	r2, r0
10004bc4:	000b      	movs	r3, r1
10004bc6:	1b12      	subs	r2, r2, r4
10004bc8:	41ab      	sbcs	r3, r5
10004bca:	4299      	cmp	r1, r3
10004bcc:	d815      	bhi.n	10004bfa <alarm_pool_add_alarm_at+0x146>
10004bce:	d023      	beq.n	10004c18 <alarm_pool_add_alarm_at+0x164>
10004bd0:	9200      	str	r2, [sp, #0]
10004bd2:	9301      	str	r3, [sp, #4]
10004bd4:	9b03      	ldr	r3, [sp, #12]
10004bd6:	469a      	mov	sl, r3
10004bd8:	e77e      	b.n	10004ad8 <alarm_pool_add_alarm_at+0x24>
10004bda:	f000 f909 	bl	10004df0 <time_us_64>
10004bde:	0002      	movs	r2, r0
10004be0:	000b      	movs	r3, r1
10004be2:	18a4      	adds	r4, r4, r2
10004be4:	415d      	adcs	r5, r3
10004be6:	0020      	movs	r0, r4
10004be8:	0029      	movs	r1, r5
10004bea:	9000      	str	r0, [sp, #0]
10004bec:	9101      	str	r1, [sp, #4]
10004bee:	42ab      	cmp	r3, r5
10004bf0:	d803      	bhi.n	10004bfa <alarm_pool_add_alarm_at+0x146>
10004bf2:	d1ef      	bne.n	10004bd4 <alarm_pool_add_alarm_at+0x120>
10004bf4:	9900      	ldr	r1, [sp, #0]
10004bf6:	428a      	cmp	r2, r1
10004bf8:	d9ec      	bls.n	10004bd4 <alarm_pool_add_alarm_at+0x120>
10004bfa:	2301      	movs	r3, #1
10004bfc:	425b      	negs	r3, r3
10004bfe:	17dc      	asrs	r4, r3, #31
10004c00:	9300      	str	r3, [sp, #0]
10004c02:	9401      	str	r4, [sp, #4]
10004c04:	e7e6      	b.n	10004bd4 <alarm_pool_add_alarm_at+0x120>
10004c06:	6873      	ldr	r3, [r6, #4]
10004c08:	f3bf 8f5f 	dmb	sy
10004c0c:	601c      	str	r4, [r3, #0]
10004c0e:	f38b 8810 	msr	PRIMASK, fp
10004c12:	2001      	movs	r0, #1
10004c14:	4240      	negs	r0, r0
10004c16:	e7bd      	b.n	10004b94 <alarm_pool_add_alarm_at+0xe0>
10004c18:	9900      	ldr	r1, [sp, #0]
10004c1a:	4291      	cmp	r1, r2
10004c1c:	d9d8      	bls.n	10004bd0 <alarm_pool_add_alarm_at+0x11c>
10004c1e:	2301      	movs	r3, #1
10004c20:	425b      	negs	r3, r3
10004c22:	17dc      	asrs	r4, r3, #31
10004c24:	9300      	str	r3, [sp, #0]
10004c26:	9401      	str	r4, [sp, #4]
10004c28:	e7d4      	b.n	10004bd4 <alarm_pool_add_alarm_at+0x120>
10004c2a:	4643      	mov	r3, r8
10004c2c:	005b      	lsls	r3, r3, #1
10004c2e:	4443      	add	r3, r8
10004c30:	3b03      	subs	r3, #3
10004c32:	18d3      	adds	r3, r2, r3
10004c34:	709c      	strb	r4, [r3, #2]
10004c36:	19d1      	adds	r1, r2, r7
10004c38:	5dd2      	ldrb	r2, [r2, r7]
10004c3a:	2a00      	cmp	r2, #0
10004c3c:	d000      	beq.n	10004c40 <alarm_pool_add_alarm_at+0x18c>
10004c3e:	705a      	strb	r2, [r3, #1]
10004c40:	4643      	mov	r3, r8
10004c42:	700b      	strb	r3, [r1, #0]
10004c44:	736c      	strb	r4, [r5, #13]
10004c46:	7d30      	ldrb	r0, [r6, #20]
10004c48:	9a00      	ldr	r2, [sp, #0]
10004c4a:	9b01      	ldr	r3, [sp, #4]
10004c4c:	f000 f920 	bl	10004e90 <hardware_alarm_set_target>
10004c50:	4682      	mov	sl, r0
10004c52:	2800      	cmp	r0, #0
10004c54:	d100      	bne.n	10004c58 <alarm_pool_add_alarm_at+0x1a4>
10004c56:	e78d      	b.n	10004b74 <alarm_pool_add_alarm_at+0xc0>
10004c58:	0021      	movs	r1, r4
10004c5a:	6830      	ldr	r0, [r6, #0]
10004c5c:	f000 fb62 	bl	10005324 <ph_delete>
10004c60:	e788      	b.n	10004b74 <alarm_pool_add_alarm_at+0xc0>
10004c62:	2000      	movs	r0, #0
10004c64:	e796      	b.n	10004b94 <alarm_pool_add_alarm_at+0xe0>
10004c66:	46c0      	nop			; (mov r8, r8)
10004c68:	0fffffff 	.word	0x0fffffff

10004c6c <alarm_pool_cancel_alarm>:
10004c6c:	b570      	push	{r4, r5, r6, lr}
10004c6e:	6842      	ldr	r2, [r0, #4]
10004c70:	0004      	movs	r4, r0
10004c72:	f3ef 8510 	mrs	r5, PRIMASK
10004c76:	b672      	cpsid	i
10004c78:	6813      	ldr	r3, [r2, #0]
10004c7a:	2b00      	cmp	r3, #0
10004c7c:	d0fc      	beq.n	10004c78 <alarm_pool_cancel_alarm+0xc>
10004c7e:	f3bf 8f5f 	dmb	sy
10004c82:	6820      	ldr	r0, [r4, #0]
10004c84:	b2ca      	uxtb	r2, r1
10004c86:	7b43      	ldrb	r3, [r0, #13]
10004c88:	4293      	cmp	r3, r2
10004c8a:	d00a      	beq.n	10004ca2 <alarm_pool_cancel_alarm+0x36>
10004c8c:	23ff      	movs	r3, #255	; 0xff
10004c8e:	400b      	ands	r3, r1
10004c90:	005e      	lsls	r6, r3, #1
10004c92:	18f3      	adds	r3, r6, r3
10004c94:	6806      	ldr	r6, [r0, #0]
10004c96:	46b4      	mov	ip, r6
10004c98:	4463      	add	r3, ip
10004c9a:	3b03      	subs	r3, #3
10004c9c:	789b      	ldrb	r3, [r3, #2]
10004c9e:	2b00      	cmp	r3, #0
10004ca0:	d013      	beq.n	10004cca <alarm_pool_cancel_alarm+0x5e>
10004ca2:	68e6      	ldr	r6, [r4, #12]
10004ca4:	23ff      	movs	r3, #255	; 0xff
10004ca6:	46b4      	mov	ip, r6
10004ca8:	400b      	ands	r3, r1
10004caa:	4463      	add	r3, ip
10004cac:	3b01      	subs	r3, #1
10004cae:	0a09      	lsrs	r1, r1, #8
10004cb0:	781e      	ldrb	r6, [r3, #0]
10004cb2:	b2c9      	uxtb	r1, r1
10004cb4:	428e      	cmp	r6, r1
10004cb6:	d00d      	beq.n	10004cd4 <alarm_pool_cancel_alarm+0x68>
10004cb8:	2000      	movs	r0, #0
10004cba:	6863      	ldr	r3, [r4, #4]
10004cbc:	f3bf 8f5f 	dmb	sy
10004cc0:	2200      	movs	r2, #0
10004cc2:	601a      	str	r2, [r3, #0]
10004cc4:	f385 8810 	msr	PRIMASK, r5
10004cc8:	bd70      	pop	{r4, r5, r6, pc}
10004cca:	6922      	ldr	r2, [r4, #16]
10004ccc:	428a      	cmp	r2, r1
10004cce:	d1f3      	bne.n	10004cb8 <alarm_pool_cancel_alarm+0x4c>
10004cd0:	6123      	str	r3, [r4, #16]
10004cd2:	e7f1      	b.n	10004cb8 <alarm_pool_cancel_alarm+0x4c>
10004cd4:	0011      	movs	r1, r2
10004cd6:	f000 fb25 	bl	10005324 <ph_delete>
10004cda:	e7ee      	b.n	10004cba <alarm_pool_cancel_alarm+0x4e>

10004cdc <best_effort_wfe_or_timeout>:
10004cdc:	b570      	push	{r4, r5, r6, lr}
10004cde:	4d0e      	ldr	r5, [pc, #56]	; (10004d18 <best_effort_wfe_or_timeout+0x3c>)
10004ce0:	0002      	movs	r2, r0
10004ce2:	000b      	movs	r3, r1
10004ce4:	0006      	movs	r6, r0
10004ce6:	6828      	ldr	r0, [r5, #0]
10004ce8:	000c      	movs	r4, r1
10004cea:	f7ff fe0d 	bl	10004908 <alarm_pool_add_alarm_at.constprop.0>
10004cee:	1e01      	subs	r1, r0, #0
10004cf0:	dd03      	ble.n	10004cfa <best_effort_wfe_or_timeout+0x1e>
10004cf2:	bf20      	wfe
10004cf4:	6828      	ldr	r0, [r5, #0]
10004cf6:	f7ff ffb9 	bl	10004c6c <alarm_pool_cancel_alarm>
10004cfa:	4b08      	ldr	r3, [pc, #32]	; (10004d1c <best_effort_wfe_or_timeout+0x40>)
10004cfc:	2000      	movs	r0, #0
10004cfe:	6a59      	ldr	r1, [r3, #36]	; 0x24
10004d00:	428c      	cmp	r4, r1
10004d02:	d803      	bhi.n	10004d0c <best_effort_wfe_or_timeout+0x30>
10004d04:	6a9b      	ldr	r3, [r3, #40]	; 0x28
10004d06:	3001      	adds	r0, #1
10004d08:	42b3      	cmp	r3, r6
10004d0a:	d300      	bcc.n	10004d0e <best_effort_wfe_or_timeout+0x32>
10004d0c:	bd70      	pop	{r4, r5, r6, pc}
10004d0e:	1a64      	subs	r4, r4, r1
10004d10:	1e61      	subs	r1, r4, #1
10004d12:	418c      	sbcs	r4, r1
10004d14:	b2e0      	uxtb	r0, r4
10004d16:	e7f9      	b.n	10004d0c <best_effort_wfe_or_timeout+0x30>
10004d18:	2000169c 	.word	0x2000169c
10004d1c:	40054000 	.word	0x40054000

10004d20 <hardware_alarm_irq_handler>:
10004d20:	b5f0      	push	{r4, r5, r6, r7, lr}
10004d22:	46d6      	mov	lr, sl
10004d24:	464f      	mov	r7, r9
10004d26:	4646      	mov	r6, r8
10004d28:	b5c0      	push	{r6, r7, lr}
10004d2a:	f3ef 8305 	mrs	r3, IPSR
10004d2e:	223f      	movs	r2, #63	; 0x3f
10004d30:	4013      	ands	r3, r2
10004d32:	0018      	movs	r0, r3
10004d34:	3810      	subs	r0, #16
10004d36:	f3ef 8c10 	mrs	ip, PRIMASK
10004d3a:	b672      	cpsid	i
10004d3c:	4d20      	ldr	r5, [pc, #128]	; (10004dc0 <hardware_alarm_irq_handler+0xa0>)
10004d3e:	682a      	ldr	r2, [r5, #0]
10004d40:	2a00      	cmp	r2, #0
10004d42:	d0fc      	beq.n	10004d3e <hardware_alarm_irq_handler+0x1e>
10004d44:	f3bf 8f5f 	dmb	sy
10004d48:	2201      	movs	r2, #1
10004d4a:	0011      	movs	r1, r2
10004d4c:	4081      	lsls	r1, r0
10004d4e:	4c1d      	ldr	r4, [pc, #116]	; (10004dc4 <hardware_alarm_irq_handler+0xa4>)
10004d50:	4688      	mov	r8, r1
10004d52:	6361      	str	r1, [r4, #52]	; 0x34
10004d54:	491c      	ldr	r1, [pc, #112]	; (10004dc8 <hardware_alarm_irq_handler+0xa8>)
10004d56:	0017      	movs	r7, r2
10004d58:	780e      	ldrb	r6, [r1, #0]
10004d5a:	468a      	mov	sl, r1
10004d5c:	0031      	movs	r1, r6
10004d5e:	40c1      	lsrs	r1, r0
10004d60:	400f      	ands	r7, r1
10004d62:	420a      	tst	r2, r1
10004d64:	d015      	beq.n	10004d92 <hardware_alarm_irq_handler+0x72>
10004d66:	4919      	ldr	r1, [pc, #100]	; (10004dcc <hardware_alarm_irq_handler+0xac>)
10004d68:	0082      	lsls	r2, r0, #2
10004d6a:	6a64      	ldr	r4, [r4, #36]	; 0x24
10004d6c:	5851      	ldr	r1, [r2, r1]
10004d6e:	428c      	cmp	r4, r1
10004d70:	d319      	bcc.n	10004da6 <hardware_alarm_irq_handler+0x86>
10004d72:	4b17      	ldr	r3, [pc, #92]	; (10004dd0 <hardware_alarm_irq_handler+0xb0>)
10004d74:	58d2      	ldr	r2, [r2, r3]
10004d76:	4643      	mov	r3, r8
10004d78:	439e      	bics	r6, r3
10004d7a:	4653      	mov	r3, sl
10004d7c:	701e      	strb	r6, [r3, #0]
10004d7e:	f3bf 8f5f 	dmb	sy
10004d82:	2300      	movs	r3, #0
10004d84:	602b      	str	r3, [r5, #0]
10004d86:	f38c 8810 	msr	PRIMASK, ip
10004d8a:	2a00      	cmp	r2, #0
10004d8c:	d006      	beq.n	10004d9c <hardware_alarm_irq_handler+0x7c>
10004d8e:	4790      	blx	r2
10004d90:	e004      	b.n	10004d9c <hardware_alarm_irq_handler+0x7c>
10004d92:	f3bf 8f5f 	dmb	sy
10004d96:	602f      	str	r7, [r5, #0]
10004d98:	f38c 8810 	msr	PRIMASK, ip
10004d9c:	bc1c      	pop	{r2, r3, r4}
10004d9e:	4690      	mov	r8, r2
10004da0:	4699      	mov	r9, r3
10004da2:	46a2      	mov	sl, r4
10004da4:	bdf0      	pop	{r4, r5, r6, r7, pc}
10004da6:	4a0b      	ldr	r2, [pc, #44]	; (10004dd4 <hardware_alarm_irq_handler+0xb4>)
10004da8:	009b      	lsls	r3, r3, #2
10004daa:	4690      	mov	r8, r2
10004dac:	4443      	add	r3, r8
10004dae:	681a      	ldr	r2, [r3, #0]
10004db0:	601a      	str	r2, [r3, #0]
10004db2:	f3bf 8f5f 	dmb	sy
10004db6:	2300      	movs	r3, #0
10004db8:	602b      	str	r3, [r5, #0]
10004dba:	f38c 8810 	msr	PRIMASK, ip
10004dbe:	e7ed      	b.n	10004d9c <hardware_alarm_irq_handler+0x7c>
10004dc0:	d0000128 	.word	0xd0000128
10004dc4:	40054000 	.word	0x40054000
10004dc8:	20001d92 	.word	0x20001d92
10004dcc:	20001d7c 	.word	0x20001d7c
10004dd0:	2000165c 	.word	0x2000165c
10004dd4:	40053fd0 	.word	0x40053fd0

10004dd8 <hardware_alarm_claim>:
10004dd8:	b510      	push	{r4, lr}
10004dda:	0001      	movs	r1, r0
10004ddc:	4a02      	ldr	r2, [pc, #8]	; (10004de8 <hardware_alarm_claim+0x10>)
10004dde:	4803      	ldr	r0, [pc, #12]	; (10004dec <hardware_alarm_claim+0x14>)
10004de0:	f7ff fb26 	bl	10004430 <hw_claim_or_assert>
10004de4:	bd10      	pop	{r4, pc}
10004de6:	46c0      	nop			; (mov r8, r8)
10004de8:	10008a98 	.word	0x10008a98
10004dec:	20001d90 	.word	0x20001d90

10004df0 <time_us_64>:
10004df0:	4b03      	ldr	r3, [pc, #12]	; (10004e00 <time_us_64+0x10>)
10004df2:	6a59      	ldr	r1, [r3, #36]	; 0x24
10004df4:	000a      	movs	r2, r1
10004df6:	6a98      	ldr	r0, [r3, #40]	; 0x28
10004df8:	6a59      	ldr	r1, [r3, #36]	; 0x24
10004dfa:	428a      	cmp	r2, r1
10004dfc:	d1fa      	bne.n	10004df4 <time_us_64+0x4>
10004dfe:	4770      	bx	lr
10004e00:	40054000 	.word	0x40054000

10004e04 <hardware_alarm_set_callback>:
10004e04:	b570      	push	{r4, r5, r6, lr}
10004e06:	0004      	movs	r4, r0
10004e08:	000d      	movs	r5, r1
10004e0a:	f3ef 8610 	mrs	r6, PRIMASK
10004e0e:	b672      	cpsid	i
10004e10:	4a1a      	ldr	r2, [pc, #104]	; (10004e7c <hardware_alarm_set_callback+0x78>)
10004e12:	6813      	ldr	r3, [r2, #0]
10004e14:	2b00      	cmp	r3, #0
10004e16:	d0fc      	beq.n	10004e12 <hardware_alarm_set_callback+0xe>
10004e18:	f3bf 8f5f 	dmb	sy
10004e1c:	2d00      	cmp	r5, #0
10004e1e:	d01b      	beq.n	10004e58 <hardware_alarm_set_callback+0x54>
10004e20:	0020      	movs	r0, r4
10004e22:	f7ff f977 	bl	10004114 <irq_get_vtable_handler>
10004e26:	4916      	ldr	r1, [pc, #88]	; (10004e80 <hardware_alarm_set_callback+0x7c>)
10004e28:	4281      	cmp	r1, r0
10004e2a:	d00a      	beq.n	10004e42 <hardware_alarm_set_callback+0x3e>
10004e2c:	0020      	movs	r0, r4
10004e2e:	f7ff f979 	bl	10004124 <irq_set_exclusive_handler>
10004e32:	2101      	movs	r1, #1
10004e34:	0020      	movs	r0, r4
10004e36:	f7ff f953 	bl	100040e0 <irq_set_enabled>
10004e3a:	2301      	movs	r3, #1
10004e3c:	40a3      	lsls	r3, r4
10004e3e:	4a11      	ldr	r2, [pc, #68]	; (10004e84 <hardware_alarm_set_callback+0x80>)
10004e40:	6013      	str	r3, [r2, #0]
10004e42:	4b11      	ldr	r3, [pc, #68]	; (10004e88 <hardware_alarm_set_callback+0x84>)
10004e44:	00a4      	lsls	r4, r4, #2
10004e46:	50e5      	str	r5, [r4, r3]
10004e48:	f3bf 8f5f 	dmb	sy
10004e4c:	2200      	movs	r2, #0
10004e4e:	4b0b      	ldr	r3, [pc, #44]	; (10004e7c <hardware_alarm_set_callback+0x78>)
10004e50:	601a      	str	r2, [r3, #0]
10004e52:	f386 8810 	msr	PRIMASK, r6
10004e56:	bd70      	pop	{r4, r5, r6, pc}
10004e58:	4b0b      	ldr	r3, [pc, #44]	; (10004e88 <hardware_alarm_set_callback+0x84>)
10004e5a:	00a2      	lsls	r2, r4, #2
10004e5c:	50d5      	str	r5, [r2, r3]
10004e5e:	2201      	movs	r2, #1
10004e60:	40a2      	lsls	r2, r4
10004e62:	490a      	ldr	r1, [pc, #40]	; (10004e8c <hardware_alarm_set_callback+0x88>)
10004e64:	0020      	movs	r0, r4
10004e66:	780b      	ldrb	r3, [r1, #0]
10004e68:	4393      	bics	r3, r2
10004e6a:	700b      	strb	r3, [r1, #0]
10004e6c:	4904      	ldr	r1, [pc, #16]	; (10004e80 <hardware_alarm_set_callback+0x7c>)
10004e6e:	f7ff f983 	bl	10004178 <irq_remove_handler>
10004e72:	2100      	movs	r1, #0
10004e74:	0020      	movs	r0, r4
10004e76:	f7ff f933 	bl	100040e0 <irq_set_enabled>
10004e7a:	e7e5      	b.n	10004e48 <hardware_alarm_set_callback+0x44>
10004e7c:	d0000128 	.word	0xd0000128
10004e80:	10004d21 	.word	0x10004d21
10004e84:	40056038 	.word	0x40056038
10004e88:	2000165c 	.word	0x2000165c
10004e8c:	20001d92 	.word	0x20001d92

10004e90 <hardware_alarm_set_target>:
10004e90:	b5f0      	push	{r4, r5, r6, r7, lr}
10004e92:	46ce      	mov	lr, r9
10004e94:	4647      	mov	r7, r8
10004e96:	b580      	push	{r7, lr}
10004e98:	4c2a      	ldr	r4, [pc, #168]	; (10004f44 <hardware_alarm_set_target+0xb4>)
10004e9a:	6a61      	ldr	r1, [r4, #36]	; 0x24
10004e9c:	000d      	movs	r5, r1
10004e9e:	6aa6      	ldr	r6, [r4, #40]	; 0x28
10004ea0:	6a61      	ldr	r1, [r4, #36]	; 0x24
10004ea2:	42a9      	cmp	r1, r5
10004ea4:	d1fa      	bne.n	10004e9c <hardware_alarm_set_target+0xc>
10004ea6:	428b      	cmp	r3, r1
10004ea8:	d807      	bhi.n	10004eba <hardware_alarm_set_target+0x2a>
10004eaa:	d004      	beq.n	10004eb6 <hardware_alarm_set_target+0x26>
10004eac:	2001      	movs	r0, #1
10004eae:	bc0c      	pop	{r2, r3}
10004eb0:	4690      	mov	r8, r2
10004eb2:	4699      	mov	r9, r3
10004eb4:	bdf0      	pop	{r4, r5, r6, r7, pc}
10004eb6:	42b2      	cmp	r2, r6
10004eb8:	d9f8      	bls.n	10004eac <hardware_alarm_set_target+0x1c>
10004eba:	f3ef 8810 	mrs	r8, PRIMASK
10004ebe:	b672      	cpsid	i
10004ec0:	4c21      	ldr	r4, [pc, #132]	; (10004f48 <hardware_alarm_set_target+0xb8>)
10004ec2:	6821      	ldr	r1, [r4, #0]
10004ec4:	2900      	cmp	r1, #0
10004ec6:	d0fc      	beq.n	10004ec2 <hardware_alarm_set_target+0x32>
10004ec8:	f3bf 8f5f 	dmb	sy
10004ecc:	2501      	movs	r5, #1
10004ece:	4085      	lsls	r5, r0
10004ed0:	4c1c      	ldr	r4, [pc, #112]	; (10004f44 <hardware_alarm_set_target+0xb4>)
10004ed2:	4e1e      	ldr	r6, [pc, #120]	; (10004f4c <hardware_alarm_set_target+0xbc>)
10004ed4:	6365      	str	r5, [r4, #52]	; 0x34
10004ed6:	b2e9      	uxtb	r1, r5
10004ed8:	468c      	mov	ip, r1
10004eda:	7831      	ldrb	r1, [r6, #0]
10004edc:	4689      	mov	r9, r1
10004ede:	4661      	mov	r1, ip
10004ee0:	464f      	mov	r7, r9
10004ee2:	4339      	orrs	r1, r7
10004ee4:	7031      	strb	r1, [r6, #0]
10004ee6:	1d01      	adds	r1, r0, #4
10004ee8:	0089      	lsls	r1, r1, #2
10004eea:	510a      	str	r2, [r1, r4]
10004eec:	4918      	ldr	r1, [pc, #96]	; (10004f50 <hardware_alarm_set_target+0xc0>)
10004eee:	0080      	lsls	r0, r0, #2
10004ef0:	5043      	str	r3, [r0, r1]
10004ef2:	6a21      	ldr	r1, [r4, #32]
10004ef4:	2000      	movs	r0, #0
10004ef6:	4229      	tst	r1, r5
10004ef8:	d00c      	beq.n	10004f14 <hardware_alarm_set_target+0x84>
10004efa:	0020      	movs	r0, r4
10004efc:	6a61      	ldr	r1, [r4, #36]	; 0x24
10004efe:	000c      	movs	r4, r1
10004f00:	6a87      	ldr	r7, [r0, #40]	; 0x28
10004f02:	6a41      	ldr	r1, [r0, #36]	; 0x24
10004f04:	42a1      	cmp	r1, r4
10004f06:	d1fa      	bne.n	10004efe <hardware_alarm_set_target+0x6e>
10004f08:	428b      	cmp	r3, r1
10004f0a:	d802      	bhi.n	10004f12 <hardware_alarm_set_target+0x82>
10004f0c:	d10a      	bne.n	10004f24 <hardware_alarm_set_target+0x94>
10004f0e:	42ba      	cmp	r2, r7
10004f10:	d908      	bls.n	10004f24 <hardware_alarm_set_target+0x94>
10004f12:	2000      	movs	r0, #0
10004f14:	f3bf 8f5f 	dmb	sy
10004f18:	2200      	movs	r2, #0
10004f1a:	4b0b      	ldr	r3, [pc, #44]	; (10004f48 <hardware_alarm_set_target+0xb8>)
10004f1c:	601a      	str	r2, [r3, #0]
10004f1e:	f388 8810 	msr	PRIMASK, r8
10004f22:	e7c4      	b.n	10004eae <hardware_alarm_set_target+0x1e>
10004f24:	4b07      	ldr	r3, [pc, #28]	; (10004f44 <hardware_alarm_set_target+0xb4>)
10004f26:	464f      	mov	r7, r9
10004f28:	621d      	str	r5, [r3, #32]
10004f2a:	635d      	str	r5, [r3, #52]	; 0x34
10004f2c:	4663      	mov	r3, ip
10004f2e:	439f      	bics	r7, r3
10004f30:	2001      	movs	r0, #1
10004f32:	7037      	strb	r7, [r6, #0]
10004f34:	f3bf 8f5f 	dmb	sy
10004f38:	2200      	movs	r2, #0
10004f3a:	4b03      	ldr	r3, [pc, #12]	; (10004f48 <hardware_alarm_set_target+0xb8>)
10004f3c:	601a      	str	r2, [r3, #0]
10004f3e:	f388 8810 	msr	PRIMASK, r8
10004f42:	e7b4      	b.n	10004eae <hardware_alarm_set_target+0x1e>
10004f44:	40054000 	.word	0x40054000
10004f48:	d0000128 	.word	0xd0000128
10004f4c:	20001d92 	.word	0x20001d92
10004f50:	20001d7c 	.word	0x20001d7c

10004f54 <hardware_alarm_cancel>:
10004f54:	b510      	push	{r4, lr}
10004f56:	f3ef 8410 	mrs	r4, PRIMASK
10004f5a:	b672      	cpsid	i
10004f5c:	490a      	ldr	r1, [pc, #40]	; (10004f88 <hardware_alarm_cancel+0x34>)
10004f5e:	680b      	ldr	r3, [r1, #0]
10004f60:	2b00      	cmp	r3, #0
10004f62:	d0fc      	beq.n	10004f5e <hardware_alarm_cancel+0xa>
10004f64:	f3bf 8f5f 	dmb	sy
10004f68:	2301      	movs	r3, #1
10004f6a:	4083      	lsls	r3, r0
10004f6c:	4a07      	ldr	r2, [pc, #28]	; (10004f8c <hardware_alarm_cancel+0x38>)
10004f6e:	4808      	ldr	r0, [pc, #32]	; (10004f90 <hardware_alarm_cancel+0x3c>)
10004f70:	6213      	str	r3, [r2, #32]
10004f72:	7802      	ldrb	r2, [r0, #0]
10004f74:	439a      	bics	r2, r3
10004f76:	7002      	strb	r2, [r0, #0]
10004f78:	f3bf 8f5f 	dmb	sy
10004f7c:	2300      	movs	r3, #0
10004f7e:	600b      	str	r3, [r1, #0]
10004f80:	f384 8810 	msr	PRIMASK, r4
10004f84:	bd10      	pop	{r4, pc}
10004f86:	46c0      	nop			; (mov r8, r8)
10004f88:	d0000128 	.word	0xd0000128
10004f8c:	40054000 	.word	0x40054000
10004f90:	20001d92 	.word	0x20001d92

10004f94 <ph_merge_nodes>:
10004f94:	b570      	push	{r4, r5, r6, lr}
10004f96:	0005      	movs	r5, r0
10004f98:	000e      	movs	r6, r1
10004f9a:	0014      	movs	r4, r2
10004f9c:	2900      	cmp	r1, #0
10004f9e:	d024      	beq.n	10004fea <ph_merge_nodes+0x56>
10004fa0:	2a00      	cmp	r2, #0
10004fa2:	d024      	beq.n	10004fee <ph_merge_nodes+0x5a>
10004fa4:	6880      	ldr	r0, [r0, #8]
10004fa6:	686b      	ldr	r3, [r5, #4]
10004fa8:	4798      	blx	r3
10004faa:	6829      	ldr	r1, [r5, #0]
10004fac:	2800      	cmp	r0, #0
10004fae:	d00e      	beq.n	10004fce <ph_merge_nodes+0x3a>
10004fb0:	0063      	lsls	r3, r4, #1
10004fb2:	191b      	adds	r3, r3, r4
10004fb4:	0072      	lsls	r2, r6, #1
10004fb6:	3b03      	subs	r3, #3
10004fb8:	1992      	adds	r2, r2, r6
10004fba:	18cb      	adds	r3, r1, r3
10004fbc:	3a03      	subs	r2, #3
10004fbe:	709e      	strb	r6, [r3, #2]
10004fc0:	1888      	adds	r0, r1, r2
10004fc2:	5c8a      	ldrb	r2, [r1, r2]
10004fc4:	2a00      	cmp	r2, #0
10004fc6:	d114      	bne.n	10004ff2 <ph_merge_nodes+0x5e>
10004fc8:	7004      	strb	r4, [r0, #0]
10004fca:	0030      	movs	r0, r6
10004fcc:	e00e      	b.n	10004fec <ph_merge_nodes+0x58>
10004fce:	0073      	lsls	r3, r6, #1
10004fd0:	199b      	adds	r3, r3, r6
10004fd2:	0062      	lsls	r2, r4, #1
10004fd4:	3b03      	subs	r3, #3
10004fd6:	1912      	adds	r2, r2, r4
10004fd8:	18cb      	adds	r3, r1, r3
10004fda:	3a03      	subs	r2, #3
10004fdc:	709c      	strb	r4, [r3, #2]
10004fde:	1888      	adds	r0, r1, r2
10004fe0:	5c8a      	ldrb	r2, [r1, r2]
10004fe2:	2a00      	cmp	r2, #0
10004fe4:	d000      	beq.n	10004fe8 <ph_merge_nodes+0x54>
10004fe6:	705a      	strb	r2, [r3, #1]
10004fe8:	7006      	strb	r6, [r0, #0]
10004fea:	0020      	movs	r0, r4
10004fec:	bd70      	pop	{r4, r5, r6, pc}
10004fee:	0008      	movs	r0, r1
10004ff0:	e7fc      	b.n	10004fec <ph_merge_nodes+0x58>
10004ff2:	705a      	strb	r2, [r3, #1]
10004ff4:	7004      	strb	r4, [r0, #0]
10004ff6:	0030      	movs	r0, r6
10004ff8:	e7f8      	b.n	10004fec <ph_merge_nodes+0x58>
10004ffa:	46c0      	nop			; (mov r8, r8)

10004ffc <ph_create>:
10004ffc:	b5f0      	push	{r4, r5, r6, r7, lr}
10004ffe:	46c6      	mov	lr, r8
10005000:	0005      	movs	r5, r0
10005002:	000f      	movs	r7, r1
10005004:	b500      	push	{lr}
10005006:	2110      	movs	r1, #16
10005008:	2001      	movs	r0, #1
1000500a:	0016      	movs	r6, r2
1000500c:	f001 fc04 	bl	10006818 <__wrap_calloc>
10005010:	b2eb      	uxtb	r3, r5
10005012:	0004      	movs	r4, r0
10005014:	7303      	strb	r3, [r0, #12]
10005016:	2103      	movs	r1, #3
10005018:	6047      	str	r7, [r0, #4]
1000501a:	0028      	movs	r0, r5
1000501c:	4698      	mov	r8, r3
1000501e:	f001 fbfb 	bl	10006818 <__wrap_calloc>
10005022:	2300      	movs	r3, #0
10005024:	7363      	strb	r3, [r4, #13]
10005026:	3301      	adds	r3, #1
10005028:	73a3      	strb	r3, [r4, #14]
1000502a:	4643      	mov	r3, r8
1000502c:	21ff      	movs	r1, #255	; 0xff
1000502e:	73e3      	strb	r3, [r4, #15]
10005030:	23fe      	movs	r3, #254	; 0xfe
10005032:	6020      	str	r0, [r4, #0]
10005034:	60a6      	str	r6, [r4, #8]
10005036:	4029      	ands	r1, r5
10005038:	422b      	tst	r3, r5
1000503a:	d006      	beq.n	1000504a <ph_create+0x4e>
1000503c:	1c42      	adds	r2, r0, #1
1000503e:	3bfd      	subs	r3, #253	; 0xfd
10005040:	3301      	adds	r3, #1
10005042:	7013      	strb	r3, [r2, #0]
10005044:	3203      	adds	r2, #3
10005046:	428b      	cmp	r3, r1
10005048:	d3fa      	bcc.n	10005040 <ph_create+0x44>
1000504a:	004b      	lsls	r3, r1, #1
1000504c:	1859      	adds	r1, r3, r1
1000504e:	2300      	movs	r3, #0
10005050:	1840      	adds	r0, r0, r1
10005052:	3803      	subs	r0, #3
10005054:	7043      	strb	r3, [r0, #1]
10005056:	0020      	movs	r0, r4
10005058:	bc04      	pop	{r2}
1000505a:	4690      	mov	r8, r2
1000505c:	bdf0      	pop	{r4, r5, r6, r7, pc}
1000505e:	46c0      	nop			; (mov r8, r8)

10005060 <ph_merge_two_pass>:
10005060:	b5f8      	push	{r3, r4, r5, r6, r7, lr}
10005062:	46ce      	mov	lr, r9
10005064:	4647      	mov	r7, r8
10005066:	0006      	movs	r6, r0
10005068:	000c      	movs	r4, r1
1000506a:	b580      	push	{r7, lr}
1000506c:	2900      	cmp	r1, #0
1000506e:	d007      	beq.n	10005080 <ph_merge_two_pass+0x20>
10005070:	004d      	lsls	r5, r1, #1
10005072:	6803      	ldr	r3, [r0, #0]
10005074:	186d      	adds	r5, r5, r1
10005076:	3d03      	subs	r5, #3
10005078:	195a      	adds	r2, r3, r5
1000507a:	7857      	ldrb	r7, [r2, #1]
1000507c:	2f00      	cmp	r7, #0
1000507e:	d104      	bne.n	1000508a <ph_merge_two_pass+0x2a>
10005080:	0020      	movs	r0, r4
10005082:	bc0c      	pop	{r2, r3}
10005084:	4690      	mov	r8, r2
10005086:	4699      	mov	r9, r3
10005088:	bdf8      	pop	{r3, r4, r5, r6, r7, pc}
1000508a:	0079      	lsls	r1, r7, #1
1000508c:	19c9      	adds	r1, r1, r7
1000508e:	3903      	subs	r1, #3
10005090:	4688      	mov	r8, r1
10005092:	4443      	add	r3, r8
10005094:	7859      	ldrb	r1, [r3, #1]
10005096:	4689      	mov	r9, r1
10005098:	2100      	movs	r1, #0
1000509a:	7059      	strb	r1, [r3, #1]
1000509c:	7051      	strb	r1, [r2, #1]
1000509e:	6873      	ldr	r3, [r6, #4]
100050a0:	003a      	movs	r2, r7
100050a2:	0021      	movs	r1, r4
100050a4:	6880      	ldr	r0, [r0, #8]
100050a6:	4798      	blx	r3
100050a8:	6833      	ldr	r3, [r6, #0]
100050aa:	2800      	cmp	r0, #0
100050ac:	d014      	beq.n	100050d8 <ph_merge_two_pass+0x78>
100050ae:	4642      	mov	r2, r8
100050b0:	189a      	adds	r2, r3, r2
100050b2:	7094      	strb	r4, [r2, #2]
100050b4:	1959      	adds	r1, r3, r5
100050b6:	5d5b      	ldrb	r3, [r3, r5]
100050b8:	2b00      	cmp	r3, #0
100050ba:	d000      	beq.n	100050be <ph_merge_two_pass+0x5e>
100050bc:	7053      	strb	r3, [r2, #1]
100050be:	700f      	strb	r7, [r1, #0]
100050c0:	0027      	movs	r7, r4
100050c2:	4649      	mov	r1, r9
100050c4:	0030      	movs	r0, r6
100050c6:	f7ff ffcb 	bl	10005060 <ph_merge_two_pass>
100050ca:	0039      	movs	r1, r7
100050cc:	0002      	movs	r2, r0
100050ce:	0030      	movs	r0, r6
100050d0:	f7ff ff60 	bl	10004f94 <ph_merge_nodes>
100050d4:	0004      	movs	r4, r0
100050d6:	e7d3      	b.n	10005080 <ph_merge_two_pass+0x20>
100050d8:	4642      	mov	r2, r8
100050da:	4641      	mov	r1, r8
100050dc:	195d      	adds	r5, r3, r5
100050de:	70af      	strb	r7, [r5, #2]
100050e0:	189a      	adds	r2, r3, r2
100050e2:	5c5b      	ldrb	r3, [r3, r1]
100050e4:	2b00      	cmp	r3, #0
100050e6:	d000      	beq.n	100050ea <ph_merge_two_pass+0x8a>
100050e8:	706b      	strb	r3, [r5, #1]
100050ea:	7014      	strb	r4, [r2, #0]
100050ec:	e7e9      	b.n	100050c2 <ph_merge_two_pass+0x62>
100050ee:	46c0      	nop			; (mov r8, r8)

100050f0 <ph_remove_any_head>:
100050f0:	b5f0      	push	{r4, r5, r6, r7, lr}
100050f2:	4657      	mov	r7, sl
100050f4:	4645      	mov	r5, r8
100050f6:	46de      	mov	lr, fp
100050f8:	464e      	mov	r6, r9
100050fa:	b5e0      	push	{r5, r6, r7, lr}
100050fc:	000d      	movs	r5, r1
100050fe:	006b      	lsls	r3, r5, #1
10005100:	6801      	ldr	r1, [r0, #0]
10005102:	195b      	adds	r3, r3, r5
10005104:	1edf      	subs	r7, r3, #3
10005106:	0004      	movs	r4, r0
10005108:	5dc8      	ldrb	r0, [r1, r7]
1000510a:	b083      	sub	sp, #12
1000510c:	9201      	str	r2, [sp, #4]
1000510e:	19ca      	adds	r2, r1, r7
10005110:	2800      	cmp	r0, #0
10005112:	d04c      	beq.n	100051ae <ph_remove_any_head+0xbe>
10005114:	0043      	lsls	r3, r0, #1
10005116:	181b      	adds	r3, r3, r0
10005118:	3b03      	subs	r3, #3
1000511a:	18cb      	adds	r3, r1, r3
1000511c:	785e      	ldrb	r6, [r3, #1]
1000511e:	46b4      	mov	ip, r6
10005120:	2e00      	cmp	r6, #0
10005122:	d116      	bne.n	10005152 <ph_remove_any_head+0x62>
10005124:	9e01      	ldr	r6, [sp, #4]
10005126:	2e00      	cmp	r6, #0
10005128:	d13e      	bne.n	100051a8 <ph_remove_any_head+0xb8>
1000512a:	7be6      	ldrb	r6, [r4, #15]
1000512c:	2e00      	cmp	r6, #0
1000512e:	d004      	beq.n	1000513a <ph_remove_any_head+0x4a>
10005130:	0073      	lsls	r3, r6, #1
10005132:	199b      	adds	r3, r3, r6
10005134:	18cb      	adds	r3, r1, r3
10005136:	3b03      	subs	r3, #3
10005138:	705d      	strb	r5, [r3, #1]
1000513a:	73e5      	strb	r5, [r4, #15]
1000513c:	2800      	cmp	r0, #0
1000513e:	d12f      	bne.n	100051a0 <ph_remove_any_head+0xb0>
10005140:	2300      	movs	r3, #0
10005142:	7053      	strb	r3, [r2, #1]
10005144:	b003      	add	sp, #12
10005146:	bc3c      	pop	{r2, r3, r4, r5}
10005148:	4690      	mov	r8, r2
1000514a:	4699      	mov	r9, r3
1000514c:	46a2      	mov	sl, r4
1000514e:	46ab      	mov	fp, r5
10005150:	bdf0      	pop	{r4, r5, r6, r7, pc}
10005152:	0072      	lsls	r2, r6, #1
10005154:	4462      	add	r2, ip
10005156:	3a03      	subs	r2, #3
10005158:	1889      	adds	r1, r1, r2
1000515a:	784a      	ldrb	r2, [r1, #1]
1000515c:	4690      	mov	r8, r2
1000515e:	2200      	movs	r2, #0
10005160:	704a      	strb	r2, [r1, #1]
10005162:	4691      	mov	r9, r2
10005164:	705a      	strb	r2, [r3, #1]
10005166:	0001      	movs	r1, r0
10005168:	0032      	movs	r2, r6
1000516a:	0020      	movs	r0, r4
1000516c:	f7ff ff12 	bl	10004f94 <ph_merge_nodes>
10005170:	4643      	mov	r3, r8
10005172:	4682      	mov	sl, r0
10005174:	2b00      	cmp	r3, #0
10005176:	d007      	beq.n	10005188 <ph_remove_any_head+0x98>
10005178:	005b      	lsls	r3, r3, #1
1000517a:	6821      	ldr	r1, [r4, #0]
1000517c:	4443      	add	r3, r8
1000517e:	3b03      	subs	r3, #3
10005180:	18cb      	adds	r3, r1, r3
10005182:	785a      	ldrb	r2, [r3, #1]
10005184:	2a00      	cmp	r2, #0
10005186:	d116      	bne.n	100051b6 <ph_remove_any_head+0xc6>
10005188:	4642      	mov	r2, r8
1000518a:	4651      	mov	r1, sl
1000518c:	0020      	movs	r0, r4
1000518e:	f7ff ff01 	bl	10004f94 <ph_merge_nodes>
10005192:	6821      	ldr	r1, [r4, #0]
10005194:	9b01      	ldr	r3, [sp, #4]
10005196:	19ca      	adds	r2, r1, r7
10005198:	2b00      	cmp	r3, #0
1000519a:	d0c6      	beq.n	1000512a <ph_remove_any_head+0x3a>
1000519c:	2800      	cmp	r0, #0
1000519e:	d0cf      	beq.n	10005140 <ph_remove_any_head+0x50>
100051a0:	0043      	lsls	r3, r0, #1
100051a2:	181b      	adds	r3, r3, r0
100051a4:	3b03      	subs	r3, #3
100051a6:	18cb      	adds	r3, r1, r3
100051a8:	2100      	movs	r1, #0
100051aa:	7099      	strb	r1, [r3, #2]
100051ac:	e7c8      	b.n	10005140 <ph_remove_any_head+0x50>
100051ae:	9b01      	ldr	r3, [sp, #4]
100051b0:	2b00      	cmp	r3, #0
100051b2:	d1c5      	bne.n	10005140 <ph_remove_any_head+0x50>
100051b4:	e7b9      	b.n	1000512a <ph_remove_any_head+0x3a>
100051b6:	0050      	lsls	r0, r2, #1
100051b8:	1880      	adds	r0, r0, r2
100051ba:	3803      	subs	r0, #3
100051bc:	1809      	adds	r1, r1, r0
100051be:	7848      	ldrb	r0, [r1, #1]
100051c0:	4683      	mov	fp, r0
100051c2:	4648      	mov	r0, r9
100051c4:	7048      	strb	r0, [r1, #1]
100051c6:	7058      	strb	r0, [r3, #1]
100051c8:	4641      	mov	r1, r8
100051ca:	0020      	movs	r0, r4
100051cc:	f7ff fee2 	bl	10004f94 <ph_merge_nodes>
100051d0:	4659      	mov	r1, fp
100051d2:	4680      	mov	r8, r0
100051d4:	0020      	movs	r0, r4
100051d6:	f7ff ff43 	bl	10005060 <ph_merge_two_pass>
100051da:	4641      	mov	r1, r8
100051dc:	0002      	movs	r2, r0
100051de:	0020      	movs	r0, r4
100051e0:	f7ff fed8 	bl	10004f94 <ph_merge_nodes>
100051e4:	4680      	mov	r8, r0
100051e6:	e7cf      	b.n	10005188 <ph_remove_any_head+0x98>

100051e8 <ph_remove_head_reserve>:
100051e8:	b5f0      	push	{r4, r5, r6, r7, lr}
100051ea:	464e      	mov	r6, r9
100051ec:	4645      	mov	r5, r8
100051ee:	46de      	mov	lr, fp
100051f0:	4657      	mov	r7, sl
100051f2:	b5e0      	push	{r5, r6, r7, lr}
100051f4:	7b46      	ldrb	r6, [r0, #13]
100051f6:	0004      	movs	r4, r0
100051f8:	0075      	lsls	r5, r6, #1
100051fa:	6800      	ldr	r0, [r0, #0]
100051fc:	19ad      	adds	r5, r5, r6
100051fe:	3d03      	subs	r5, #3
10005200:	b083      	sub	sp, #12
10005202:	9101      	str	r1, [sp, #4]
10005204:	5d41      	ldrb	r1, [r0, r5]
10005206:	1942      	adds	r2, r0, r5
10005208:	2900      	cmp	r1, #0
1000520a:	d04e      	beq.n	100052aa <ph_remove_head_reserve+0xc2>
1000520c:	004b      	lsls	r3, r1, #1
1000520e:	185b      	adds	r3, r3, r1
10005210:	3b03      	subs	r3, #3
10005212:	18c3      	adds	r3, r0, r3
10005214:	785f      	ldrb	r7, [r3, #1]
10005216:	46bc      	mov	ip, r7
10005218:	2f00      	cmp	r7, #0
1000521a:	d118      	bne.n	1000524e <ph_remove_head_reserve+0x66>
1000521c:	9d01      	ldr	r5, [sp, #4]
1000521e:	2d00      	cmp	r5, #0
10005220:	d140      	bne.n	100052a4 <ph_remove_head_reserve+0xbc>
10005222:	7be5      	ldrb	r5, [r4, #15]
10005224:	2d00      	cmp	r5, #0
10005226:	d004      	beq.n	10005232 <ph_remove_head_reserve+0x4a>
10005228:	006b      	lsls	r3, r5, #1
1000522a:	195b      	adds	r3, r3, r5
1000522c:	18c3      	adds	r3, r0, r3
1000522e:	3b03      	subs	r3, #3
10005230:	705e      	strb	r6, [r3, #1]
10005232:	73e6      	strb	r6, [r4, #15]
10005234:	2900      	cmp	r1, #0
10005236:	d131      	bne.n	1000529c <ph_remove_head_reserve+0xb4>
10005238:	2300      	movs	r3, #0
1000523a:	0030      	movs	r0, r6
1000523c:	7053      	strb	r3, [r2, #1]
1000523e:	7361      	strb	r1, [r4, #13]
10005240:	b003      	add	sp, #12
10005242:	bc3c      	pop	{r2, r3, r4, r5}
10005244:	4690      	mov	r8, r2
10005246:	4699      	mov	r9, r3
10005248:	46a2      	mov	sl, r4
1000524a:	46ab      	mov	fp, r5
1000524c:	bdf0      	pop	{r4, r5, r6, r7, pc}
1000524e:	007a      	lsls	r2, r7, #1
10005250:	4462      	add	r2, ip
10005252:	3a03      	subs	r2, #3
10005254:	1880      	adds	r0, r0, r2
10005256:	7842      	ldrb	r2, [r0, #1]
10005258:	4693      	mov	fp, r2
1000525a:	2200      	movs	r2, #0
1000525c:	7042      	strb	r2, [r0, #1]
1000525e:	4691      	mov	r9, r2
10005260:	705a      	strb	r2, [r3, #1]
10005262:	0020      	movs	r0, r4
10005264:	003a      	movs	r2, r7
10005266:	f7ff fe95 	bl	10004f94 <ph_merge_nodes>
1000526a:	465b      	mov	r3, fp
1000526c:	4680      	mov	r8, r0
1000526e:	2b00      	cmp	r3, #0
10005270:	d007      	beq.n	10005282 <ph_remove_head_reserve+0x9a>
10005272:	005b      	lsls	r3, r3, #1
10005274:	6821      	ldr	r1, [r4, #0]
10005276:	445b      	add	r3, fp
10005278:	3b03      	subs	r3, #3
1000527a:	18cb      	adds	r3, r1, r3
1000527c:	785a      	ldrb	r2, [r3, #1]
1000527e:	2a00      	cmp	r2, #0
10005280:	d117      	bne.n	100052b2 <ph_remove_head_reserve+0xca>
10005282:	465a      	mov	r2, fp
10005284:	4641      	mov	r1, r8
10005286:	0020      	movs	r0, r4
10005288:	f7ff fe84 	bl	10004f94 <ph_merge_nodes>
1000528c:	9b01      	ldr	r3, [sp, #4]
1000528e:	0001      	movs	r1, r0
10005290:	6820      	ldr	r0, [r4, #0]
10005292:	1942      	adds	r2, r0, r5
10005294:	2b00      	cmp	r3, #0
10005296:	d0c4      	beq.n	10005222 <ph_remove_head_reserve+0x3a>
10005298:	2900      	cmp	r1, #0
1000529a:	d0cd      	beq.n	10005238 <ph_remove_head_reserve+0x50>
1000529c:	004b      	lsls	r3, r1, #1
1000529e:	185b      	adds	r3, r3, r1
100052a0:	3b03      	subs	r3, #3
100052a2:	18c3      	adds	r3, r0, r3
100052a4:	2000      	movs	r0, #0
100052a6:	7098      	strb	r0, [r3, #2]
100052a8:	e7c6      	b.n	10005238 <ph_remove_head_reserve+0x50>
100052aa:	9b01      	ldr	r3, [sp, #4]
100052ac:	2b00      	cmp	r3, #0
100052ae:	d1c3      	bne.n	10005238 <ph_remove_head_reserve+0x50>
100052b0:	e7b7      	b.n	10005222 <ph_remove_head_reserve+0x3a>
100052b2:	0050      	lsls	r0, r2, #1
100052b4:	1880      	adds	r0, r0, r2
100052b6:	3803      	subs	r0, #3
100052b8:	1809      	adds	r1, r1, r0
100052ba:	7848      	ldrb	r0, [r1, #1]
100052bc:	4682      	mov	sl, r0
100052be:	4648      	mov	r0, r9
100052c0:	7048      	strb	r0, [r1, #1]
100052c2:	7058      	strb	r0, [r3, #1]
100052c4:	4659      	mov	r1, fp
100052c6:	0020      	movs	r0, r4
100052c8:	f7ff fe64 	bl	10004f94 <ph_merge_nodes>
100052cc:	4653      	mov	r3, sl
100052ce:	4683      	mov	fp, r0
100052d0:	2b00      	cmp	r3, #0
100052d2:	d007      	beq.n	100052e4 <ph_remove_head_reserve+0xfc>
100052d4:	005b      	lsls	r3, r3, #1
100052d6:	6821      	ldr	r1, [r4, #0]
100052d8:	4453      	add	r3, sl
100052da:	3b03      	subs	r3, #3
100052dc:	18cb      	adds	r3, r1, r3
100052de:	785a      	ldrb	r2, [r3, #1]
100052e0:	2a00      	cmp	r2, #0
100052e2:	d106      	bne.n	100052f2 <ph_remove_head_reserve+0x10a>
100052e4:	4659      	mov	r1, fp
100052e6:	4652      	mov	r2, sl
100052e8:	0020      	movs	r0, r4
100052ea:	f7ff fe53 	bl	10004f94 <ph_merge_nodes>
100052ee:	4683      	mov	fp, r0
100052f0:	e7c7      	b.n	10005282 <ph_remove_head_reserve+0x9a>
100052f2:	0050      	lsls	r0, r2, #1
100052f4:	1880      	adds	r0, r0, r2
100052f6:	3803      	subs	r0, #3
100052f8:	1809      	adds	r1, r1, r0
100052fa:	4648      	mov	r0, r9
100052fc:	784f      	ldrb	r7, [r1, #1]
100052fe:	7048      	strb	r0, [r1, #1]
10005300:	7058      	strb	r0, [r3, #1]
10005302:	4651      	mov	r1, sl
10005304:	0020      	movs	r0, r4
10005306:	f7ff fe45 	bl	10004f94 <ph_merge_nodes>
1000530a:	0039      	movs	r1, r7
1000530c:	4681      	mov	r9, r0
1000530e:	0020      	movs	r0, r4
10005310:	f7ff fea6 	bl	10005060 <ph_merge_two_pass>
10005314:	4649      	mov	r1, r9
10005316:	0002      	movs	r2, r0
10005318:	0020      	movs	r0, r4
1000531a:	f7ff fe3b 	bl	10004f94 <ph_merge_nodes>
1000531e:	4682      	mov	sl, r0
10005320:	e7e0      	b.n	100052e4 <ph_remove_head_reserve+0xfc>
10005322:	46c0      	nop			; (mov r8, r8)

10005324 <ph_delete>:
10005324:	b570      	push	{r4, r5, r6, lr}
10005326:	0004      	movs	r4, r0
10005328:	2900      	cmp	r1, #0
1000532a:	d02c      	beq.n	10005386 <ph_delete+0x62>
1000532c:	7b43      	ldrb	r3, [r0, #13]
1000532e:	428b      	cmp	r3, r1
10005330:	d02e      	beq.n	10005390 <ph_delete+0x6c>
10005332:	6805      	ldr	r5, [r0, #0]
10005334:	0048      	lsls	r0, r1, #1
10005336:	1840      	adds	r0, r0, r1
10005338:	3803      	subs	r0, #3
1000533a:	1828      	adds	r0, r5, r0
1000533c:	7882      	ldrb	r2, [r0, #2]
1000533e:	2a00      	cmp	r2, #0
10005340:	d021      	beq.n	10005386 <ph_delete+0x62>
10005342:	0053      	lsls	r3, r2, #1
10005344:	189b      	adds	r3, r3, r2
10005346:	3b03      	subs	r3, #3
10005348:	5cea      	ldrb	r2, [r5, r3]
1000534a:	18ee      	adds	r6, r5, r3
1000534c:	428a      	cmp	r2, r1
1000534e:	d102      	bne.n	10005356 <ph_delete+0x32>
10005350:	e01b      	b.n	1000538a <ph_delete+0x66>
10005352:	2a00      	cmp	r2, #0
10005354:	d008      	beq.n	10005368 <ph_delete+0x44>
10005356:	0053      	lsls	r3, r2, #1
10005358:	189b      	adds	r3, r3, r2
1000535a:	3b03      	subs	r3, #3
1000535c:	18eb      	adds	r3, r5, r3
1000535e:	785a      	ldrb	r2, [r3, #1]
10005360:	428a      	cmp	r2, r1
10005362:	d1f6      	bne.n	10005352 <ph_delete+0x2e>
10005364:	7842      	ldrb	r2, [r0, #1]
10005366:	705a      	strb	r2, [r3, #1]
10005368:	2300      	movs	r3, #0
1000536a:	2200      	movs	r2, #0
1000536c:	7083      	strb	r3, [r0, #2]
1000536e:	7043      	strb	r3, [r0, #1]
10005370:	0020      	movs	r0, r4
10005372:	f7ff febd 	bl	100050f0 <ph_remove_any_head>
10005376:	7b61      	ldrb	r1, [r4, #13]
10005378:	0002      	movs	r2, r0
1000537a:	0020      	movs	r0, r4
1000537c:	f7ff fe0a 	bl	10004f94 <ph_merge_nodes>
10005380:	7360      	strb	r0, [r4, #13]
10005382:	2001      	movs	r0, #1
10005384:	e000      	b.n	10005388 <ph_delete+0x64>
10005386:	2000      	movs	r0, #0
10005388:	bd70      	pop	{r4, r5, r6, pc}
1000538a:	7843      	ldrb	r3, [r0, #1]
1000538c:	7033      	strb	r3, [r6, #0]
1000538e:	e7eb      	b.n	10005368 <ph_delete+0x44>
10005390:	2200      	movs	r2, #0
10005392:	0019      	movs	r1, r3
10005394:	f7ff feac 	bl	100050f0 <ph_remove_any_head>
10005398:	7360      	strb	r0, [r4, #13]
1000539a:	2001      	movs	r0, #1
1000539c:	e7f4      	b.n	10005388 <ph_delete+0x64>
1000539e:	46c0      	nop			; (mov r8, r8)

100053a0 <mutex_init>:
100053a0:	b510      	push	{r4, lr}
100053a2:	0004      	movs	r4, r0
100053a4:	f7ff f8d0 	bl	10004548 <next_striped_spin_lock_num>
100053a8:	0001      	movs	r1, r0
100053aa:	0020      	movs	r0, r4
100053ac:	f7ff f900 	bl	100045b0 <lock_init>
100053b0:	f3bf 8f5f 	dmb	sy
100053b4:	bd10      	pop	{r4, pc}
100053b6:	46c0      	nop			; (mov r8, r8)

100053b8 <critical_section_init>:
100053b8:	b510      	push	{r4, lr}
100053ba:	0004      	movs	r4, r0
100053bc:	2001      	movs	r0, #1
100053be:	f7ff f8cf 	bl	10004560 <spin_lock_claim_unused>
100053c2:	0001      	movs	r1, r0
100053c4:	0020      	movs	r0, r4
100053c6:	f7ff f8f3 	bl	100045b0 <lock_init>
100053ca:	f3bf 8f5f 	dmb	sy
100053ce:	bd10      	pop	{r4, pc}

100053d0 <gpio_set_function>:
100053d0:	4a09      	ldr	r2, [pc, #36]	; (100053f8 <gpio_set_function+0x28>)
100053d2:	0083      	lsls	r3, r0, #2
100053d4:	4694      	mov	ip, r2
100053d6:	2240      	movs	r2, #64	; 0x40
100053d8:	4463      	add	r3, ip
100053da:	b510      	push	{r4, lr}
100053dc:	681c      	ldr	r4, [r3, #0]
100053de:	00c0      	lsls	r0, r0, #3
100053e0:	4062      	eors	r2, r4
100053e2:	24c0      	movs	r4, #192	; 0xc0
100053e4:	4014      	ands	r4, r2
100053e6:	2280      	movs	r2, #128	; 0x80
100053e8:	0152      	lsls	r2, r2, #5
100053ea:	4313      	orrs	r3, r2
100053ec:	601c      	str	r4, [r3, #0]
100053ee:	4b03      	ldr	r3, [pc, #12]	; (100053fc <gpio_set_function+0x2c>)
100053f0:	469c      	mov	ip, r3
100053f2:	4460      	add	r0, ip
100053f4:	6041      	str	r1, [r0, #4]
100053f6:	bd10      	pop	{r4, pc}
100053f8:	4001c004 	.word	0x4001c004
100053fc:	40014000 	.word	0x40014000

10005400 <uart_init>:
10005400:	b5f0      	push	{r4, r5, r6, r7, lr}
10005402:	46c6      	mov	lr, r8
10005404:	0005      	movs	r5, r0
10005406:	b500      	push	{lr}
10005408:	2006      	movs	r0, #6
1000540a:	000e      	movs	r6, r1
1000540c:	f000 fa96 	bl	1000593c <clock_get_hz>
10005410:	2800      	cmp	r0, #0
10005412:	d04d      	beq.n	100054b0 <uart_init+0xb0>
10005414:	4b29      	ldr	r3, [pc, #164]	; (100054bc <uart_init+0xbc>)
10005416:	492a      	ldr	r1, [pc, #168]	; (100054c0 <uart_init+0xc0>)
10005418:	18eb      	adds	r3, r5, r3
1000541a:	425a      	negs	r2, r3
1000541c:	4153      	adcs	r3, r2
1000541e:	2280      	movs	r2, #128	; 0x80
10005420:	03d2      	lsls	r2, r2, #15
10005422:	4694      	mov	ip, r2
10005424:	425b      	negs	r3, r3
10005426:	4013      	ands	r3, r2
10005428:	4a26      	ldr	r2, [pc, #152]	; (100054c4 <uart_init+0xc4>)
1000542a:	4463      	add	r3, ip
1000542c:	6013      	str	r3, [r2, #0]
1000542e:	4a26      	ldr	r2, [pc, #152]	; (100054c8 <uart_init+0xc8>)
10005430:	6013      	str	r3, [r2, #0]
10005432:	001c      	movs	r4, r3
10005434:	688a      	ldr	r2, [r1, #8]
10005436:	4394      	bics	r4, r2
10005438:	d1fb      	bne.n	10005432 <uart_init+0x32>
1000543a:	4b20      	ldr	r3, [pc, #128]	; (100054bc <uart_init+0xbc>)
1000543c:	2180      	movs	r1, #128	; 0x80
1000543e:	18eb      	adds	r3, r5, r3
10005440:	425a      	negs	r2, r3
10005442:	4153      	adcs	r3, r2
10005444:	4a21      	ldr	r2, [pc, #132]	; (100054cc <uart_init+0xcc>)
10005446:	005b      	lsls	r3, r3, #1
10005448:	0049      	lsls	r1, r1, #1
1000544a:	2006      	movs	r0, #6
1000544c:	5299      	strh	r1, [r3, r2]
1000544e:	f000 fa75 	bl	1000593c <clock_get_hz>
10005452:	0031      	movs	r1, r6
10005454:	00c0      	lsls	r0, r0, #3
10005456:	f000 fb1f 	bl	10005a98 <__wrap___aeabi_uidiv>
1000545a:	267f      	movs	r6, #127	; 0x7f
1000545c:	4b1c      	ldr	r3, [pc, #112]	; (100054d0 <uart_init+0xd0>)
1000545e:	4006      	ands	r6, r0
10005460:	09c7      	lsrs	r7, r0, #7
10005462:	3601      	adds	r6, #1
10005464:	0876      	lsrs	r6, r6, #1
10005466:	626f      	str	r7, [r5, #36]	; 0x24
10005468:	429f      	cmp	r7, r3
1000546a:	d024      	beq.n	100054b6 <uart_init+0xb6>
1000546c:	62ae      	str	r6, [r5, #40]	; 0x28
1000546e:	232c      	movs	r3, #44	; 0x2c
10005470:	4698      	mov	r8, r3
10005472:	2480      	movs	r4, #128	; 0x80
10005474:	44a8      	add	r8, r5
10005476:	4643      	mov	r3, r8
10005478:	01a4      	lsls	r4, r4, #6
1000547a:	431c      	orrs	r4, r3
1000547c:	2300      	movs	r3, #0
1000547e:	2006      	movs	r0, #6
10005480:	6023      	str	r3, [r4, #0]
10005482:	f000 fa5b 	bl	1000593c <clock_get_hz>
10005486:	01b9      	lsls	r1, r7, #6
10005488:	1989      	adds	r1, r1, r6
1000548a:	0080      	lsls	r0, r0, #2
1000548c:	f000 fb04 	bl	10005a98 <__wrap___aeabi_uidiv>
10005490:	2360      	movs	r3, #96	; 0x60
10005492:	6aea      	ldr	r2, [r5, #44]	; 0x2c
10005494:	4641      	mov	r1, r8
10005496:	4053      	eors	r3, r2
10005498:	226e      	movs	r2, #110	; 0x6e
1000549a:	401a      	ands	r2, r3
1000549c:	2380      	movs	r3, #128	; 0x80
1000549e:	015b      	lsls	r3, r3, #5
100054a0:	430b      	orrs	r3, r1
100054a2:	601a      	str	r2, [r3, #0]
100054a4:	4b0b      	ldr	r3, [pc, #44]	; (100054d4 <uart_init+0xd4>)
100054a6:	632b      	str	r3, [r5, #48]	; 0x30
100054a8:	2310      	movs	r3, #16
100054aa:	6023      	str	r3, [r4, #0]
100054ac:	3b0d      	subs	r3, #13
100054ae:	64ab      	str	r3, [r5, #72]	; 0x48
100054b0:	bc04      	pop	{r2}
100054b2:	4690      	mov	r8, r2
100054b4:	bdf0      	pop	{r4, r5, r6, r7, pc}
100054b6:	62ac      	str	r4, [r5, #40]	; 0x28
100054b8:	e7d9      	b.n	1000546e <uart_init+0x6e>
100054ba:	46c0      	nop			; (mov r8, r8)
100054bc:	bffc8000 	.word	0xbffc8000
100054c0:	4000c000 	.word	0x4000c000
100054c4:	4000e000 	.word	0x4000e000
100054c8:	4000f000 	.word	0x4000f000
100054cc:	20001e54 	.word	0x20001e54
100054d0:	0000ffff 	.word	0x0000ffff
100054d4:	00000301 	.word	0x00000301

100054d8 <uart_deinit>:
100054d8:	4b06      	ldr	r3, [pc, #24]	; (100054f4 <uart_deinit+0x1c>)
100054da:	469c      	mov	ip, r3
100054dc:	4460      	add	r0, ip
100054de:	4243      	negs	r3, r0
100054e0:	4158      	adcs	r0, r3
100054e2:	2380      	movs	r3, #128	; 0x80
100054e4:	03db      	lsls	r3, r3, #15
100054e6:	469c      	mov	ip, r3
100054e8:	4240      	negs	r0, r0
100054ea:	4018      	ands	r0, r3
100054ec:	4b02      	ldr	r3, [pc, #8]	; (100054f8 <uart_deinit+0x20>)
100054ee:	4460      	add	r0, ip
100054f0:	6018      	str	r0, [r3, #0]
100054f2:	4770      	bx	lr
100054f4:	bffc8000 	.word	0xbffc8000
100054f8:	4000e000 	.word	0x4000e000

100054fc <runtime_init>:
100054fc:	4b2b      	ldr	r3, [pc, #172]	; (100055ac <runtime_init+0xb0>)
100054fe:	4a2c      	ldr	r2, [pc, #176]	; (100055b0 <runtime_init+0xb4>)
10005500:	b570      	push	{r4, r5, r6, lr}
10005502:	601a      	str	r2, [r3, #0]
10005504:	4a2b      	ldr	r2, [pc, #172]	; (100055b4 <runtime_init+0xb8>)
10005506:	4b2c      	ldr	r3, [pc, #176]	; (100055b8 <runtime_init+0xbc>)
10005508:	492c      	ldr	r1, [pc, #176]	; (100055bc <runtime_init+0xc0>)
1000550a:	601a      	str	r2, [r3, #0]
1000550c:	0010      	movs	r0, r2
1000550e:	688b      	ldr	r3, [r1, #8]
10005510:	4398      	bics	r0, r3
10005512:	d1fb      	bne.n	1000550c <runtime_init+0x10>
10005514:	4c2a      	ldr	r4, [pc, #168]	; (100055c0 <runtime_init+0xc4>)
10005516:	4b2b      	ldr	r3, [pc, #172]	; (100055c4 <runtime_init+0xc8>)
10005518:	429c      	cmp	r4, r3
1000551a:	d209      	bcs.n	10005530 <runtime_init+0x34>
1000551c:	3b01      	subs	r3, #1
1000551e:	1b1d      	subs	r5, r3, r4
10005520:	08ad      	lsrs	r5, r5, #2
10005522:	3501      	adds	r5, #1
10005524:	00ad      	lsls	r5, r5, #2
10005526:	192d      	adds	r5, r5, r4
10005528:	cc08      	ldmia	r4!, {r3}
1000552a:	4798      	blx	r3
1000552c:	42ac      	cmp	r4, r5
1000552e:	d1fb      	bne.n	10005528 <runtime_init+0x2c>
10005530:	f000 f894 	bl	1000565c <clocks_init>
10005534:	4a24      	ldr	r2, [pc, #144]	; (100055c8 <runtime_init+0xcc>)
10005536:	4b20      	ldr	r3, [pc, #128]	; (100055b8 <runtime_init+0xbc>)
10005538:	601a      	str	r2, [r3, #0]
1000553a:	4a20      	ldr	r2, [pc, #128]	; (100055bc <runtime_init+0xc0>)
1000553c:	6893      	ldr	r3, [r2, #8]
1000553e:	01db      	lsls	r3, r3, #7
10005540:	3380      	adds	r3, #128	; 0x80
10005542:	d1fb      	bne.n	1000553c <runtime_init+0x40>
10005544:	2240      	movs	r2, #64	; 0x40
10005546:	4b21      	ldr	r3, [pc, #132]	; (100055cc <runtime_init+0xd0>)
10005548:	4c21      	ldr	r4, [pc, #132]	; (100055d0 <runtime_init+0xd4>)
1000554a:	679a      	str	r2, [r3, #120]	; 0x78
1000554c:	675a      	str	r2, [r3, #116]	; 0x74
1000554e:	671a      	str	r2, [r3, #112]	; 0x70
10005550:	66da      	str	r2, [r3, #108]	; 0x6c
10005552:	4b20      	ldr	r3, [pc, #128]	; (100055d4 <runtime_init+0xd8>)
10005554:	429c      	cmp	r4, r3
10005556:	d20b      	bcs.n	10005570 <runtime_init+0x74>
10005558:	3b01      	subs	r3, #1
1000555a:	1b1d      	subs	r5, r3, r4
1000555c:	08ed      	lsrs	r5, r5, #3
1000555e:	3501      	adds	r5, #1
10005560:	00ed      	lsls	r5, r5, #3
10005562:	192d      	adds	r5, r5, r4
10005564:	0020      	movs	r0, r4
10005566:	3408      	adds	r4, #8
10005568:	f7ff ff1a 	bl	100053a0 <mutex_init>
1000556c:	42ac      	cmp	r4, r5
1000556e:	d1f9      	bne.n	10005564 <runtime_init+0x68>
10005570:	4c19      	ldr	r4, [pc, #100]	; (100055d8 <runtime_init+0xdc>)
10005572:	4d1a      	ldr	r5, [pc, #104]	; (100055dc <runtime_init+0xe0>)
10005574:	68a1      	ldr	r1, [r4, #8]
10005576:	22c0      	movs	r2, #192	; 0xc0
10005578:	0028      	movs	r0, r5
1000557a:	f001 f95f 	bl	1000683c <__wrap___aeabi_memcpy>
1000557e:	60a5      	str	r5, [r4, #8]
10005580:	f7fe ffd4 	bl	1000452c <spin_locks_reset>
10005584:	f7fe ff38 	bl	100043f8 <irq_init_priorities>
10005588:	f7ff fa52 	bl	10004a30 <alarm_pool_init_default>
1000558c:	4c14      	ldr	r4, [pc, #80]	; (100055e0 <runtime_init+0xe4>)
1000558e:	4b15      	ldr	r3, [pc, #84]	; (100055e4 <runtime_init+0xe8>)
10005590:	429c      	cmp	r4, r3
10005592:	d209      	bcs.n	100055a8 <runtime_init+0xac>
10005594:	3b01      	subs	r3, #1
10005596:	1b1d      	subs	r5, r3, r4
10005598:	08ad      	lsrs	r5, r5, #2
1000559a:	3501      	adds	r5, #1
1000559c:	00ad      	lsls	r5, r5, #2
1000559e:	192d      	adds	r5, r5, r4
100055a0:	cc08      	ldmia	r4!, {r3}
100055a2:	4798      	blx	r3
100055a4:	42a5      	cmp	r5, r4
100055a6:	d1fb      	bne.n	100055a0 <runtime_init+0xa4>
100055a8:	bd70      	pop	{r4, r5, r6, pc}
100055aa:	46c0      	nop			; (mov r8, r8)
100055ac:	4000e000 	.word	0x4000e000
100055b0:	ffffcdbf 	.word	0xffffcdbf
100055b4:	003c7ffe 	.word	0x003c7ffe
100055b8:	4000f000 	.word	0x4000f000
100055bc:	4000c000 	.word	0x4000c000
100055c0:	20000bd8 	.word	0x20000bd8
100055c4:	20000be8 	.word	0x20000be8
100055c8:	01ffffff 	.word	0x01ffffff
100055cc:	4001f000 	.word	0x4001f000
100055d0:	20000bd0 	.word	0x20000bd0
100055d4:	20000bd8 	.word	0x20000bd8
100055d8:	e000ed00 	.word	0xe000ed00
100055dc:	20000000 	.word	0x20000000
100055e0:	20000be8 	.word	0x20000be8
100055e4:	20000bf8 	.word	0x20000bf8

100055e8 <_sbrk>:
100055e8:	4a09      	ldr	r2, [pc, #36]	; (10005610 <_sbrk+0x28>)
100055ea:	0003      	movs	r3, r0
100055ec:	6810      	ldr	r0, [r2, #0]
100055ee:	2800      	cmp	r0, #0
100055f0:	d005      	beq.n	100055fe <_sbrk+0x16>
100055f2:	4908      	ldr	r1, [pc, #32]	; (10005614 <_sbrk+0x2c>)
100055f4:	18c3      	adds	r3, r0, r3
100055f6:	428b      	cmp	r3, r1
100055f8:	d207      	bcs.n	1000560a <_sbrk+0x22>
100055fa:	6013      	str	r3, [r2, #0]
100055fc:	4770      	bx	lr
100055fe:	4806      	ldr	r0, [pc, #24]	; (10005618 <_sbrk+0x30>)
10005600:	4904      	ldr	r1, [pc, #16]	; (10005614 <_sbrk+0x2c>)
10005602:	18c3      	adds	r3, r0, r3
10005604:	6010      	str	r0, [r2, #0]
10005606:	428b      	cmp	r3, r1
10005608:	d3f7      	bcc.n	100055fa <_sbrk+0x12>
1000560a:	2001      	movs	r0, #1
1000560c:	4240      	negs	r0, r0
1000560e:	e7f5      	b.n	100055fc <_sbrk+0x14>
10005610:	200016d0 	.word	0x200016d0
10005614:	20040000 	.word	0x20040000
10005618:	20002084 	.word	0x20002084

1000561c <exit>:
1000561c:	be00      	bkpt	0x0000
1000561e:	e7fd      	b.n	1000561c <exit>

10005620 <panic>:
10005620:	b40f      	push	{r0, r1, r2, r3}
10005622:	b500      	push	{lr}
10005624:	4808      	ldr	r0, [pc, #32]	; (10005648 <panic+0x28>)
10005626:	b083      	sub	sp, #12
10005628:	f7fb f870 	bl	1000070c <__wrap_puts>
1000562c:	9b04      	ldr	r3, [sp, #16]
1000562e:	2b00      	cmp	r3, #0
10005630:	d007      	beq.n	10005642 <panic+0x22>
10005632:	a905      	add	r1, sp, #20
10005634:	0018      	movs	r0, r3
10005636:	9101      	str	r1, [sp, #4]
10005638:	f7fc fca2 	bl	10001f80 <weak_raw_vprintf>
1000563c:	4803      	ldr	r0, [pc, #12]	; (1000564c <panic+0x2c>)
1000563e:	f7fb f865 	bl	1000070c <__wrap_puts>
10005642:	be00      	bkpt	0x0000
10005644:	e7fd      	b.n	10005642 <panic+0x22>
10005646:	46c0      	nop			; (mov r8, r8)
10005648:	10008abc 	.word	0x10008abc
1000564c:	10008acc 	.word	0x10008acc

10005650 <hard_assertion_failure>:
10005650:	b510      	push	{r4, lr}
10005652:	4801      	ldr	r0, [pc, #4]	; (10005658 <hard_assertion_failure+0x8>)
10005654:	f7ff ffe4 	bl	10005620 <panic>
10005658:	10008ad0 	.word	0x10008ad0

1000565c <clocks_init>:
1000565c:	b530      	push	{r4, r5, lr}
1000565e:	200c      	movs	r0, #12
10005660:	b083      	sub	sp, #12
10005662:	f000 f971 	bl	10005948 <watchdog_start_tick>
10005666:	f7fe ff8b 	bl	10004580 <running_on_fpga>
1000566a:	2800      	cmp	r0, #0
1000566c:	d00e      	beq.n	1000568c <clocks_init+0x30>
1000566e:	4b9a      	ldr	r3, [pc, #616]	; (100058d8 <clocks_init+0x27c>)
10005670:	4a9a      	ldr	r2, [pc, #616]	; (100058dc <clocks_init+0x280>)
10005672:	601a      	str	r2, [r3, #0]
10005674:	605a      	str	r2, [r3, #4]
10005676:	609a      	str	r2, [r3, #8]
10005678:	60da      	str	r2, [r3, #12]
1000567a:	611a      	str	r2, [r3, #16]
1000567c:	615a      	str	r2, [r3, #20]
1000567e:	619a      	str	r2, [r3, #24]
10005680:	61da      	str	r2, [r3, #28]
10005682:	621a      	str	r2, [r3, #32]
10005684:	4a96      	ldr	r2, [pc, #600]	; (100058e0 <clocks_init+0x284>)
10005686:	625a      	str	r2, [r3, #36]	; 0x24
10005688:	b003      	add	sp, #12
1000568a:	bd30      	pop	{r4, r5, pc}
1000568c:	4c95      	ldr	r4, [pc, #596]	; (100058e4 <clocks_init+0x288>)
1000568e:	67a0      	str	r0, [r4, #120]	; 0x78
10005690:	f000 f962 	bl	10005958 <xosc_init>
10005694:	2201      	movs	r2, #1
10005696:	4b94      	ldr	r3, [pc, #592]	; (100058e8 <clocks_init+0x28c>)
10005698:	601a      	str	r2, [r3, #0]
1000569a:	6c63      	ldr	r3, [r4, #68]	; 0x44
1000569c:	2b01      	cmp	r3, #1
1000569e:	d1fc      	bne.n	1000569a <clocks_init+0x3e>
100056a0:	2203      	movs	r2, #3
100056a2:	4b92      	ldr	r3, [pc, #584]	; (100058ec <clocks_init+0x290>)
100056a4:	601a      	str	r2, [r3, #0]
100056a6:	4a8f      	ldr	r2, [pc, #572]	; (100058e4 <clocks_init+0x288>)
100056a8:	6b93      	ldr	r3, [r2, #56]	; 0x38
100056aa:	2b01      	cmp	r3, #1
100056ac:	d1fc      	bne.n	100056a8 <clocks_init+0x4c>
100056ae:	22c0      	movs	r2, #192	; 0xc0
100056b0:	4b8f      	ldr	r3, [pc, #572]	; (100058f0 <clocks_init+0x294>)
100056b2:	0192      	lsls	r2, r2, #6
100056b4:	601a      	str	r2, [r3, #0]
100056b6:	4b8f      	ldr	r3, [pc, #572]	; (100058f4 <clocks_init+0x298>)
100056b8:	498f      	ldr	r1, [pc, #572]	; (100058f8 <clocks_init+0x29c>)
100056ba:	601a      	str	r2, [r3, #0]
100056bc:	0010      	movs	r0, r2
100056be:	688b      	ldr	r3, [r1, #8]
100056c0:	4398      	bics	r0, r3
100056c2:	1e03      	subs	r3, r0, #0
100056c4:	d1fa      	bne.n	100056bc <clocks_init+0x60>
100056c6:	2402      	movs	r4, #2
100056c8:	2101      	movs	r1, #1
100056ca:	4a8c      	ldr	r2, [pc, #560]	; (100058fc <clocks_init+0x2a0>)
100056cc:	488c      	ldr	r0, [pc, #560]	; (10005900 <clocks_init+0x2a4>)
100056ce:	3306      	adds	r3, #6
100056d0:	9400      	str	r4, [sp, #0]
100056d2:	f000 f955 	bl	10005980 <pll_init>
100056d6:	2305      	movs	r3, #5
100056d8:	4a8a      	ldr	r2, [pc, #552]	; (10005904 <clocks_init+0x2a8>)
100056da:	2101      	movs	r1, #1
100056dc:	488a      	ldr	r0, [pc, #552]	; (10005908 <clocks_init+0x2ac>)
100056de:	9400      	str	r4, [sp, #0]
100056e0:	f000 f94e 	bl	10005980 <pll_init>
100056e4:	4b89      	ldr	r3, [pc, #548]	; (1000590c <clocks_init+0x2b0>)
100056e6:	685a      	ldr	r2, [r3, #4]
100056e8:	2aff      	cmp	r2, #255	; 0xff
100056ea:	d802      	bhi.n	100056f2 <clocks_init+0x96>
100056ec:	2280      	movs	r2, #128	; 0x80
100056ee:	0052      	lsls	r2, r2, #1
100056f0:	605a      	str	r2, [r3, #4]
100056f2:	2280      	movs	r2, #128	; 0x80
100056f4:	4c78      	ldr	r4, [pc, #480]	; (100058d8 <clocks_init+0x27c>)
100056f6:	4b7d      	ldr	r3, [pc, #500]	; (100058ec <clocks_init+0x290>)
100056f8:	6921      	ldr	r1, [r4, #16]
100056fa:	0112      	lsls	r2, r2, #4
100056fc:	4d83      	ldr	r5, [pc, #524]	; (1000590c <clocks_init+0x2b0>)
100056fe:	601a      	str	r2, [r3, #0]
10005700:	2900      	cmp	r1, #0
10005702:	d005      	beq.n	10005710 <clocks_init+0xb4>
10005704:	6960      	ldr	r0, [r4, #20]
10005706:	f000 f9c7 	bl	10005a98 <__wrap___aeabi_uidiv>
1000570a:	3001      	adds	r0, #1
1000570c:	3801      	subs	r0, #1
1000570e:	d1fd      	bne.n	1000570c <clocks_init+0xb0>
10005710:	21e0      	movs	r1, #224	; 0xe0
10005712:	4b7e      	ldr	r3, [pc, #504]	; (1000590c <clocks_init+0x2b0>)
10005714:	2002      	movs	r0, #2
10005716:	681a      	ldr	r2, [r3, #0]
10005718:	4011      	ands	r1, r2
1000571a:	2280      	movs	r2, #128	; 0x80
1000571c:	0152      	lsls	r2, r2, #5
1000571e:	432a      	orrs	r2, r5
10005720:	6011      	str	r1, [r2, #0]
10005722:	6819      	ldr	r1, [r3, #0]
10005724:	4048      	eors	r0, r1
10005726:	2103      	movs	r1, #3
10005728:	4001      	ands	r1, r0
1000572a:	6011      	str	r1, [r2, #0]
1000572c:	2104      	movs	r1, #4
1000572e:	689a      	ldr	r2, [r3, #8]
10005730:	4211      	tst	r1, r2
10005732:	d0fc      	beq.n	1000572e <clocks_init+0xd2>
10005734:	2280      	movs	r2, #128	; 0x80
10005736:	2180      	movs	r1, #128	; 0x80
10005738:	0192      	lsls	r2, r2, #6
1000573a:	432a      	orrs	r2, r5
1000573c:	0109      	lsls	r1, r1, #4
1000573e:	6011      	str	r1, [r2, #0]
10005740:	2280      	movs	r2, #128	; 0x80
10005742:	0052      	lsls	r2, r2, #1
10005744:	605a      	str	r2, [r3, #4]
10005746:	4b72      	ldr	r3, [pc, #456]	; (10005910 <clocks_init+0x2b4>)
10005748:	6123      	str	r3, [r4, #16]
1000574a:	4b72      	ldr	r3, [pc, #456]	; (10005914 <clocks_init+0x2b8>)
1000574c:	6859      	ldr	r1, [r3, #4]
1000574e:	29ff      	cmp	r1, #255	; 0xff
10005750:	d800      	bhi.n	10005754 <clocks_init+0xf8>
10005752:	605a      	str	r2, [r3, #4]
10005754:	2203      	movs	r2, #3
10005756:	486f      	ldr	r0, [pc, #444]	; (10005914 <clocks_init+0x2b8>)
10005758:	4b63      	ldr	r3, [pc, #396]	; (100058e8 <clocks_init+0x28c>)
1000575a:	2101      	movs	r1, #1
1000575c:	601a      	str	r2, [r3, #0]
1000575e:	0002      	movs	r2, r0
10005760:	6893      	ldr	r3, [r2, #8]
10005762:	4219      	tst	r1, r3
10005764:	d0fc      	beq.n	10005760 <clocks_init+0x104>
10005766:	25e0      	movs	r5, #224	; 0xe0
10005768:	6813      	ldr	r3, [r2, #0]
1000576a:	401d      	ands	r5, r3
1000576c:	2380      	movs	r3, #128	; 0x80
1000576e:	015b      	lsls	r3, r3, #5
10005770:	4303      	orrs	r3, r0
10005772:	601d      	str	r5, [r3, #0]
10005774:	6812      	ldr	r2, [r2, #0]
10005776:	404a      	eors	r2, r1
10005778:	2103      	movs	r1, #3
1000577a:	4011      	ands	r1, r2
1000577c:	6019      	str	r1, [r3, #0]
1000577e:	2102      	movs	r1, #2
10005780:	4a64      	ldr	r2, [pc, #400]	; (10005914 <clocks_init+0x2b8>)
10005782:	6893      	ldr	r3, [r2, #8]
10005784:	4219      	tst	r1, r3
10005786:	d0fc      	beq.n	10005782 <clocks_init+0x126>
10005788:	2380      	movs	r3, #128	; 0x80
1000578a:	2180      	movs	r1, #128	; 0x80
1000578c:	019b      	lsls	r3, r3, #6
1000578e:	4303      	orrs	r3, r0
10005790:	0109      	lsls	r1, r1, #4
10005792:	6019      	str	r1, [r3, #0]
10005794:	2180      	movs	r1, #128	; 0x80
10005796:	4b60      	ldr	r3, [pc, #384]	; (10005918 <clocks_init+0x2bc>)
10005798:	0049      	lsls	r1, r1, #1
1000579a:	6051      	str	r1, [r2, #4]
1000579c:	6163      	str	r3, [r4, #20]
1000579e:	4b5f      	ldr	r3, [pc, #380]	; (1000591c <clocks_init+0x2c0>)
100057a0:	685a      	ldr	r2, [r3, #4]
100057a2:	2aff      	cmp	r2, #255	; 0xff
100057a4:	d800      	bhi.n	100057a8 <clocks_init+0x14c>
100057a6:	6059      	str	r1, [r3, #4]
100057a8:	2280      	movs	r2, #128	; 0x80
100057aa:	4b5d      	ldr	r3, [pc, #372]	; (10005920 <clocks_init+0x2c4>)
100057ac:	69e1      	ldr	r1, [r4, #28]
100057ae:	0112      	lsls	r2, r2, #4
100057b0:	4d5a      	ldr	r5, [pc, #360]	; (1000591c <clocks_init+0x2c0>)
100057b2:	601a      	str	r2, [r3, #0]
100057b4:	2900      	cmp	r1, #0
100057b6:	d005      	beq.n	100057c4 <clocks_init+0x168>
100057b8:	6960      	ldr	r0, [r4, #20]
100057ba:	f000 f96d 	bl	10005a98 <__wrap___aeabi_uidiv>
100057be:	3001      	adds	r0, #1
100057c0:	3801      	subs	r0, #1
100057c2:	d1fd      	bne.n	100057c0 <clocks_init+0x164>
100057c4:	22e0      	movs	r2, #224	; 0xe0
100057c6:	4955      	ldr	r1, [pc, #340]	; (1000591c <clocks_init+0x2c0>)
100057c8:	680b      	ldr	r3, [r1, #0]
100057ca:	401a      	ands	r2, r3
100057cc:	2380      	movs	r3, #128	; 0x80
100057ce:	015b      	lsls	r3, r3, #5
100057d0:	432b      	orrs	r3, r5
100057d2:	601a      	str	r2, [r3, #0]
100057d4:	2380      	movs	r3, #128	; 0x80
100057d6:	2280      	movs	r2, #128	; 0x80
100057d8:	019b      	lsls	r3, r3, #6
100057da:	432b      	orrs	r3, r5
100057dc:	0112      	lsls	r2, r2, #4
100057de:	601a      	str	r2, [r3, #0]
100057e0:	2280      	movs	r2, #128	; 0x80
100057e2:	4b3e      	ldr	r3, [pc, #248]	; (100058dc <clocks_init+0x280>)
100057e4:	0052      	lsls	r2, r2, #1
100057e6:	604a      	str	r2, [r1, #4]
100057e8:	61e3      	str	r3, [r4, #28]
100057ea:	4b4e      	ldr	r3, [pc, #312]	; (10005924 <clocks_init+0x2c8>)
100057ec:	6859      	ldr	r1, [r3, #4]
100057ee:	29ff      	cmp	r1, #255	; 0xff
100057f0:	d800      	bhi.n	100057f4 <clocks_init+0x198>
100057f2:	605a      	str	r2, [r3, #4]
100057f4:	2280      	movs	r2, #128	; 0x80
100057f6:	4b4c      	ldr	r3, [pc, #304]	; (10005928 <clocks_init+0x2cc>)
100057f8:	6a21      	ldr	r1, [r4, #32]
100057fa:	0112      	lsls	r2, r2, #4
100057fc:	4d49      	ldr	r5, [pc, #292]	; (10005924 <clocks_init+0x2c8>)
100057fe:	601a      	str	r2, [r3, #0]
10005800:	2900      	cmp	r1, #0
10005802:	d005      	beq.n	10005810 <clocks_init+0x1b4>
10005804:	6960      	ldr	r0, [r4, #20]
10005806:	f000 f947 	bl	10005a98 <__wrap___aeabi_uidiv>
1000580a:	3001      	adds	r0, #1
1000580c:	3801      	subs	r0, #1
1000580e:	d1fd      	bne.n	1000580c <clocks_init+0x1b0>
10005810:	22e0      	movs	r2, #224	; 0xe0
10005812:	4944      	ldr	r1, [pc, #272]	; (10005924 <clocks_init+0x2c8>)
10005814:	680b      	ldr	r3, [r1, #0]
10005816:	401a      	ands	r2, r3
10005818:	2380      	movs	r3, #128	; 0x80
1000581a:	015b      	lsls	r3, r3, #5
1000581c:	432b      	orrs	r3, r5
1000581e:	601a      	str	r2, [r3, #0]
10005820:	2380      	movs	r3, #128	; 0x80
10005822:	2280      	movs	r2, #128	; 0x80
10005824:	019b      	lsls	r3, r3, #6
10005826:	432b      	orrs	r3, r5
10005828:	0112      	lsls	r2, r2, #4
1000582a:	601a      	str	r2, [r3, #0]
1000582c:	2380      	movs	r3, #128	; 0x80
1000582e:	2280      	movs	r2, #128	; 0x80
10005830:	005b      	lsls	r3, r3, #1
10005832:	604b      	str	r3, [r1, #4]
10005834:	4b29      	ldr	r3, [pc, #164]	; (100058dc <clocks_init+0x280>)
10005836:	02d2      	lsls	r2, r2, #11
10005838:	6223      	str	r3, [r4, #32]
1000583a:	4b3c      	ldr	r3, [pc, #240]	; (1000592c <clocks_init+0x2d0>)
1000583c:	6859      	ldr	r1, [r3, #4]
1000583e:	4291      	cmp	r1, r2
10005840:	d200      	bcs.n	10005844 <clocks_init+0x1e8>
10005842:	605a      	str	r2, [r3, #4]
10005844:	2280      	movs	r2, #128	; 0x80
10005846:	4b3a      	ldr	r3, [pc, #232]	; (10005930 <clocks_init+0x2d4>)
10005848:	6a61      	ldr	r1, [r4, #36]	; 0x24
1000584a:	0112      	lsls	r2, r2, #4
1000584c:	4d37      	ldr	r5, [pc, #220]	; (1000592c <clocks_init+0x2d0>)
1000584e:	601a      	str	r2, [r3, #0]
10005850:	2900      	cmp	r1, #0
10005852:	d005      	beq.n	10005860 <clocks_init+0x204>
10005854:	6960      	ldr	r0, [r4, #20]
10005856:	f000 f91f 	bl	10005a98 <__wrap___aeabi_uidiv>
1000585a:	3001      	adds	r0, #1
1000585c:	3801      	subs	r0, #1
1000585e:	d1fd      	bne.n	1000585c <clocks_init+0x200>
10005860:	22e0      	movs	r2, #224	; 0xe0
10005862:	4932      	ldr	r1, [pc, #200]	; (1000592c <clocks_init+0x2d0>)
10005864:	680b      	ldr	r3, [r1, #0]
10005866:	401a      	ands	r2, r3
10005868:	2380      	movs	r3, #128	; 0x80
1000586a:	015b      	lsls	r3, r3, #5
1000586c:	432b      	orrs	r3, r5
1000586e:	601a      	str	r2, [r3, #0]
10005870:	2380      	movs	r3, #128	; 0x80
10005872:	2280      	movs	r2, #128	; 0x80
10005874:	019b      	lsls	r3, r3, #6
10005876:	432b      	orrs	r3, r5
10005878:	0112      	lsls	r2, r2, #4
1000587a:	601a      	str	r2, [r3, #0]
1000587c:	2380      	movs	r3, #128	; 0x80
1000587e:	02db      	lsls	r3, r3, #11
10005880:	604b      	str	r3, [r1, #4]
10005882:	4b17      	ldr	r3, [pc, #92]	; (100058e0 <clocks_init+0x284>)
10005884:	6263      	str	r3, [r4, #36]	; 0x24
10005886:	4b2b      	ldr	r3, [pc, #172]	; (10005934 <clocks_init+0x2d8>)
10005888:	685a      	ldr	r2, [r3, #4]
1000588a:	2aff      	cmp	r2, #255	; 0xff
1000588c:	d802      	bhi.n	10005894 <clocks_init+0x238>
1000588e:	2280      	movs	r2, #128	; 0x80
10005890:	0052      	lsls	r2, r2, #1
10005892:	605a      	str	r2, [r3, #4]
10005894:	2280      	movs	r2, #128	; 0x80
10005896:	4b28      	ldr	r3, [pc, #160]	; (10005938 <clocks_init+0x2dc>)
10005898:	69a1      	ldr	r1, [r4, #24]
1000589a:	0112      	lsls	r2, r2, #4
1000589c:	4d25      	ldr	r5, [pc, #148]	; (10005934 <clocks_init+0x2d8>)
1000589e:	601a      	str	r2, [r3, #0]
100058a0:	2900      	cmp	r1, #0
100058a2:	d005      	beq.n	100058b0 <clocks_init+0x254>
100058a4:	6960      	ldr	r0, [r4, #20]
100058a6:	f000 f8f7 	bl	10005a98 <__wrap___aeabi_uidiv>
100058aa:	3001      	adds	r0, #1
100058ac:	3801      	subs	r0, #1
100058ae:	d1fd      	bne.n	100058ac <clocks_init+0x250>
100058b0:	22e0      	movs	r2, #224	; 0xe0
100058b2:	4920      	ldr	r1, [pc, #128]	; (10005934 <clocks_init+0x2d8>)
100058b4:	680b      	ldr	r3, [r1, #0]
100058b6:	401a      	ands	r2, r3
100058b8:	2380      	movs	r3, #128	; 0x80
100058ba:	015b      	lsls	r3, r3, #5
100058bc:	432b      	orrs	r3, r5
100058be:	601a      	str	r2, [r3, #0]
100058c0:	2380      	movs	r3, #128	; 0x80
100058c2:	2280      	movs	r2, #128	; 0x80
100058c4:	019b      	lsls	r3, r3, #6
100058c6:	432b      	orrs	r3, r5
100058c8:	0112      	lsls	r2, r2, #4
100058ca:	601a      	str	r2, [r3, #0]
100058cc:	2380      	movs	r3, #128	; 0x80
100058ce:	005b      	lsls	r3, r3, #1
100058d0:	604b      	str	r3, [r1, #4]
100058d2:	4b11      	ldr	r3, [pc, #68]	; (10005918 <clocks_init+0x2bc>)
100058d4:	61a3      	str	r3, [r4, #24]
100058d6:	e6d7      	b.n	10005688 <clocks_init+0x2c>
100058d8:	20001670 	.word	0x20001670
100058dc:	02dc6c00 	.word	0x02dc6c00
100058e0:	0000b71b 	.word	0x0000b71b
100058e4:	40008000 	.word	0x40008000
100058e8:	4000b03c 	.word	0x4000b03c
100058ec:	4000b030 	.word	0x4000b030
100058f0:	4000e000 	.word	0x4000e000
100058f4:	4000f000 	.word	0x4000f000
100058f8:	4000c000 	.word	0x4000c000
100058fc:	59682f00 	.word	0x59682f00
10005900:	40028000 	.word	0x40028000
10005904:	1c9c3800 	.word	0x1c9c3800
10005908:	4002c000 	.word	0x4002c000
1000590c:	40008030 	.word	0x40008030
10005910:	00b71b00 	.word	0x00b71b00
10005914:	4000803c 	.word	0x4000803c
10005918:	07735940 	.word	0x07735940
1000591c:	40008054 	.word	0x40008054
10005920:	4000b054 	.word	0x4000b054
10005924:	40008060 	.word	0x40008060
10005928:	4000b060 	.word	0x4000b060
1000592c:	4000806c 	.word	0x4000806c
10005930:	4000b06c 	.word	0x4000b06c
10005934:	40008048 	.word	0x40008048
10005938:	4000b048 	.word	0x4000b048

1000593c <clock_get_hz>:
1000593c:	4b01      	ldr	r3, [pc, #4]	; (10005944 <clock_get_hz+0x8>)
1000593e:	0080      	lsls	r0, r0, #2
10005940:	58c0      	ldr	r0, [r0, r3]
10005942:	4770      	bx	lr
10005944:	20001670 	.word	0x20001670

10005948 <watchdog_start_tick>:
10005948:	2380      	movs	r3, #128	; 0x80
1000594a:	4a02      	ldr	r2, [pc, #8]	; (10005954 <watchdog_start_tick+0xc>)
1000594c:	009b      	lsls	r3, r3, #2
1000594e:	4303      	orrs	r3, r0
10005950:	62d3      	str	r3, [r2, #44]	; 0x2c
10005952:	4770      	bx	lr
10005954:	40058000 	.word	0x40058000

10005958 <xosc_init>:
10005958:	23aa      	movs	r3, #170	; 0xaa
1000595a:	4a06      	ldr	r2, [pc, #24]	; (10005974 <xosc_init+0x1c>)
1000595c:	011b      	lsls	r3, r3, #4
1000595e:	6013      	str	r3, [r2, #0]
10005960:	232f      	movs	r3, #47	; 0x2f
10005962:	4905      	ldr	r1, [pc, #20]	; (10005978 <xosc_init+0x20>)
10005964:	60d3      	str	r3, [r2, #12]
10005966:	4b05      	ldr	r3, [pc, #20]	; (1000597c <xosc_init+0x24>)
10005968:	6019      	str	r1, [r3, #0]
1000596a:	6853      	ldr	r3, [r2, #4]
1000596c:	2b00      	cmp	r3, #0
1000596e:	dafc      	bge.n	1000596a <xosc_init+0x12>
10005970:	4770      	bx	lr
10005972:	46c0      	nop			; (mov r8, r8)
10005974:	40024000 	.word	0x40024000
10005978:	00fab000 	.word	0x00fab000
1000597c:	40026000 	.word	0x40026000

10005980 <pll_init>:
10005980:	b5f8      	push	{r3, r4, r5, r6, r7, lr}
10005982:	001d      	movs	r5, r3
10005984:	ab06      	add	r3, sp, #24
10005986:	781e      	ldrb	r6, [r3, #0]
10005988:	2301      	movs	r3, #1
1000598a:	425b      	negs	r3, r3
1000598c:	6043      	str	r3, [r0, #4]
1000598e:	2300      	movs	r3, #0
10005990:	0004      	movs	r4, r0
10005992:	6083      	str	r3, [r0, #8]
10005994:	6001      	str	r1, [r0, #0]
10005996:	200c      	movs	r0, #12
10005998:	0017      	movs	r7, r2
1000599a:	f000 f87d 	bl	10005a98 <__wrap___aeabi_uidiv>
1000599e:	0141      	lsls	r1, r0, #5
100059a0:	1a09      	subs	r1, r1, r0
100059a2:	018b      	lsls	r3, r1, #6
100059a4:	1a59      	subs	r1, r3, r1
100059a6:	00c9      	lsls	r1, r1, #3
100059a8:	1809      	adds	r1, r1, r0
100059aa:	0189      	lsls	r1, r1, #6
100059ac:	0038      	movs	r0, r7
100059ae:	f000 f873 	bl	10005a98 <__wrap___aeabi_uidiv>
100059b2:	21c0      	movs	r1, #192	; 0xc0
100059b4:	1d23      	adds	r3, r4, #4
100059b6:	0189      	lsls	r1, r1, #6
100059b8:	4319      	orrs	r1, r3
100059ba:	2321      	movs	r3, #33	; 0x21
100059bc:	60a0      	str	r0, [r4, #8]
100059be:	600b      	str	r3, [r1, #0]
100059c0:	6822      	ldr	r2, [r4, #0]
100059c2:	2a00      	cmp	r2, #0
100059c4:	dafc      	bge.n	100059c0 <pll_init+0x40>
100059c6:	2308      	movs	r3, #8
100059c8:	042d      	lsls	r5, r5, #16
100059ca:	0336      	lsls	r6, r6, #12
100059cc:	432e      	orrs	r6, r5
100059ce:	60e6      	str	r6, [r4, #12]
100059d0:	600b      	str	r3, [r1, #0]
100059d2:	bdf8      	pop	{r3, r4, r5, r6, r7, pc}

100059d4 <__aeabi_bits_init>:
100059d4:	4801      	ldr	r0, [pc, #4]	; (100059dc <__aeabi_bits_init+0x8>)
100059d6:	2104      	movs	r1, #4
100059d8:	4b01      	ldr	r3, [pc, #4]	; (100059e0 <__aeabi_bits_init+0xc>)
100059da:	4718      	bx	r3
100059dc:	20000370 	.word	0x20000370
100059e0:	10005a05 	.word	0x10005a05

100059e4 <rom_func_lookup>:
100059e4:	2314      	movs	r3, #20
100059e6:	b510      	push	{r4, lr}
100059e8:	0001      	movs	r1, r0
100059ea:	8818      	ldrh	r0, [r3, #0]
100059ec:	3304      	adds	r3, #4
100059ee:	881b      	ldrh	r3, [r3, #0]
100059f0:	4798      	blx	r3
100059f2:	bd10      	pop	{r4, pc}

100059f4 <rom_data_lookup>:
100059f4:	2316      	movs	r3, #22
100059f6:	b510      	push	{r4, lr}
100059f8:	0001      	movs	r1, r0
100059fa:	8818      	ldrh	r0, [r3, #0]
100059fc:	3302      	adds	r3, #2
100059fe:	881b      	ldrh	r3, [r3, #0]
10005a00:	4798      	blx	r3
10005a02:	bd10      	pop	{r4, pc}

10005a04 <rom_funcs_lookup>:
10005a04:	b5f0      	push	{r4, r5, r6, r7, lr}
10005a06:	46c6      	mov	lr, r8
10005a08:	b500      	push	{lr}
10005a0a:	2900      	cmp	r1, #0
10005a0c:	d016      	beq.n	10005a3c <rom_funcs_lookup+0x38>
10005a0e:	2314      	movs	r3, #20
10005a10:	0004      	movs	r4, r0
10005a12:	2501      	movs	r5, #1
10005a14:	4698      	mov	r8, r3
10005a16:	2718      	movs	r7, #24
10005a18:	0089      	lsls	r1, r1, #2
10005a1a:	1846      	adds	r6, r0, r1
10005a1c:	4643      	mov	r3, r8
10005a1e:	6821      	ldr	r1, [r4, #0]
10005a20:	8818      	ldrh	r0, [r3, #0]
10005a22:	883b      	ldrh	r3, [r7, #0]
10005a24:	4798      	blx	r3
10005a26:	c401      	stmia	r4!, {r0}
10005a28:	1e43      	subs	r3, r0, #1
10005a2a:	4198      	sbcs	r0, r3
10005a2c:	4240      	negs	r0, r0
10005a2e:	4005      	ands	r5, r0
10005a30:	42a6      	cmp	r6, r4
10005a32:	d1f3      	bne.n	10005a1c <rom_funcs_lookup+0x18>
10005a34:	0028      	movs	r0, r5
10005a36:	bc04      	pop	{r2}
10005a38:	4690      	mov	r8, r2
10005a3a:	bdf0      	pop	{r4, r5, r6, r7, pc}
10005a3c:	2501      	movs	r5, #1
10005a3e:	e7f9      	b.n	10005a34 <rom_funcs_lookup+0x30>

10005a40 <__wrap___aeabi_idiv>:
10005a40:	4a14      	ldr	r2, [pc, #80]	; (10005a94 <divmod_s32s32_savestate+0x20>)
10005a42:	6f93      	ldr	r3, [r2, #120]	; 0x78
10005a44:	089b      	lsrs	r3, r3, #2
10005a46:	d215      	bcs.n	10005a74 <divmod_s32s32_savestate>

10005a48 <divmod_s32s32_unsafe>:
10005a48:	6690      	str	r0, [r2, #104]	; 0x68
10005a4a:	66d1      	str	r1, [r2, #108]	; 0x6c
10005a4c:	2900      	cmp	r1, #0
10005a4e:	d005      	beq.n	10005a5c <divmod_s32s32_unsafe+0x14>
10005a50:	e7ff      	b.n	10005a52 <divmod_s32s32_unsafe+0xa>
10005a52:	e7ff      	b.n	10005a54 <divmod_s32s32_unsafe+0xc>
10005a54:	e7ff      	b.n	10005a56 <divmod_s32s32_unsafe+0xe>
10005a56:	6f51      	ldr	r1, [r2, #116]	; 0x74
10005a58:	6f10      	ldr	r0, [r2, #112]	; 0x70
10005a5a:	4770      	bx	lr
10005a5c:	b504      	push	{r2, lr}
10005a5e:	2180      	movs	r1, #128	; 0x80
10005a60:	0609      	lsls	r1, r1, #24
10005a62:	17c2      	asrs	r2, r0, #31
10005a64:	4051      	eors	r1, r2
10005a66:	2800      	cmp	r0, #0
10005a68:	d000      	beq.n	10005a6c <divmod_s32s32_unsafe+0x24>
10005a6a:	43c8      	mvns	r0, r1
10005a6c:	f002 fd58 	bl	10008520 <____aeabi_idiv0_veneer>
10005a70:	2100      	movs	r1, #0
10005a72:	bd04      	pop	{r2, pc}

10005a74 <divmod_s32s32_savestate>:
10005a74:	6f93      	ldr	r3, [r2, #120]	; 0x78
10005a76:	085b      	lsrs	r3, r3, #1
10005a78:	d3fd      	bcc.n	10005a76 <divmod_s32s32_savestate+0x2>
10005a7a:	b5f0      	push	{r4, r5, r6, r7, lr}
10005a7c:	6e94      	ldr	r4, [r2, #104]	; 0x68
10005a7e:	6ed5      	ldr	r5, [r2, #108]	; 0x6c
10005a80:	6f57      	ldr	r7, [r2, #116]	; 0x74
10005a82:	6f16      	ldr	r6, [r2, #112]	; 0x70
10005a84:	f7ff ffe0 	bl	10005a48 <divmod_s32s32_unsafe>
10005a88:	6694      	str	r4, [r2, #104]	; 0x68
10005a8a:	66d5      	str	r5, [r2, #108]	; 0x6c
10005a8c:	6757      	str	r7, [r2, #116]	; 0x74
10005a8e:	6716      	str	r6, [r2, #112]	; 0x70
10005a90:	bdf0      	pop	{r4, r5, r6, r7, pc}
10005a92:	0000      	.short	0x0000
10005a94:	d0000000 	.word	0xd0000000

10005a98 <__wrap___aeabi_uidiv>:
10005a98:	4a13      	ldr	r2, [pc, #76]	; (10005ae8 <divmod_u32u32_savestate+0x20>)
10005a9a:	6f93      	ldr	r3, [r2, #120]	; 0x78
10005a9c:	089b      	lsrs	r3, r3, #2
10005a9e:	d213      	bcs.n	10005ac8 <divmod_u32u32_savestate>

10005aa0 <divmod_u32u32_unsafe>:
10005aa0:	6610      	str	r0, [r2, #96]	; 0x60
10005aa2:	6651      	str	r1, [r2, #100]	; 0x64
10005aa4:	2900      	cmp	r1, #0
10005aa6:	d005      	beq.n	10005ab4 <divmod_u32u32_unsafe+0x14>
10005aa8:	e7ff      	b.n	10005aaa <divmod_u32u32_unsafe+0xa>
10005aaa:	e7ff      	b.n	10005aac <divmod_u32u32_unsafe+0xc>
10005aac:	e7ff      	b.n	10005aae <divmod_u32u32_unsafe+0xe>
10005aae:	6f51      	ldr	r1, [r2, #116]	; 0x74
10005ab0:	6f10      	ldr	r0, [r2, #112]	; 0x70
10005ab2:	4770      	bx	lr
10005ab4:	b504      	push	{r2, lr}
10005ab6:	2800      	cmp	r0, #0
10005ab8:	d001      	beq.n	10005abe <divmod_u32u32_unsafe+0x1e>
10005aba:	2000      	movs	r0, #0
10005abc:	43c0      	mvns	r0, r0
10005abe:	f002 fd2f 	bl	10008520 <____aeabi_idiv0_veneer>
10005ac2:	2100      	movs	r1, #0
10005ac4:	bd04      	pop	{r2, pc}
10005ac6:	46c0      	nop			; (mov r8, r8)

10005ac8 <divmod_u32u32_savestate>:
10005ac8:	6f93      	ldr	r3, [r2, #120]	; 0x78
10005aca:	085b      	lsrs	r3, r3, #1
10005acc:	d3fd      	bcc.n	10005aca <divmod_u32u32_savestate+0x2>
10005ace:	b5f0      	push	{r4, r5, r6, r7, lr}
10005ad0:	6e94      	ldr	r4, [r2, #104]	; 0x68
10005ad2:	6ed5      	ldr	r5, [r2, #108]	; 0x6c
10005ad4:	6f57      	ldr	r7, [r2, #116]	; 0x74
10005ad6:	6f16      	ldr	r6, [r2, #112]	; 0x70
10005ad8:	f7ff ffe2 	bl	10005aa0 <divmod_u32u32_unsafe>
10005adc:	6694      	str	r4, [r2, #104]	; 0x68
10005ade:	66d5      	str	r5, [r2, #108]	; 0x6c
10005ae0:	6757      	str	r7, [r2, #116]	; 0x74
10005ae2:	6716      	str	r6, [r2, #112]	; 0x70
10005ae4:	bdf0      	pop	{r4, r5, r6, r7, pc}
10005ae6:	0000      	.short	0x0000
10005ae8:	d0000000 	.word	0xd0000000

10005aec <__wrap___aeabi_ldivmod>:
10005aec:	4694      	mov	ip, r2
10005aee:	4a4e      	ldr	r2, [pc, #312]	; (10005c28 <udiv0+0x1a>)
10005af0:	6f92      	ldr	r2, [r2, #120]	; 0x78
10005af2:	0892      	lsrs	r2, r2, #2
10005af4:	4662      	mov	r2, ip
10005af6:	d201      	bcs.n	10005afc <divmod_s64s64_savestate>
10005af8:	e030      	b.n	10005b5c <divmod_s64s64_unsafe>
10005afa:	46c0      	nop			; (mov r8, r8)

10005afc <divmod_s64s64_savestate>:
10005afc:	b5f0      	push	{r4, r5, r6, r7, lr}
10005afe:	4e4a      	ldr	r6, [pc, #296]	; (10005c28 <udiv0+0x1a>)
10005b00:	6fb5      	ldr	r5, [r6, #120]	; 0x78
10005b02:	086d      	lsrs	r5, r5, #1
10005b04:	d3fc      	bcc.n	10005b00 <divmod_s64s64_savestate+0x4>
10005b06:	6e34      	ldr	r4, [r6, #96]	; 0x60
10005b08:	6e75      	ldr	r5, [r6, #100]	; 0x64
10005b0a:	6f77      	ldr	r7, [r6, #116]	; 0x74
10005b0c:	6f36      	ldr	r6, [r6, #112]	; 0x70
10005b0e:	f000 f825 	bl	10005b5c <divmod_s64s64_unsafe>
10005b12:	4694      	mov	ip, r2
10005b14:	4a44      	ldr	r2, [pc, #272]	; (10005c28 <udiv0+0x1a>)
10005b16:	6614      	str	r4, [r2, #96]	; 0x60
10005b18:	6655      	str	r5, [r2, #100]	; 0x64
10005b1a:	6757      	str	r7, [r2, #116]	; 0x74
10005b1c:	6716      	str	r6, [r2, #112]	; 0x70
10005b1e:	4662      	mov	r2, ip
10005b20:	bdf0      	pop	{r4, r5, r6, r7, pc}
10005b22:	46c0      	nop			; (mov r8, r8)

10005b24 <__wrap___aeabi_uldivmod>:
10005b24:	4694      	mov	ip, r2
10005b26:	4a40      	ldr	r2, [pc, #256]	; (10005c28 <udiv0+0x1a>)
10005b28:	6f92      	ldr	r2, [r2, #120]	; 0x78
10005b2a:	0892      	lsrs	r2, r2, #2
10005b2c:	4662      	mov	r2, ip
10005b2e:	d201      	bcs.n	10005b34 <divmod_u64u64_savestate>
10005b30:	e058      	b.n	10005be4 <divmod_u64u64_unsafe>
10005b32:	46c0      	nop			; (mov r8, r8)

10005b34 <divmod_u64u64_savestate>:
10005b34:	b5f0      	push	{r4, r5, r6, r7, lr}
10005b36:	4e3c      	ldr	r6, [pc, #240]	; (10005c28 <udiv0+0x1a>)
10005b38:	6fb5      	ldr	r5, [r6, #120]	; 0x78
10005b3a:	086d      	lsrs	r5, r5, #1
10005b3c:	d3fc      	bcc.n	10005b38 <divmod_u64u64_savestate+0x4>
10005b3e:	6e34      	ldr	r4, [r6, #96]	; 0x60
10005b40:	6e75      	ldr	r5, [r6, #100]	; 0x64
10005b42:	6f77      	ldr	r7, [r6, #116]	; 0x74
10005b44:	6f36      	ldr	r6, [r6, #112]	; 0x70
10005b46:	f000 f84d 	bl	10005be4 <divmod_u64u64_unsafe>
10005b4a:	4694      	mov	ip, r2
10005b4c:	4a36      	ldr	r2, [pc, #216]	; (10005c28 <udiv0+0x1a>)
10005b4e:	6614      	str	r4, [r2, #96]	; 0x60
10005b50:	6655      	str	r5, [r2, #100]	; 0x64
10005b52:	6757      	str	r7, [r2, #116]	; 0x74
10005b54:	6716      	str	r6, [r2, #112]	; 0x70
10005b56:	4662      	mov	r2, ip
10005b58:	bdf0      	pop	{r4, r5, r6, r7, pc}
10005b5a:	46c0      	nop			; (mov r8, r8)

10005b5c <divmod_s64s64_unsafe>:
10005b5c:	2b00      	cmp	r3, #0
10005b5e:	db24      	blt.n	10005baa <l41_1+0x26>
10005b60:	d011      	beq.n	10005b86 <l41_1+0x2>
10005b62:	2900      	cmp	r1, #0
10005b64:	da3e      	bge.n	10005be4 <divmod_u64u64_unsafe>
10005b66:	b500      	push	{lr}
10005b68:	43c9      	mvns	r1, r1
10005b6a:	4240      	negs	r0, r0
10005b6c:	d100      	bne.n	10005b70 <l39_1>
10005b6e:	3101      	adds	r1, #1

10005b70 <l39_1>:
10005b70:	f000 f838 	bl	10005be4 <divmod_u64u64_unsafe>
10005b74:	43c9      	mvns	r1, r1
10005b76:	4240      	negs	r0, r0
10005b78:	d100      	bne.n	10005b7c <l40_1>
10005b7a:	3101      	adds	r1, #1

10005b7c <l40_1>:
10005b7c:	43db      	mvns	r3, r3
10005b7e:	4252      	negs	r2, r2
10005b80:	d100      	bne.n	10005b84 <l41_1>
10005b82:	3301      	adds	r3, #1

10005b84 <l41_1>:
10005b84:	bd00      	pop	{pc}
10005b86:	2a00      	cmp	r2, #0
10005b88:	d1eb      	bne.n	10005b62 <divmod_s64s64_unsafe+0x6>
10005b8a:	2800      	cmp	r0, #0
10005b8c:	d101      	bne.n	10005b92 <l41_1+0xe>
10005b8e:	2900      	cmp	r1, #0
10005b90:	d005      	beq.n	10005b9e <l41_1+0x1a>
10005b92:	2000      	movs	r0, #0
10005b94:	0fc9      	lsrs	r1, r1, #31
10005b96:	07c9      	lsls	r1, r1, #31
10005b98:	d101      	bne.n	10005b9e <l41_1+0x1a>
10005b9a:	43c0      	mvns	r0, r0
10005b9c:	0841      	lsrs	r1, r0, #1
10005b9e:	b500      	push	{lr}
10005ba0:	f002 fcb6 	bl	10008510 <____aeabi_ldiv0_veneer>
10005ba4:	2200      	movs	r2, #0
10005ba6:	2300      	movs	r3, #0
10005ba8:	bd00      	pop	{pc}
10005baa:	b500      	push	{lr}
10005bac:	2900      	cmp	r1, #0
10005bae:	db0a      	blt.n	10005bc6 <l43_1+0x2>
10005bb0:	43db      	mvns	r3, r3
10005bb2:	4252      	negs	r2, r2
10005bb4:	d100      	bne.n	10005bb8 <l42_1>
10005bb6:	3301      	adds	r3, #1

10005bb8 <l42_1>:
10005bb8:	f000 f814 	bl	10005be4 <divmod_u64u64_unsafe>
10005bbc:	43c9      	mvns	r1, r1
10005bbe:	4240      	negs	r0, r0
10005bc0:	d100      	bne.n	10005bc4 <l43_1>
10005bc2:	3101      	adds	r1, #1

10005bc4 <l43_1>:
10005bc4:	bd00      	pop	{pc}
10005bc6:	43c9      	mvns	r1, r1
10005bc8:	4240      	negs	r0, r0
10005bca:	d100      	bne.n	10005bce <l44_1>
10005bcc:	3101      	adds	r1, #1

10005bce <l44_1>:
10005bce:	43db      	mvns	r3, r3
10005bd0:	4252      	negs	r2, r2
10005bd2:	d100      	bne.n	10005bd6 <l45_1>
10005bd4:	3301      	adds	r3, #1

10005bd6 <l45_1>:
10005bd6:	f000 f805 	bl	10005be4 <divmod_u64u64_unsafe>
10005bda:	43db      	mvns	r3, r3
10005bdc:	4252      	negs	r2, r2
10005bde:	d100      	bne.n	10005be2 <l46_1>
10005be0:	3301      	adds	r3, #1

10005be2 <l46_1>:
10005be2:	bd00      	pop	{pc}

10005be4 <divmod_u64u64_unsafe>:
10005be4:	2900      	cmp	r1, #0
10005be6:	d123      	bne.n	10005c30 <y64>
10005be8:	2b00      	cmp	r3, #0
10005bea:	d118      	bne.n	10005c1e <udiv0+0x10>
10005bec:	2a00      	cmp	r2, #0
10005bee:	d00c      	beq.n	10005c0a <divmod_u64u64_unsafe+0x26>
10005bf0:	46bc      	mov	ip, r7
10005bf2:	4f0d      	ldr	r7, [pc, #52]	; (10005c28 <udiv0+0x1a>)
10005bf4:	6638      	str	r0, [r7, #96]	; 0x60
10005bf6:	667a      	str	r2, [r7, #100]	; 0x64
10005bf8:	2100      	movs	r1, #0
10005bfa:	2300      	movs	r3, #0
10005bfc:	e7ff      	b.n	10005bfe <divmod_u64u64_unsafe+0x1a>
10005bfe:	e7ff      	b.n	10005c00 <divmod_u64u64_unsafe+0x1c>
10005c00:	e7ff      	b.n	10005c02 <divmod_u64u64_unsafe+0x1e>
10005c02:	6f7a      	ldr	r2, [r7, #116]	; 0x74
10005c04:	6f38      	ldr	r0, [r7, #112]	; 0x70
10005c06:	4667      	mov	r7, ip
10005c08:	4770      	bx	lr
10005c0a:	2800      	cmp	r0, #0
10005c0c:	d001      	beq.n	10005c12 <udiv0+0x4>

10005c0e <udiv0>:
10005c0e:	4807      	ldr	r0, [pc, #28]	; (10005c2c <udiv0+0x1e>)
10005c10:	0001      	movs	r1, r0
10005c12:	b500      	push	{lr}
10005c14:	f002 fc7c 	bl	10008510 <____aeabi_ldiv0_veneer>
10005c18:	2200      	movs	r2, #0
10005c1a:	2300      	movs	r3, #0
10005c1c:	bd00      	pop	{pc}
10005c1e:	0002      	movs	r2, r0
10005c20:	000b      	movs	r3, r1
10005c22:	2000      	movs	r0, #0
10005c24:	2100      	movs	r1, #0
10005c26:	4770      	bx	lr
10005c28:	d0000000 	.word	0xd0000000
10005c2c:	ffffffff 	.word	0xffffffff

10005c30 <y64>:
10005c30:	2b00      	cmp	r3, #0
10005c32:	d000      	beq.n	10005c36 <y64+0x6>
10005c34:	e0bd      	b.n	10005db2 <y64_x48>
10005c36:	0c13      	lsrs	r3, r2, #16
10005c38:	d126      	bne.n	10005c88 <y64_x32>
10005c3a:	2a00      	cmp	r2, #0
10005c3c:	d0e7      	beq.n	10005c0e <udiv0>
10005c3e:	b480      	push	{r7}
10005c40:	4f10      	ldr	r7, [pc, #64]	; (10005c84 <y64+0x54>)
10005c42:	6639      	str	r1, [r7, #96]	; 0x60
10005c44:	667a      	str	r2, [r7, #100]	; 0x64
10005c46:	e7ff      	b.n	10005c48 <y64+0x18>
10005c48:	e7ff      	b.n	10005c4a <y64+0x1a>
10005c4a:	b430      	push	{r4, r5}
10005c4c:	0c04      	lsrs	r4, r0, #16
10005c4e:	6f7b      	ldr	r3, [r7, #116]	; 0x74
10005c50:	6f39      	ldr	r1, [r7, #112]	; 0x70
10005c52:	041b      	lsls	r3, r3, #16
10005c54:	4323      	orrs	r3, r4
10005c56:	663b      	str	r3, [r7, #96]	; 0x60
10005c58:	e7ff      	b.n	10005c5a <y64+0x2a>
10005c5a:	e7ff      	b.n	10005c5c <y64+0x2c>
10005c5c:	e7ff      	b.n	10005c5e <y64+0x2e>
10005c5e:	46c0      	nop			; (mov r8, r8)
10005c60:	b284      	uxth	r4, r0
10005c62:	6f7b      	ldr	r3, [r7, #116]	; 0x74
10005c64:	6f3d      	ldr	r5, [r7, #112]	; 0x70
10005c66:	041b      	lsls	r3, r3, #16
10005c68:	4323      	orrs	r3, r4
10005c6a:	663b      	str	r3, [r7, #96]	; 0x60
10005c6c:	e7ff      	b.n	10005c6e <y64+0x3e>
10005c6e:	e7ff      	b.n	10005c70 <y64+0x40>
10005c70:	46c0      	nop			; (mov r8, r8)
10005c72:	2300      	movs	r3, #0
10005c74:	042c      	lsls	r4, r5, #16
10005c76:	0c2d      	lsrs	r5, r5, #16
10005c78:	6f7a      	ldr	r2, [r7, #116]	; 0x74
10005c7a:	6f38      	ldr	r0, [r7, #112]	; 0x70
10005c7c:	1900      	adds	r0, r0, r4
10005c7e:	4169      	adcs	r1, r5
10005c80:	bcb0      	pop	{r4, r5, r7}
10005c82:	4770      	bx	lr
10005c84:	d0000000 	.word	0xd0000000

10005c88 <y64_x32>:
10005c88:	b5f0      	push	{r4, r5, r6, r7, lr}
10005c8a:	4694      	mov	ip, r2
10005c8c:	2500      	movs	r5, #0
10005c8e:	0e14      	lsrs	r4, r2, #24
10005c90:	d101      	bne.n	10005c96 <y64_x32+0xe>
10005c92:	0212      	lsls	r2, r2, #8
10005c94:	3508      	adds	r5, #8
10005c96:	0f14      	lsrs	r4, r2, #28
10005c98:	d101      	bne.n	10005c9e <y64_x32+0x16>
10005c9a:	0112      	lsls	r2, r2, #4
10005c9c:	3504      	adds	r5, #4
10005c9e:	0f94      	lsrs	r4, r2, #30
10005ca0:	d101      	bne.n	10005ca6 <y64_x32+0x1e>
10005ca2:	0092      	lsls	r2, r2, #2
10005ca4:	3502      	adds	r5, #2
10005ca6:	0fd4      	lsrs	r4, r2, #31
10005ca8:	d101      	bne.n	10005cae <y64_x32+0x26>
10005caa:	0052      	lsls	r2, r2, #1
10005cac:	3501      	adds	r5, #1
10005cae:	0bd4      	lsrs	r4, r2, #15
10005cb0:	3401      	adds	r4, #1
10005cb2:	4f25      	ldr	r7, [pc, #148]	; (10005d48 <y64_x32+0xc0>)
10005cb4:	667c      	str	r4, [r7, #100]	; 0x64
10005cb6:	4c25      	ldr	r4, [pc, #148]	; (10005d4c <y64_x32+0xc4>)
10005cb8:	663c      	str	r4, [r7, #96]	; 0x60
10005cba:	0c0e      	lsrs	r6, r1, #16
10005cbc:	b293      	uxth	r3, r2
10005cbe:	e7ff      	b.n	10005cc0 <y64_x32+0x38>
10005cc0:	e7ff      	b.n	10005cc2 <y64_x32+0x3a>
10005cc2:	e7ff      	b.n	10005cc4 <y64_x32+0x3c>
10005cc4:	6f3c      	ldr	r4, [r7, #112]	; 0x70
10005cc6:	4366      	muls	r6, r4
10005cc8:	0c36      	lsrs	r6, r6, #16
10005cca:	0377      	lsls	r7, r6, #13
10005ccc:	46be      	mov	lr, r7
10005cce:	4373      	muls	r3, r6
10005cd0:	0bdf      	lsrs	r7, r3, #15
10005cd2:	045b      	lsls	r3, r3, #17
10005cd4:	1ac0      	subs	r0, r0, r3
10005cd6:	41b9      	sbcs	r1, r7
10005cd8:	0c13      	lsrs	r3, r2, #16
10005cda:	4373      	muls	r3, r6
10005cdc:	18db      	adds	r3, r3, r3
10005cde:	1ac9      	subs	r1, r1, r3
10005ce0:	08ce      	lsrs	r6, r1, #3
10005ce2:	4366      	muls	r6, r4
10005ce4:	0c36      	lsrs	r6, r6, #16
10005ce6:	44b6      	add	lr, r6
10005ce8:	b293      	uxth	r3, r2
10005cea:	4373      	muls	r3, r6
10005cec:	0f1f      	lsrs	r7, r3, #28
10005cee:	011b      	lsls	r3, r3, #4
10005cf0:	1ac0      	subs	r0, r0, r3
10005cf2:	41b9      	sbcs	r1, r7
10005cf4:	0c13      	lsrs	r3, r2, #16
10005cf6:	4373      	muls	r3, r6
10005cf8:	0b1f      	lsrs	r7, r3, #12
10005cfa:	051b      	lsls	r3, r3, #20
10005cfc:	1ac0      	subs	r0, r0, r3
10005cfe:	41b9      	sbcs	r1, r7
10005d00:	0d86      	lsrs	r6, r0, #22
10005d02:	028f      	lsls	r7, r1, #10
10005d04:	433e      	orrs	r6, r7
10005d06:	4366      	muls	r6, r4
10005d08:	0c36      	lsrs	r6, r6, #16
10005d0a:	2d09      	cmp	r5, #9
10005d0c:	db24      	blt.n	10005d58 <last0>
10005d0e:	0a52      	lsrs	r2, r2, #9
10005d10:	4372      	muls	r2, r6
10005d12:	1a80      	subs	r0, r0, r2
10005d14:	0377      	lsls	r7, r6, #13
10005d16:	0a46      	lsrs	r6, r0, #9
10005d18:	4366      	muls	r6, r4
10005d1a:	0c36      	lsrs	r6, r6, #16
10005d1c:	2316      	movs	r3, #22
10005d1e:	1b5b      	subs	r3, r3, r5
10005d20:	40de      	lsrs	r6, r3
10005d22:	40df      	lsrs	r7, r3
10005d24:	19bf      	adds	r7, r7, r6
10005d26:	4664      	mov	r4, ip
10005d28:	4366      	muls	r6, r4
10005d2a:	1b82      	subs	r2, r0, r6
10005d2c:	4670      	mov	r0, lr
10005d2e:	3504      	adds	r5, #4
10005d30:	3306      	adds	r3, #6
10005d32:	0001      	movs	r1, r0
10005d34:	40d9      	lsrs	r1, r3
10005d36:	40a8      	lsls	r0, r5
10005d38:	19c0      	adds	r0, r0, r7
10005d3a:	d300      	bcc.n	10005d3e <y64_x32+0xb6>
10005d3c:	3101      	adds	r1, #1
10005d3e:	42a2      	cmp	r2, r4
10005d40:	d206      	bcs.n	10005d50 <y64_x32+0xc8>
10005d42:	2300      	movs	r3, #0
10005d44:	bdf0      	pop	{r4, r5, r6, r7, pc}
10005d46:	0000      	.short	0x0000
10005d48:	d0000000 	.word	0xd0000000
10005d4c:	ffffffff 	.word	0xffffffff
10005d50:	1b12      	subs	r2, r2, r4
10005d52:	3001      	adds	r0, #1
10005d54:	d3f3      	bcc.n	10005d3e <y64_x32+0xb6>
10005d56:	e7f1      	b.n	10005d3c <y64_x32+0xb4>

10005d58 <last0>:
10005d58:	2709      	movs	r7, #9
10005d5a:	1b7f      	subs	r7, r7, r5
10005d5c:	40fe      	lsrs	r6, r7
10005d5e:	4664      	mov	r4, ip
10005d60:	b2a2      	uxth	r2, r4
10005d62:	4372      	muls	r2, r6
10005d64:	1a80      	subs	r0, r0, r2
10005d66:	d200      	bcs.n	10005d6a <last0+0x12>
10005d68:	3901      	subs	r1, #1
10005d6a:	0c22      	lsrs	r2, r4, #16
10005d6c:	4372      	muls	r2, r6
10005d6e:	0c13      	lsrs	r3, r2, #16
10005d70:	0412      	lsls	r2, r2, #16
10005d72:	1a82      	subs	r2, r0, r2
10005d74:	4199      	sbcs	r1, r3
10005d76:	000b      	movs	r3, r1
10005d78:	4670      	mov	r0, lr
10005d7a:	3504      	adds	r5, #4
10005d7c:	3713      	adds	r7, #19
10005d7e:	0001      	movs	r1, r0
10005d80:	40f9      	lsrs	r1, r7
10005d82:	40a8      	lsls	r0, r5
10005d84:	1980      	adds	r0, r0, r6
10005d86:	d300      	bcc.n	10005d8a <last0+0x32>
10005d88:	3101      	adds	r1, #1
10005d8a:	2b00      	cmp	r3, #0
10005d8c:	d102      	bne.n	10005d94 <last0+0x3c>
10005d8e:	42a2      	cmp	r2, r4
10005d90:	d20a      	bcs.n	10005da8 <last0+0x50>
10005d92:	bdf0      	pop	{r4, r5, r6, r7, pc}
10005d94:	3001      	adds	r0, #1
10005d96:	d300      	bcc.n	10005d9a <last0+0x42>
10005d98:	3101      	adds	r1, #1
10005d9a:	1b12      	subs	r2, r2, r4
10005d9c:	d2fa      	bcs.n	10005d94 <last0+0x3c>
10005d9e:	3b01      	subs	r3, #1
10005da0:	d1f8      	bne.n	10005d94 <last0+0x3c>
10005da2:	42a2      	cmp	r2, r4
10005da4:	d200      	bcs.n	10005da8 <last0+0x50>
10005da6:	bdf0      	pop	{r4, r5, r6, r7, pc}
10005da8:	3001      	adds	r0, #1
10005daa:	d300      	bcc.n	10005dae <last0+0x56>
10005dac:	3101      	adds	r1, #1
10005dae:	1b12      	subs	r2, r2, r4
10005db0:	e7f7      	b.n	10005da2 <last0+0x4a>

10005db2 <y64_x48>:
10005db2:	b5f0      	push	{r4, r5, r6, r7, lr}
10005db4:	0c1c      	lsrs	r4, r3, #16
10005db6:	d000      	beq.n	10005dba <y64_x48+0x8>
10005db8:	e080      	b.n	10005ebc <y64_x64>
10005dba:	b40c      	push	{r2, r3}
10005dbc:	2500      	movs	r5, #0
10005dbe:	0a1c      	lsrs	r4, r3, #8
10005dc0:	d104      	bne.n	10005dcc <y64_x48+0x1a>
10005dc2:	021b      	lsls	r3, r3, #8
10005dc4:	0e16      	lsrs	r6, r2, #24
10005dc6:	4333      	orrs	r3, r6
10005dc8:	0212      	lsls	r2, r2, #8
10005dca:	3508      	adds	r5, #8
10005dcc:	0b1c      	lsrs	r4, r3, #12
10005dce:	d104      	bne.n	10005dda <y64_x48+0x28>
10005dd0:	011b      	lsls	r3, r3, #4
10005dd2:	0f16      	lsrs	r6, r2, #28
10005dd4:	4333      	orrs	r3, r6
10005dd6:	0112      	lsls	r2, r2, #4
10005dd8:	3504      	adds	r5, #4
10005dda:	0b9c      	lsrs	r4, r3, #14
10005ddc:	d104      	bne.n	10005de8 <y64_x48+0x36>
10005dde:	009b      	lsls	r3, r3, #2
10005de0:	0f96      	lsrs	r6, r2, #30
10005de2:	4333      	orrs	r3, r6
10005de4:	0092      	lsls	r2, r2, #2
10005de6:	3502      	adds	r5, #2
10005de8:	0bdc      	lsrs	r4, r3, #15
10005dea:	d102      	bne.n	10005df2 <y64_x48+0x40>
10005dec:	1892      	adds	r2, r2, r2
10005dee:	415b      	adcs	r3, r3
10005df0:	3501      	adds	r5, #1
10005df2:	001c      	movs	r4, r3
10005df4:	1897      	adds	r7, r2, r2
10005df6:	4164      	adcs	r4, r4
10005df8:	3401      	adds	r4, #1
10005dfa:	4f46      	ldr	r7, [pc, #280]	; (10005f14 <y64_x64+0x58>)
10005dfc:	667c      	str	r4, [r7, #100]	; 0x64
10005dfe:	4c46      	ldr	r4, [pc, #280]	; (10005f18 <y64_x64+0x5c>)
10005e00:	663c      	str	r4, [r7, #96]	; 0x60
10005e02:	0c0e      	lsrs	r6, r1, #16
10005e04:	e7ff      	b.n	10005e06 <y64_x48+0x54>
10005e06:	e7ff      	b.n	10005e08 <y64_x48+0x56>
10005e08:	e7ff      	b.n	10005e0a <y64_x48+0x58>
10005e0a:	46c0      	nop			; (mov r8, r8)
10005e0c:	6f3c      	ldr	r4, [r7, #112]	; 0x70
10005e0e:	4366      	muls	r6, r4
10005e10:	0c36      	lsrs	r6, r6, #16
10005e12:	0377      	lsls	r7, r6, #13
10005e14:	46be      	mov	lr, r7
10005e16:	b297      	uxth	r7, r2
10005e18:	4377      	muls	r7, r6
10005e1a:	1bc0      	subs	r0, r0, r7
10005e1c:	d200      	bcs.n	10005e20 <y64_x48+0x6e>
10005e1e:	3901      	subs	r1, #1
10005e20:	1bc0      	subs	r0, r0, r7
10005e22:	d200      	bcs.n	10005e26 <y64_x48+0x74>
10005e24:	3901      	subs	r1, #1
10005e26:	b29f      	uxth	r7, r3
10005e28:	4377      	muls	r7, r6
10005e2a:	1bc9      	subs	r1, r1, r7
10005e2c:	1bc9      	subs	r1, r1, r7
10005e2e:	0c17      	lsrs	r7, r2, #16
10005e30:	4377      	muls	r7, r6
10005e32:	047e      	lsls	r6, r7, #17
10005e34:	0bff      	lsrs	r7, r7, #15
10005e36:	1b80      	subs	r0, r0, r6
10005e38:	41b9      	sbcs	r1, r7
10005e3a:	08ce      	lsrs	r6, r1, #3
10005e3c:	4366      	muls	r6, r4
10005e3e:	0c36      	lsrs	r6, r6, #16
10005e40:	2d0c      	cmp	r5, #12
10005e42:	db33      	blt.n	10005eac <last1>
10005e44:	44b6      	add	lr, r6
10005e46:	0b12      	lsrs	r2, r2, #12
10005e48:	051f      	lsls	r7, r3, #20
10005e4a:	433a      	orrs	r2, r7
10005e4c:	0b1b      	lsrs	r3, r3, #12
10005e4e:	b297      	uxth	r7, r2
10005e50:	4377      	muls	r7, r6
10005e52:	1bc0      	subs	r0, r0, r7
10005e54:	d200      	bcs.n	10005e58 <y64_x48+0xa6>
10005e56:	3901      	subs	r1, #1
10005e58:	b29f      	uxth	r7, r3
10005e5a:	4377      	muls	r7, r6
10005e5c:	1bc9      	subs	r1, r1, r7
10005e5e:	0c17      	lsrs	r7, r2, #16
10005e60:	4377      	muls	r7, r6
10005e62:	043e      	lsls	r6, r7, #16
10005e64:	0c3f      	lsrs	r7, r7, #16
10005e66:	1b80      	subs	r0, r0, r6
10005e68:	41b9      	sbcs	r1, r7
10005e6a:	0d86      	lsrs	r6, r0, #22
10005e6c:	028f      	lsls	r7, r1, #10
10005e6e:	433e      	orrs	r6, r7
10005e70:	4366      	muls	r6, r4
10005e72:	2729      	movs	r7, #41	; 0x29
10005e74:	1b7f      	subs	r7, r7, r5
10005e76:	40fe      	lsrs	r6, r7
10005e78:	3d0c      	subs	r5, #12
10005e7a:	4677      	mov	r7, lr
10005e7c:	40af      	lsls	r7, r5
10005e7e:	19bf      	adds	r7, r7, r6
10005e80:	bc30      	pop	{r4, r5}
10005e82:	b2a2      	uxth	r2, r4
10005e84:	b2ab      	uxth	r3, r5
10005e86:	4372      	muls	r2, r6
10005e88:	4373      	muls	r3, r6
10005e8a:	1a80      	subs	r0, r0, r2
10005e8c:	4199      	sbcs	r1, r3
10005e8e:	0c22      	lsrs	r2, r4, #16
10005e90:	4372      	muls	r2, r6
10005e92:	0c13      	lsrs	r3, r2, #16
10005e94:	0412      	lsls	r2, r2, #16
10005e96:	1a80      	subs	r0, r0, r2
10005e98:	4199      	sbcs	r1, r3
10005e9a:	0002      	movs	r2, r0
10005e9c:	000b      	movs	r3, r1
10005e9e:	3701      	adds	r7, #1
10005ea0:	1b00      	subs	r0, r0, r4
10005ea2:	41a9      	sbcs	r1, r5
10005ea4:	d2f9      	bcs.n	10005e9a <y64_x48+0xe8>
10005ea6:	1e78      	subs	r0, r7, #1
10005ea8:	2100      	movs	r1, #0
10005eaa:	bdf0      	pop	{r4, r5, r6, r7, pc}

10005eac <last1>:
10005eac:	270c      	movs	r7, #12
10005eae:	1b7f      	subs	r7, r7, r5
10005eb0:	40fe      	lsrs	r6, r7
10005eb2:	4677      	mov	r7, lr
10005eb4:	0b7f      	lsrs	r7, r7, #13
10005eb6:	40af      	lsls	r7, r5
10005eb8:	19ff      	adds	r7, r7, r7
10005eba:	e7e0      	b.n	10005e7e <y64_x48+0xcc>

10005ebc <y64_x64>:
10005ebc:	2400      	movs	r4, #0
10005ebe:	1c5d      	adds	r5, r3, #1
10005ec0:	d007      	beq.n	10005ed2 <y64_x64+0x16>
10005ec2:	4f14      	ldr	r7, [pc, #80]	; (10005f14 <y64_x64+0x58>)
10005ec4:	667d      	str	r5, [r7, #100]	; 0x64
10005ec6:	6639      	str	r1, [r7, #96]	; 0x60
10005ec8:	e7ff      	b.n	10005eca <y64_x64+0xe>
10005eca:	e7ff      	b.n	10005ecc <y64_x64+0x10>
10005ecc:	e7ff      	b.n	10005ece <y64_x64+0x12>
10005ece:	e7ff      	b.n	10005ed0 <y64_x64+0x14>
10005ed0:	6f3c      	ldr	r4, [r7, #112]	; 0x70
10005ed2:	b295      	uxth	r5, r2
10005ed4:	b29e      	uxth	r6, r3
10005ed6:	4365      	muls	r5, r4
10005ed8:	4366      	muls	r6, r4
10005eda:	1b40      	subs	r0, r0, r5
10005edc:	41b1      	sbcs	r1, r6
10005ede:	0c15      	lsrs	r5, r2, #16
10005ee0:	0c1e      	lsrs	r6, r3, #16
10005ee2:	4365      	muls	r5, r4
10005ee4:	4366      	muls	r6, r4
10005ee6:	0436      	lsls	r6, r6, #16
10005ee8:	0c2f      	lsrs	r7, r5, #16
10005eea:	433e      	orrs	r6, r7
10005eec:	042d      	lsls	r5, r5, #16
10005eee:	1b40      	subs	r0, r0, r5
10005ef0:	41b1      	sbcs	r1, r6
10005ef2:	4299      	cmp	r1, r3
10005ef4:	d204      	bcs.n	10005f00 <y64_x64+0x44>
10005ef6:	0002      	movs	r2, r0
10005ef8:	000b      	movs	r3, r1
10005efa:	0020      	movs	r0, r4
10005efc:	2100      	movs	r1, #0
10005efe:	bdf0      	pop	{r4, r5, r6, r7, pc}
10005f00:	d101      	bne.n	10005f06 <y64_x64+0x4a>
10005f02:	4290      	cmp	r0, r2
10005f04:	d3f7      	bcc.n	10005ef6 <y64_x64+0x3a>
10005f06:	1a80      	subs	r0, r0, r2
10005f08:	4199      	sbcs	r1, r3
10005f0a:	3401      	adds	r4, #1
10005f0c:	4299      	cmp	r1, r3
10005f0e:	d3f2      	bcc.n	10005ef6 <y64_x64+0x3a>
10005f10:	e7f6      	b.n	10005f00 <y64_x64+0x44>
10005f12:	0000      	.short	0x0000
10005f14:	d0000000 	.word	0xd0000000
10005f18:	ffffffff 	.word	0xffffffff

10005f1c <__wrap___aeabi_drsub>:
10005f1c:	4048      	eors	r0, r1
10005f1e:	4041      	eors	r1, r0
10005f20:	4048      	eors	r0, r1

10005f22 <__wrap___aeabi_dsub>:
10005f22:	b418      	push	{r3, r4}
10005f24:	4b11      	ldr	r3, [pc, #68]	; (10005f6c <__wrap___aeabi_dmul+0x14>)
10005f26:	685b      	ldr	r3, [r3, #4]
10005f28:	46fc      	mov	ip, pc
10005f2a:	9301      	str	r3, [sp, #4]
10005f2c:	bd08      	pop	{r3, pc}
10005f2e:	df04      	.short	0xdf04
10005f30:	100061a7 	.word	0x100061a7

10005f34 <__wrap___aeabi_dadd>:
10005f34:	b418      	push	{r3, r4}
10005f36:	4b0d      	ldr	r3, [pc, #52]	; (10005f6c <__wrap___aeabi_dmul+0x14>)
10005f38:	681b      	ldr	r3, [r3, #0]
10005f3a:	46fc      	mov	ip, pc
10005f3c:	9301      	str	r3, [sp, #4]
10005f3e:	bd08      	pop	{r3, pc}
10005f40:	61b1df00 	.word	0x61b1df00
10005f44:	1000      	.short	0x1000

10005f46 <__wrap___aeabi_ddiv>:
10005f46:	b418      	push	{r3, r4}
10005f48:	4b08      	ldr	r3, [pc, #32]	; (10005f6c <__wrap___aeabi_dmul+0x14>)
10005f4a:	68db      	ldr	r3, [r3, #12]
10005f4c:	46fc      	mov	ip, pc
10005f4e:	9301      	str	r3, [sp, #4]
10005f50:	bd08      	pop	{r3, pc}
10005f52:	df0c      	.short	0xdf0c
10005f54:	10006469 	.word	0x10006469

10005f58 <__wrap___aeabi_dmul>:
10005f58:	b418      	push	{r3, r4}
10005f5a:	4b04      	ldr	r3, [pc, #16]	; (10005f6c <__wrap___aeabi_dmul+0x14>)
10005f5c:	689b      	ldr	r3, [r3, #8]
10005f5e:	46fc      	mov	ip, pc
10005f60:	9301      	str	r3, [sp, #4]
10005f62:	bd08      	pop	{r3, pc}
10005f64:	630ddf08 	.word	0x630ddf08
10005f68:	00001000 	.word	0x00001000
10005f6c:	20001e58 	.word	0x20001e58

10005f70 <__wrap___aeabi_cdrcmple>:
10005f70:	b5ff      	push	{r0, r1, r2, r3, r4, r5, r6, r7, lr}
10005f72:	4050      	eors	r0, r2
10005f74:	4042      	eors	r2, r0
10005f76:	4050      	eors	r0, r2
10005f78:	4059      	eors	r1, r3
10005f7a:	404b      	eors	r3, r1
10005f7c:	4059      	eors	r1, r3
10005f7e:	e000      	b.n	10005f82 <__aeabi_dfcmple_guts>

10005f80 <__wrap___aeabi_cdcmpeq>:
10005f80:	b5ff      	push	{r0, r1, r2, r3, r4, r5, r6, r7, lr}

10005f82 <__aeabi_dfcmple_guts>:
10005f82:	4f15      	ldr	r7, [pc, #84]	; (10005fd8 <__aeabi_dfcmple_guts+0x56>)
10005f84:	004c      	lsls	r4, r1, #1
10005f86:	0d64      	lsrs	r4, r4, #21
10005f88:	d003      	beq.n	10005f92 <__aeabi_dfcmple_guts+0x10>
10005f8a:	42bc      	cmp	r4, r7
10005f8c:	d104      	bne.n	10005f98 <__aeabi_dfcmple_guts+0x16>
10005f8e:	030c      	lsls	r4, r1, #12
10005f90:	d814      	bhi.n	10005fbc <__aeabi_dfcmple_guts+0x3a>
10005f92:	2000      	movs	r0, #0
10005f94:	0d09      	lsrs	r1, r1, #20
10005f96:	0509      	lsls	r1, r1, #20
10005f98:	005c      	lsls	r4, r3, #1
10005f9a:	0d64      	lsrs	r4, r4, #21
10005f9c:	d003      	beq.n	10005fa6 <__aeabi_dfcmple_guts+0x24>
10005f9e:	42bc      	cmp	r4, r7
10005fa0:	d104      	bne.n	10005fac <__aeabi_dfcmple_guts+0x2a>
10005fa2:	031c      	lsls	r4, r3, #12
10005fa4:	d80a      	bhi.n	10005fbc <__aeabi_dfcmple_guts+0x3a>
10005fa6:	2200      	movs	r2, #0
10005fa8:	0d1b      	lsrs	r3, r3, #20
10005faa:	051b      	lsls	r3, r3, #20
10005fac:	2601      	movs	r6, #1
10005fae:	404b      	eors	r3, r1
10005fb0:	d409      	bmi.n	10005fc6 <__aeabi_dfcmple_guts+0x44>
10005fb2:	404b      	eors	r3, r1
10005fb4:	d503      	bpl.n	10005fbe <__aeabi_dfcmple_guts+0x3c>
10005fb6:	428b      	cmp	r3, r1
10005fb8:	d100      	bne.n	10005fbc <__aeabi_dfcmple_guts+0x3a>
10005fba:	4282      	cmp	r2, r0
10005fbc:	bdff      	pop	{r0, r1, r2, r3, r4, r5, r6, r7, pc}
10005fbe:	4299      	cmp	r1, r3
10005fc0:	d1fc      	bne.n	10005fbc <__aeabi_dfcmple_guts+0x3a>
10005fc2:	4290      	cmp	r0, r2
10005fc4:	bdff      	pop	{r0, r1, r2, r3, r4, r5, r6, r7, pc}
10005fc6:	430b      	orrs	r3, r1
10005fc8:	18db      	adds	r3, r3, r3
10005fca:	4303      	orrs	r3, r0
10005fcc:	4313      	orrs	r3, r2
10005fce:	d0f5      	beq.n	10005fbc <__aeabi_dfcmple_guts+0x3a>
10005fd0:	43c9      	mvns	r1, r1
10005fd2:	1849      	adds	r1, r1, r1
10005fd4:	bdff      	pop	{r0, r1, r2, r3, r4, r5, r6, r7, pc}
10005fd6:	0000      	.short	0x0000
10005fd8:	000007ff 	.word	0x000007ff

10005fdc <__wrap___aeabi_dcmplt>:
10005fdc:	b500      	push	{lr}
10005fde:	f7ff ffcf 	bl	10005f80 <__wrap___aeabi_cdcmpeq>
10005fe2:	4180      	sbcs	r0, r0
10005fe4:	bd00      	pop	{pc}
10005fe6:	46c0      	nop			; (mov r8, r8)

10005fe8 <__wrap___aeabi_dcmple>:
10005fe8:	b500      	push	{lr}
10005fea:	f7ff ffc9 	bl	10005f80 <__wrap___aeabi_cdcmpeq>
10005fee:	d901      	bls.n	10005ff4 <__wrap___aeabi_dcmple+0xc>
10005ff0:	2000      	movs	r0, #0
10005ff2:	bd00      	pop	{pc}
10005ff4:	2001      	movs	r0, #1
10005ff6:	bd00      	pop	{pc}

10005ff8 <__wrap___aeabi_dcmpge>:
10005ff8:	b500      	push	{lr}
10005ffa:	f7ff ffb9 	bl	10005f70 <__wrap___aeabi_cdrcmple>
10005ffe:	d901      	bls.n	10006004 <__wrap___aeabi_dcmpge+0xc>
10006000:	2000      	movs	r0, #0
10006002:	bd00      	pop	{pc}
10006004:	2001      	movs	r0, #1
10006006:	bd00      	pop	{pc}

10006008 <__wrap___aeabi_dcmpgt>:
10006008:	b500      	push	{lr}
1000600a:	f7ff ffb1 	bl	10005f70 <__wrap___aeabi_cdrcmple>
1000600e:	4180      	sbcs	r0, r0
10006010:	bd00      	pop	{pc}

10006012 <__wrap___aeabi_dcmpun>:
10006012:	2001      	movs	r0, #1
10006014:	0540      	lsls	r0, r0, #21
10006016:	004a      	lsls	r2, r1, #1
10006018:	1812      	adds	r2, r2, r0
1000601a:	d804      	bhi.n	10006026 <__wrap___aeabi_dcmpun+0x14>
1000601c:	005a      	lsls	r2, r3, #1
1000601e:	1812      	adds	r2, r2, r0
10006020:	d801      	bhi.n	10006026 <__wrap___aeabi_dcmpun+0x14>
10006022:	2000      	movs	r0, #0
10006024:	4770      	bx	lr
10006026:	2001      	movs	r0, #1
10006028:	4770      	bx	lr
1000602a:	2000      	movs	r0, #0
1000602c:	4770      	bx	lr
	...

10006030 <__wrap___aeabi_ui2d>:
10006030:	2100      	movs	r1, #0
10006032:	2800      	cmp	r0, #0
10006034:	d105      	bne.n	10006042 <__wrap___aeabi_i2d+0xa>
10006036:	4770      	bx	lr

10006038 <__wrap___aeabi_i2d>:
10006038:	17c1      	asrs	r1, r0, #31
1000603a:	4048      	eors	r0, r1
1000603c:	1a40      	subs	r0, r0, r1
1000603e:	d0fa      	beq.n	10006036 <__wrap___aeabi_ui2d+0x6>
10006040:	07c9      	lsls	r1, r1, #31
10006042:	b513      	push	{r0, r1, r4, lr}
10006044:	4b06      	ldr	r3, [pc, #24]	; (10006060 <__wrap___aeabi_i2d+0x28>)
10006046:	681b      	ldr	r3, [r3, #0]
10006048:	4798      	blx	r3
1000604a:	bc0c      	pop	{r2, r3}
1000604c:	1c44      	adds	r4, r0, #1
1000604e:	40a2      	lsls	r2, r4
10006050:	0510      	lsls	r0, r2, #20
10006052:	0b12      	lsrs	r2, r2, #12
10006054:	4903      	ldr	r1, [pc, #12]	; (10006064 <__wrap___aeabi_i2d+0x2c>)
10006056:	1b09      	subs	r1, r1, r4
10006058:	0509      	lsls	r1, r1, #20
1000605a:	4319      	orrs	r1, r3
1000605c:	4311      	orrs	r1, r2
1000605e:	bd10      	pop	{r4, pc}
10006060:	20002058 	.word	0x20002058
10006064:	0000041f 	.word	0x0000041f

10006068 <__wrap___aeabi_d2iz>:
10006068:	b510      	push	{r4, lr}
1000606a:	004c      	lsls	r4, r1, #1
1000606c:	0d62      	lsrs	r2, r4, #21
1000606e:	2380      	movs	r3, #128	; 0x80
10006070:	18d2      	adds	r2, r2, r3
10006072:	00db      	lsls	r3, r3, #3
10006074:	1ad2      	subs	r2, r2, r3
10006076:	055b      	lsls	r3, r3, #21
10006078:	2a7e      	cmp	r2, #126	; 0x7e
1000607a:	dd10      	ble.n	1000609e <__wrap___aeabi_d2iz+0x36>
1000607c:	3a9e      	subs	r2, #158	; 0x9e
1000607e:	da13      	bge.n	100060a8 <__wrap___aeabi_d2iz+0x40>
10006080:	17cc      	asrs	r4, r1, #31
10006082:	0309      	lsls	r1, r1, #12
10006084:	0849      	lsrs	r1, r1, #1
10006086:	4319      	orrs	r1, r3
10006088:	4252      	negs	r2, r2
1000608a:	40d1      	lsrs	r1, r2
1000608c:	0064      	lsls	r4, r4, #1
1000608e:	3401      	adds	r4, #1
10006090:	3215      	adds	r2, #21
10006092:	2a20      	cmp	r2, #32
10006094:	da05      	bge.n	100060a2 <__wrap___aeabi_d2iz+0x3a>
10006096:	40d0      	lsrs	r0, r2
10006098:	4308      	orrs	r0, r1
1000609a:	4360      	muls	r0, r4
1000609c:	bd10      	pop	{r4, pc}
1000609e:	2000      	movs	r0, #0
100060a0:	bd10      	pop	{r4, pc}
100060a2:	4608      	mov	r0, r1
100060a4:	4360      	muls	r0, r4
100060a6:	bd10      	pop	{r4, pc}
100060a8:	0fc8      	lsrs	r0, r1, #31
100060aa:	18c0      	adds	r0, r0, r3
100060ac:	3801      	subs	r0, #1
100060ae:	bd10      	pop	{r4, pc}

100060b0 <__wrap___aeabi_d2uiz>:
100060b0:	b418      	push	{r3, r4}
100060b2:	4b04      	ldr	r3, [pc, #16]	; (100060c4 <__wrap___aeabi_d2uiz+0x14>)
100060b4:	6a5b      	ldr	r3, [r3, #36]	; 0x24
100060b6:	46fc      	mov	ip, pc
100060b8:	9301      	str	r3, [sp, #4]
100060ba:	bd08      	pop	{r3, pc}
100060bc:	6695df24 	.word	0x6695df24
100060c0:	00001000 	.word	0x00001000
100060c4:	20001e58 	.word	0x20001e58

100060c8 <__aeabi_double_init>:
100060c8:	2313      	movs	r3, #19
100060ca:	b570      	push	{r4, r5, r6, lr}
100060cc:	781d      	ldrb	r5, [r3, #0]
100060ce:	2d01      	cmp	r5, #1
100060d0:	d010      	beq.n	100060f4 <__aeabi_double_init+0x2c>
100060d2:	dd0b      	ble.n	100060ec <__aeabi_double_init+0x24>
100060d4:	4824      	ldr	r0, [pc, #144]	; (10006168 <__aeabi_double_init+0xa0>)
100060d6:	f7ff fc8d 	bl	100059f4 <rom_data_lookup>
100060da:	4c24      	ldr	r4, [pc, #144]	; (1000616c <__aeabi_double_init+0xa4>)
100060dc:	0001      	movs	r1, r0
100060de:	2280      	movs	r2, #128	; 0x80
100060e0:	0020      	movs	r0, r4
100060e2:	f000 fbab 	bl	1000683c <__wrap___aeabi_memcpy>
100060e6:	2d02      	cmp	r5, #2
100060e8:	d001      	beq.n	100060ee <__aeabi_double_init+0x26>
100060ea:	bd70      	pop	{r4, r5, r6, pc}
100060ec:	4c1f      	ldr	r4, [pc, #124]	; (1000616c <__aeabi_double_init+0xa4>)
100060ee:	4a20      	ldr	r2, [pc, #128]	; (10006170 <__aeabi_double_init+0xa8>)
100060f0:	64a2      	str	r2, [r4, #72]	; 0x48
100060f2:	e7fa      	b.n	100060ea <__aeabi_double_init+0x22>
100060f4:	002e      	movs	r6, r5
100060f6:	4c1d      	ldr	r4, [pc, #116]	; (1000616c <__aeabi_double_init+0xa4>)
100060f8:	4a1d      	ldr	r2, [pc, #116]	; (10006170 <__aeabi_double_init+0xa8>)
100060fa:	08a3      	lsrs	r3, r4, #2
100060fc:	425b      	negs	r3, r3
100060fe:	401e      	ands	r6, r3
10006100:	421d      	tst	r5, r3
10006102:	d02f      	beq.n	10006164 <__aeabi_double_init+0x9c>
10006104:	0033      	movs	r3, r6
10006106:	6022      	str	r2, [r4, #0]
10006108:	2020      	movs	r0, #32
1000610a:	00b1      	lsls	r1, r6, #2
1000610c:	1861      	adds	r1, r4, r1
1000610e:	1b80      	subs	r0, r0, r6
10006110:	600a      	str	r2, [r1, #0]
10006112:	604a      	str	r2, [r1, #4]
10006114:	608a      	str	r2, [r1, #8]
10006116:	60ca      	str	r2, [r1, #12]
10006118:	610a      	str	r2, [r1, #16]
1000611a:	614a      	str	r2, [r1, #20]
1000611c:	618a      	str	r2, [r1, #24]
1000611e:	61ca      	str	r2, [r1, #28]
10006120:	620a      	str	r2, [r1, #32]
10006122:	624a      	str	r2, [r1, #36]	; 0x24
10006124:	628a      	str	r2, [r1, #40]	; 0x28
10006126:	62ca      	str	r2, [r1, #44]	; 0x2c
10006128:	630a      	str	r2, [r1, #48]	; 0x30
1000612a:	634a      	str	r2, [r1, #52]	; 0x34
1000612c:	638a      	str	r2, [r1, #56]	; 0x38
1000612e:	63ca      	str	r2, [r1, #60]	; 0x3c
10006130:	640a      	str	r2, [r1, #64]	; 0x40
10006132:	644a      	str	r2, [r1, #68]	; 0x44
10006134:	648a      	str	r2, [r1, #72]	; 0x48
10006136:	64ca      	str	r2, [r1, #76]	; 0x4c
10006138:	650a      	str	r2, [r1, #80]	; 0x50
1000613a:	654a      	str	r2, [r1, #84]	; 0x54
1000613c:	658a      	str	r2, [r1, #88]	; 0x58
1000613e:	65ca      	str	r2, [r1, #92]	; 0x5c
10006140:	660a      	str	r2, [r1, #96]	; 0x60
10006142:	664a      	str	r2, [r1, #100]	; 0x64
10006144:	668a      	str	r2, [r1, #104]	; 0x68
10006146:	66ca      	str	r2, [r1, #108]	; 0x6c
10006148:	670a      	str	r2, [r1, #112]	; 0x70
1000614a:	674a      	str	r2, [r1, #116]	; 0x74
1000614c:	0840      	lsrs	r0, r0, #1
1000614e:	2810      	cmp	r0, #16
10006150:	d103      	bne.n	1000615a <__aeabi_double_init+0x92>
10006152:	678a      	str	r2, [r1, #120]	; 0x78
10006154:	67ca      	str	r2, [r1, #124]	; 0x7c
10006156:	64a2      	str	r2, [r4, #72]	; 0x48
10006158:	e7c7      	b.n	100060ea <__aeabi_double_init+0x22>
1000615a:	331e      	adds	r3, #30
1000615c:	009b      	lsls	r3, r3, #2
1000615e:	50e2      	str	r2, [r4, r3]
10006160:	64a2      	str	r2, [r4, #72]	; 0x48
10006162:	e7c2      	b.n	100060ea <__aeabi_double_init+0x22>
10006164:	2300      	movs	r3, #0
10006166:	e7cf      	b.n	10006108 <__aeabi_double_init+0x40>
10006168:	00004453 	.word	0x00004453
1000616c:	20001e58 	.word	0x20001e58
10006170:	10006175 	.word	0x10006175

10006174 <double_table_shim_on_use_helper>:
10006174:	b507      	push	{r0, r1, r2, lr}
10006176:	4660      	mov	r0, ip
10006178:	8801      	ldrh	r1, [r0, #0]
1000617a:	0a0a      	lsrs	r2, r1, #8
1000617c:	3002      	adds	r0, #2
1000617e:	2adf      	cmp	r2, #223	; 0xdf
10006180:	d1fa      	bne.n	10006178 <double_table_shim_on_use_helper+0x4>
10006182:	b2c9      	uxtb	r1, r1
10006184:	0882      	lsrs	r2, r0, #2
10006186:	d304      	bcc.n	10006192 <double_table_shim_on_use_helper+0x1e>
10006188:	8802      	ldrh	r2, [r0, #0]
1000618a:	8840      	ldrh	r0, [r0, #2]
1000618c:	0400      	lsls	r0, r0, #16
1000618e:	4310      	orrs	r0, r2
10006190:	e000      	b.n	10006194 <double_table_shim_on_use_helper+0x20>
10006192:	6800      	ldr	r0, [r0, #0]
10006194:	4a01      	ldr	r2, [pc, #4]	; (1000619c <double_table_shim_on_use_helper+0x28>)
10006196:	5050      	str	r0, [r2, r1]
10006198:	9003      	str	r0, [sp, #12]
1000619a:	bd07      	pop	{r0, r1, r2, pc}
1000619c:	20001e58 	.word	0x20001e58

100061a0 <drsub_shim>:
100061a0:	b40f      	push	{r0, r1, r2, r3}
100061a2:	bc03      	pop	{r0, r1}
100061a4:	bc0c      	pop	{r2, r3}

100061a6 <dsub_shim>:
100061a6:	b5f0      	push	{r4, r5, r6, r7, lr}
100061a8:	2401      	movs	r4, #1
100061aa:	07e4      	lsls	r4, r4, #31
100061ac:	4063      	eors	r3, r4
100061ae:	e000      	b.n	100061b2 <da_entry>

100061b0 <dadd_shim>:
100061b0:	b5f0      	push	{r4, r5, r6, r7, lr}

100061b2 <da_entry>:
100061b2:	0d0c      	lsrs	r4, r1, #20
100061b4:	0fcf      	lsrs	r7, r1, #31
100061b6:	1e66      	subs	r6, r4, #1
100061b8:	0536      	lsls	r6, r6, #20
100061ba:	1b89      	subs	r1, r1, r6
100061bc:	0564      	lsls	r4, r4, #21
100061be:	d303      	bcc.n	100061c8 <l7_1>
100061c0:	43c9      	mvns	r1, r1
100061c2:	4240      	negs	r0, r0
100061c4:	d300      	bcc.n	100061c8 <l7_1>
100061c6:	3101      	adds	r1, #1

100061c8 <l7_1>:
100061c8:	0d64      	lsrs	r4, r4, #21
100061ca:	d003      	beq.n	100061d4 <l7_2>
100061cc:	1c66      	adds	r6, r4, #1
100061ce:	0af6      	lsrs	r6, r6, #11
100061d0:	d007      	beq.n	100061e2 <l7_3>
100061d2:	1be4      	subs	r4, r4, r7

100061d4 <l7_2>:
100061d4:	2000      	movs	r0, #0
100061d6:	007f      	lsls	r7, r7, #1
100061d8:	1c79      	adds	r1, r7, #1
100061da:	0789      	lsls	r1, r1, #30
100061dc:	1289      	asrs	r1, r1, #10
100061de:	3c80      	subs	r4, #128	; 0x80
100061e0:	0324      	lsls	r4, r4, #12

100061e2 <l7_3>:
100061e2:	0d1d      	lsrs	r5, r3, #20
100061e4:	0fdf      	lsrs	r7, r3, #31
100061e6:	1e6e      	subs	r6, r5, #1
100061e8:	0536      	lsls	r6, r6, #20
100061ea:	1b9b      	subs	r3, r3, r6
100061ec:	056d      	lsls	r5, r5, #21
100061ee:	d303      	bcc.n	100061f8 <l8_1>
100061f0:	43db      	mvns	r3, r3
100061f2:	4252      	negs	r2, r2
100061f4:	d300      	bcc.n	100061f8 <l8_1>
100061f6:	3301      	adds	r3, #1

100061f8 <l8_1>:
100061f8:	0d6d      	lsrs	r5, r5, #21
100061fa:	d003      	beq.n	10006204 <l8_2>
100061fc:	1c6e      	adds	r6, r5, #1
100061fe:	0af6      	lsrs	r6, r6, #11
10006200:	d007      	beq.n	10006212 <l8_3>
10006202:	1bed      	subs	r5, r5, r7

10006204 <l8_2>:
10006204:	2200      	movs	r2, #0
10006206:	007f      	lsls	r7, r7, #1
10006208:	1c7b      	adds	r3, r7, #1
1000620a:	079b      	lsls	r3, r3, #30
1000620c:	129b      	asrs	r3, r3, #10
1000620e:	3d80      	subs	r5, #128	; 0x80
10006210:	032d      	lsls	r5, r5, #12

10006212 <l8_3>:
10006212:	1b2f      	subs	r7, r5, r4
10006214:	1b66      	subs	r6, r4, r5
10006216:	d458      	bmi.n	100062ca <da_ygtx>
10006218:	46a4      	mov	ip, r4
1000621a:	2e20      	cmp	r6, #32
1000621c:	da46      	bge.n	100062ac <da_xrgty>
1000621e:	3720      	adds	r7, #32
10006220:	0014      	movs	r4, r2
10006222:	40bc      	lsls	r4, r7

10006224 <da_xgty0>:
10006224:	001d      	movs	r5, r3
10006226:	40bd      	lsls	r5, r7
10006228:	40f2      	lsrs	r2, r6
1000622a:	4133      	asrs	r3, r6
1000622c:	432a      	orrs	r2, r5

1000622e <da_add>:
1000622e:	1880      	adds	r0, r0, r2
10006230:	4159      	adcs	r1, r3

10006232 <da_pack>:
10006232:	0fcb      	lsrs	r3, r1, #31
10006234:	d005      	beq.n	10006242 <da_pack+0x10>
10006236:	43c9      	mvns	r1, r1
10006238:	43c0      	mvns	r0, r0
1000623a:	2200      	movs	r2, #0
1000623c:	4264      	negs	r4, r4
1000623e:	4150      	adcs	r0, r2
10006240:	4151      	adcs	r1, r2
10006242:	4662      	mov	r2, ip
10006244:	0d4d      	lsrs	r5, r1, #21
10006246:	d128      	bne.n	1000629a <da_0>
10006248:	0d0d      	lsrs	r5, r1, #20
1000624a:	d107      	bne.n	1000625c <da_1>
1000624c:	2800      	cmp	r0, #0
1000624e:	d01f      	beq.n	10006290 <da_5>

10006250 <da_2>:
10006250:	1924      	adds	r4, r4, r4
10006252:	4140      	adcs	r0, r0
10006254:	4149      	adcs	r1, r1
10006256:	3a01      	subs	r2, #1
10006258:	0d0d      	lsrs	r5, r1, #20
1000625a:	d0f9      	beq.n	10006250 <da_2>

1000625c <da_1>:
1000625c:	0064      	lsls	r4, r4, #1
1000625e:	d306      	bcc.n	1000626e <da_3>

10006260 <da_4>:
10006260:	3001      	adds	r0, #1
10006262:	d300      	bcc.n	10006266 <da_4+0x6>
10006264:	3101      	adds	r1, #1
10006266:	2c00      	cmp	r4, #0
10006268:	d101      	bne.n	1000626e <da_3>
1000626a:	0840      	lsrs	r0, r0, #1
1000626c:	0040      	lsls	r0, r0, #1

1000626e <da_3>:
1000626e:	3a01      	subs	r2, #1
10006270:	d40b      	bmi.n	1000628a <da_6>
10006272:	1c94      	adds	r4, r2, #2
10006274:	0ae4      	lsrs	r4, r4, #11
10006276:	d104      	bne.n	10006282 <da_7>
10006278:	0512      	lsls	r2, r2, #20
1000627a:	4411      	add	r1, r2
1000627c:	07db      	lsls	r3, r3, #31
1000627e:	4419      	add	r1, r3
10006280:	bdf0      	pop	{r4, r5, r6, r7, pc}

10006282 <da_7>:
10006282:	07d9      	lsls	r1, r3, #31
10006284:	4b20      	ldr	r3, [pc, #128]	; (10006308 <da_xmgty+0x4>)
10006286:	4319      	orrs	r1, r3
10006288:	e000      	b.n	1000628c <da_6+0x2>

1000628a <da_6>:
1000628a:	07d9      	lsls	r1, r3, #31
1000628c:	2000      	movs	r0, #0
1000628e:	bdf0      	pop	{r4, r5, r6, r7, pc}

10006290 <da_5>:
10006290:	2900      	cmp	r1, #0
10006292:	d1dd      	bne.n	10006250 <da_2>
10006294:	2c00      	cmp	r4, #0
10006296:	d1db      	bne.n	10006250 <da_2>
10006298:	bdf0      	pop	{r4, r5, r6, r7, pc}

1000629a <da_0>:
1000629a:	3201      	adds	r2, #1
1000629c:	07c6      	lsls	r6, r0, #31
1000629e:	0840      	lsrs	r0, r0, #1
100062a0:	07cd      	lsls	r5, r1, #31
100062a2:	4328      	orrs	r0, r5
100062a4:	0849      	lsrs	r1, r1, #1
100062a6:	2e00      	cmp	r6, #0
100062a8:	d0e1      	beq.n	1000626e <da_3>
100062aa:	e7d9      	b.n	10006260 <da_4>

100062ac <da_xrgty>:
100062ac:	2e3c      	cmp	r6, #60	; 0x3c
100062ae:	da29      	bge.n	10006304 <da_xmgty>
100062b0:	3e20      	subs	r6, #32
100062b2:	3740      	adds	r7, #64	; 0x40
100062b4:	0014      	movs	r4, r2
100062b6:	40bc      	lsls	r4, r7
100062b8:	d000      	beq.n	100062bc <da_xrgty+0x10>
100062ba:	2401      	movs	r4, #1
100062bc:	40f2      	lsrs	r2, r6
100062be:	4314      	orrs	r4, r2
100062c0:	001a      	movs	r2, r3
100062c2:	40bb      	lsls	r3, r7
100062c4:	431c      	orrs	r4, r3
100062c6:	17d3      	asrs	r3, r2, #31
100062c8:	e7ac      	b.n	10006224 <da_xgty0>

100062ca <da_ygtx>:
100062ca:	46ac      	mov	ip, r5
100062cc:	2f20      	cmp	r7, #32
100062ce:	da08      	bge.n	100062e2 <da_yrgtx>
100062d0:	3620      	adds	r6, #32
100062d2:	0004      	movs	r4, r0
100062d4:	40b4      	lsls	r4, r6

100062d6 <da_ygtx0>:
100062d6:	000d      	movs	r5, r1
100062d8:	40b5      	lsls	r5, r6
100062da:	40f8      	lsrs	r0, r7
100062dc:	4139      	asrs	r1, r7
100062de:	4328      	orrs	r0, r5
100062e0:	e7a5      	b.n	1000622e <da_add>

100062e2 <da_yrgtx>:
100062e2:	2f3c      	cmp	r7, #60	; 0x3c
100062e4:	da0c      	bge.n	10006300 <da_ymgtx>
100062e6:	3f20      	subs	r7, #32
100062e8:	3640      	adds	r6, #64	; 0x40
100062ea:	0004      	movs	r4, r0
100062ec:	40b4      	lsls	r4, r6
100062ee:	d000      	beq.n	100062f2 <da_yrgtx+0x10>
100062f0:	2401      	movs	r4, #1
100062f2:	40f8      	lsrs	r0, r7
100062f4:	4304      	orrs	r4, r0
100062f6:	0008      	movs	r0, r1
100062f8:	40b1      	lsls	r1, r6
100062fa:	430c      	orrs	r4, r1
100062fc:	17c1      	asrs	r1, r0, #31
100062fe:	e7ea      	b.n	100062d6 <da_ygtx0>

10006300 <da_ymgtx>:
10006300:	0010      	movs	r0, r2
10006302:	0019      	movs	r1, r3

10006304 <da_xmgty>:
10006304:	2400      	movs	r4, #0
10006306:	e794      	b.n	10006232 <da_pack>
10006308:	7ff00000 	.word	0x7ff00000

1000630c <dmul_shim>:
1000630c:	b5f0      	push	{r4, r5, r6, r7, lr}
1000630e:	0d0c      	lsrs	r4, r1, #20
10006310:	1e66      	subs	r6, r4, #1
10006312:	0536      	lsls	r6, r6, #20
10006314:	1b89      	subs	r1, r1, r6
10006316:	0ae6      	lsrs	r6, r4, #11
10006318:	0564      	lsls	r4, r4, #21
1000631a:	0d64      	lsrs	r4, r4, #21
1000631c:	d002      	beq.n	10006324 <l11_1>
1000631e:	1c65      	adds	r5, r4, #1
10006320:	0aed      	lsrs	r5, r5, #11
10006322:	d004      	beq.n	1000632e <l11_2>

10006324 <l11_1>:
10006324:	2000      	movs	r0, #0
10006326:	2101      	movs	r1, #1
10006328:	0509      	lsls	r1, r1, #20
1000632a:	3c80      	subs	r4, #128	; 0x80
1000632c:	0324      	lsls	r4, r4, #12

1000632e <l11_2>:
1000632e:	46a4      	mov	ip, r4
10006330:	0d1c      	lsrs	r4, r3, #20
10006332:	1e67      	subs	r7, r4, #1
10006334:	053f      	lsls	r7, r7, #20
10006336:	1bdb      	subs	r3, r3, r7
10006338:	0ae7      	lsrs	r7, r4, #11
1000633a:	0564      	lsls	r4, r4, #21
1000633c:	0d64      	lsrs	r4, r4, #21
1000633e:	d002      	beq.n	10006346 <l12_1>
10006340:	1c65      	adds	r5, r4, #1
10006342:	0aed      	lsrs	r5, r5, #11
10006344:	d004      	beq.n	10006350 <l12_2>

10006346 <l12_1>:
10006346:	2200      	movs	r2, #0
10006348:	2301      	movs	r3, #1
1000634a:	051b      	lsls	r3, r3, #20
1000634c:	3c80      	subs	r4, #128	; 0x80
1000634e:	0324      	lsls	r4, r4, #12

10006350 <l12_2>:
10006350:	4077      	eors	r7, r6
10006352:	4464      	add	r4, ip
10006354:	b497      	push	{r0, r1, r2, r4, r7}
10006356:	b284      	uxth	r4, r0
10006358:	b296      	uxth	r6, r2
1000635a:	4374      	muls	r4, r6
1000635c:	0c07      	lsrs	r7, r0, #16
1000635e:	437e      	muls	r6, r7
10006360:	0c15      	lsrs	r5, r2, #16
10006362:	436f      	muls	r7, r5
10006364:	b280      	uxth	r0, r0
10006366:	4368      	muls	r0, r5
10006368:	1836      	adds	r6, r6, r0
1000636a:	d302      	bcc.n	10006372 <l13_1>
1000636c:	2001      	movs	r0, #1
1000636e:	0400      	lsls	r0, r0, #16
10006370:	183f      	adds	r7, r7, r0

10006372 <l13_1>:
10006372:	0430      	lsls	r0, r6, #16
10006374:	0c35      	lsrs	r5, r6, #16
10006376:	1900      	adds	r0, r0, r4
10006378:	417d      	adcs	r5, r7
1000637a:	4684      	mov	ip, r0
1000637c:	b288      	uxth	r0, r1
1000637e:	b29a      	uxth	r2, r3
10006380:	4350      	muls	r0, r2
10006382:	0c0c      	lsrs	r4, r1, #16
10006384:	4362      	muls	r2, r4
10006386:	0c1f      	lsrs	r7, r3, #16
10006388:	437c      	muls	r4, r7
1000638a:	b28e      	uxth	r6, r1
1000638c:	437e      	muls	r6, r7
1000638e:	1992      	adds	r2, r2, r6
10006390:	d302      	bcc.n	10006398 <l14_1>
10006392:	2601      	movs	r6, #1
10006394:	0436      	lsls	r6, r6, #16
10006396:	19a4      	adds	r4, r4, r6

10006398 <l14_1>:
10006398:	0416      	lsls	r6, r2, #16
1000639a:	0c17      	lsrs	r7, r2, #16
1000639c:	1836      	adds	r6, r6, r0
1000639e:	4167      	adcs	r7, r4
100063a0:	bc01      	pop	{r0}
100063a2:	b281      	uxth	r1, r0
100063a4:	b29a      	uxth	r2, r3
100063a6:	4351      	muls	r1, r2
100063a8:	0c04      	lsrs	r4, r0, #16
100063aa:	4362      	muls	r2, r4
100063ac:	0c1b      	lsrs	r3, r3, #16
100063ae:	435c      	muls	r4, r3
100063b0:	b280      	uxth	r0, r0
100063b2:	4358      	muls	r0, r3
100063b4:	1812      	adds	r2, r2, r0
100063b6:	d302      	bcc.n	100063be <l15_1>
100063b8:	2001      	movs	r0, #1
100063ba:	0400      	lsls	r0, r0, #16
100063bc:	1824      	adds	r4, r4, r0

100063be <l15_1>:
100063be:	0410      	lsls	r0, r2, #16
100063c0:	0c13      	lsrs	r3, r2, #16
100063c2:	1840      	adds	r0, r0, r1
100063c4:	4163      	adcs	r3, r4
100063c6:	182d      	adds	r5, r5, r0
100063c8:	415e      	adcs	r6, r3
100063ca:	2000      	movs	r0, #0
100063cc:	4147      	adcs	r7, r0
100063ce:	bc06      	pop	{r1, r2}
100063d0:	b288      	uxth	r0, r1
100063d2:	b293      	uxth	r3, r2
100063d4:	4358      	muls	r0, r3
100063d6:	0c0c      	lsrs	r4, r1, #16
100063d8:	4363      	muls	r3, r4
100063da:	0c12      	lsrs	r2, r2, #16
100063dc:	4354      	muls	r4, r2
100063de:	b289      	uxth	r1, r1
100063e0:	4351      	muls	r1, r2
100063e2:	185b      	adds	r3, r3, r1
100063e4:	d302      	bcc.n	100063ec <l16_1>
100063e6:	2101      	movs	r1, #1
100063e8:	0409      	lsls	r1, r1, #16
100063ea:	1864      	adds	r4, r4, r1

100063ec <l16_1>:
100063ec:	0419      	lsls	r1, r3, #16
100063ee:	0c1a      	lsrs	r2, r3, #16
100063f0:	1809      	adds	r1, r1, r0
100063f2:	4162      	adcs	r2, r4
100063f4:	186d      	adds	r5, r5, r1
100063f6:	4156      	adcs	r6, r2
100063f8:	2000      	movs	r0, #0
100063fa:	4147      	adcs	r7, r0
100063fc:	bc18      	pop	{r3, r4}
100063fe:	02f9      	lsls	r1, r7, #11
10006400:	0d72      	lsrs	r2, r6, #21
10006402:	4311      	orrs	r1, r2
10006404:	02f0      	lsls	r0, r6, #11
10006406:	0d6a      	lsrs	r2, r5, #21
10006408:	4310      	orrs	r0, r2
1000640a:	02ed      	lsls	r5, r5, #11
1000640c:	0d0a      	lsrs	r2, r1, #20
1000640e:	d103      	bne.n	10006418 <l16_1+0x2c>
10006410:	196d      	adds	r5, r5, r5
10006412:	4140      	adcs	r0, r0
10006414:	4149      	adcs	r1, r1
10006416:	3b01      	subs	r3, #1
10006418:	4e12      	ldr	r6, [pc, #72]	; (10006464 <dm_1+0xa>)
1000641a:	1b9b      	subs	r3, r3, r6
1000641c:	0076      	lsls	r6, r6, #1
1000641e:	42b3      	cmp	r3, r6
10006420:	d20e      	bcs.n	10006440 <dm_0>
10006422:	006d      	lsls	r5, r5, #1
10006424:	d307      	bcc.n	10006436 <l16_1+0x4a>
10006426:	3001      	adds	r0, #1
10006428:	2600      	movs	r6, #0
1000642a:	4171      	adcs	r1, r6
1000642c:	4666      	mov	r6, ip
1000642e:	4335      	orrs	r5, r6
10006430:	d101      	bne.n	10006436 <l16_1+0x4a>
10006432:	0840      	lsrs	r0, r0, #1
10006434:	0040      	lsls	r0, r0, #1
10006436:	051b      	lsls	r3, r3, #20
10006438:	18c9      	adds	r1, r1, r3

1000643a <dm_2>:
1000643a:	07e4      	lsls	r4, r4, #31
1000643c:	4421      	add	r1, r4
1000643e:	bdf0      	pop	{r4, r5, r6, r7, pc}

10006440 <dm_0>:
10006440:	da0b      	bge.n	1000645a <dm_1>
10006442:	3301      	adds	r3, #1
10006444:	d106      	bne.n	10006454 <dm_0+0x14>
10006446:	3001      	adds	r0, #1
10006448:	d104      	bne.n	10006454 <dm_0+0x14>
1000644a:	3101      	adds	r1, #1
1000644c:	0d4f      	lsrs	r7, r1, #21
1000644e:	d001      	beq.n	10006454 <dm_0+0x14>
10006450:	0849      	lsrs	r1, r1, #1
10006452:	e7f2      	b.n	1000643a <dm_2>
10006454:	07e1      	lsls	r1, r4, #31
10006456:	2000      	movs	r0, #0
10006458:	bdf0      	pop	{r4, r5, r6, r7, pc}

1000645a <dm_1>:
1000645a:	3601      	adds	r6, #1
1000645c:	0531      	lsls	r1, r6, #20
1000645e:	2000      	movs	r0, #0
10006460:	e7eb      	b.n	1000643a <dm_2>
10006462:	0000      	.short	0x0000
10006464:	000003ff 	.word	0x000003ff

10006468 <ddiv_shim>:
10006468:	b5f0      	push	{r4, r5, r6, r7, lr}

1000646a <ddiv0>:
1000646a:	0d1c      	lsrs	r4, r3, #20
1000646c:	1e67      	subs	r7, r4, #1
1000646e:	053f      	lsls	r7, r7, #20
10006470:	1bdb      	subs	r3, r3, r7
10006472:	0ae7      	lsrs	r7, r4, #11
10006474:	0564      	lsls	r4, r4, #21
10006476:	0d64      	lsrs	r4, r4, #21
10006478:	d002      	beq.n	10006480 <l19_1>
1000647a:	1c66      	adds	r6, r4, #1
1000647c:	0af6      	lsrs	r6, r6, #11
1000647e:	d004      	beq.n	1000648a <l19_2>

10006480 <l19_1>:
10006480:	2200      	movs	r2, #0
10006482:	2301      	movs	r3, #1
10006484:	051b      	lsls	r3, r3, #20
10006486:	3c80      	subs	r4, #128	; 0x80
10006488:	0324      	lsls	r4, r4, #12

1000648a <l19_2>:
1000648a:	25d0      	movs	r5, #208	; 0xd0
1000648c:	062d      	lsls	r5, r5, #24
1000648e:	2600      	movs	r6, #0
10006490:	43f6      	mvns	r6, r6
10006492:	662e      	str	r6, [r5, #96]	; 0x60
10006494:	091e      	lsrs	r6, r3, #4
10006496:	666e      	str	r6, [r5, #100]	; 0x64
10006498:	0fce      	lsrs	r6, r1, #31
1000649a:	19f6      	adds	r6, r6, r7
1000649c:	46b4      	mov	ip, r6
1000649e:	0049      	lsls	r1, r1, #1
100064a0:	0d4f      	lsrs	r7, r1, #21
100064a2:	d002      	beq.n	100064aa <l19_2+0x20>
100064a4:	1c7e      	adds	r6, r7, #1
100064a6:	0af6      	lsrs	r6, r6, #11
100064a8:	d003      	beq.n	100064b2 <l19_2+0x28>
100064aa:	2000      	movs	r0, #0
100064ac:	2100      	movs	r1, #0
100064ae:	3f40      	subs	r7, #64	; 0x40
100064b0:	033f      	lsls	r7, r7, #12
100064b2:	1b3e      	subs	r6, r7, r4
100064b4:	00b6      	lsls	r6, r6, #2
100064b6:	44b4      	add	ip, r6
100064b8:	3f01      	subs	r7, #1
100064ba:	057f      	lsls	r7, r7, #21
100064bc:	1bc9      	subs	r1, r1, r7
100064be:	0849      	lsrs	r1, r1, #1
100064c0:	6f2e      	ldr	r6, [r5, #112]	; 0x70
100064c2:	3601      	adds	r6, #1
100064c4:	0876      	lsrs	r6, r6, #1
100064c6:	029c      	lsls	r4, r3, #10
100064c8:	0d95      	lsrs	r5, r2, #22
100064ca:	4325      	orrs	r5, r4
100064cc:	4375      	muls	r5, r6
100064ce:	13ed      	asrs	r5, r5, #15
100064d0:	4375      	muls	r5, r6
100064d2:	13ad      	asrs	r5, r5, #14
100064d4:	3501      	adds	r5, #1
100064d6:	106d      	asrs	r5, r5, #1
100064d8:	03f6      	lsls	r6, r6, #15
100064da:	1b76      	subs	r6, r6, r5
100064dc:	b40c      	push	{r2, r3}
100064de:	02cc      	lsls	r4, r1, #11
100064e0:	0d45      	lsrs	r5, r0, #21
100064e2:	432c      	orrs	r4, r5
100064e4:	b2a2      	uxth	r2, r4
100064e6:	b2b3      	uxth	r3, r6
100064e8:	435a      	muls	r2, r3
100064ea:	0c27      	lsrs	r7, r4, #16
100064ec:	437b      	muls	r3, r7
100064ee:	0c35      	lsrs	r5, r6, #16
100064f0:	436f      	muls	r7, r5
100064f2:	b2a4      	uxth	r4, r4
100064f4:	436c      	muls	r4, r5
100064f6:	191b      	adds	r3, r3, r4
100064f8:	d302      	bcc.n	10006500 <l20_1>
100064fa:	2401      	movs	r4, #1
100064fc:	0424      	lsls	r4, r4, #16
100064fe:	193f      	adds	r7, r7, r4

10006500 <l20_1>:
10006500:	041c      	lsls	r4, r3, #16
10006502:	0c1d      	lsrs	r5, r3, #16
10006504:	18a4      	adds	r4, r4, r2
10006506:	417d      	adcs	r5, r7
10006508:	1924      	adds	r4, r4, r4
1000650a:	416d      	adcs	r5, r5
1000650c:	9a00      	ldr	r2, [sp, #0]
1000650e:	b291      	uxth	r1, r2
10006510:	b2ac      	uxth	r4, r5
10006512:	4361      	muls	r1, r4
10006514:	0c17      	lsrs	r7, r2, #16
10006516:	437c      	muls	r4, r7
10006518:	0c2b      	lsrs	r3, r5, #16
1000651a:	435f      	muls	r7, r3
1000651c:	b292      	uxth	r2, r2
1000651e:	435a      	muls	r2, r3
10006520:	18a4      	adds	r4, r4, r2
10006522:	d302      	bcc.n	1000652a <l21_1>
10006524:	2201      	movs	r2, #1
10006526:	0412      	lsls	r2, r2, #16
10006528:	18bf      	adds	r7, r7, r2

1000652a <l21_1>:
1000652a:	0422      	lsls	r2, r4, #16
1000652c:	0c23      	lsrs	r3, r4, #16
1000652e:	1852      	adds	r2, r2, r1
10006530:	417b      	adcs	r3, r7
10006532:	9c01      	ldr	r4, [sp, #4]
10006534:	436c      	muls	r4, r5
10006536:	191b      	adds	r3, r3, r4
10006538:	0e52      	lsrs	r2, r2, #25
1000653a:	01d9      	lsls	r1, r3, #7
1000653c:	430a      	orrs	r2, r1
1000653e:	0144      	lsls	r4, r0, #5
10006540:	1aa0      	subs	r0, r4, r2
10006542:	b281      	uxth	r1, r0
10006544:	b2b2      	uxth	r2, r6
10006546:	4351      	muls	r1, r2
10006548:	1403      	asrs	r3, r0, #16
1000654a:	435a      	muls	r2, r3
1000654c:	0c36      	lsrs	r6, r6, #16
1000654e:	4373      	muls	r3, r6
10006550:	b287      	uxth	r7, r0
10006552:	4377      	muls	r7, r6
10006554:	17d6      	asrs	r6, r2, #31
10006556:	19d2      	adds	r2, r2, r7
10006558:	2700      	movs	r7, #0
1000655a:	417e      	adcs	r6, r7
1000655c:	0436      	lsls	r6, r6, #16
1000655e:	199b      	adds	r3, r3, r6
10006560:	0417      	lsls	r7, r2, #16
10006562:	0c16      	lsrs	r6, r2, #16
10006564:	187f      	adds	r7, r7, r1
10006566:	415e      	adcs	r6, r3
10006568:	1673      	asrs	r3, r6, #25
1000656a:	18ed      	adds	r5, r5, r3
1000656c:	01f3      	lsls	r3, r6, #7
1000656e:	2600      	movs	r6, #0
10006570:	3380      	adds	r3, #128	; 0x80
10006572:	4175      	adcs	r5, r6
10006574:	0fa9      	lsrs	r1, r5, #30
10006576:	d106      	bne.n	10006586 <dd_0>
10006578:	0064      	lsls	r4, r4, #1
1000657a:	0a69      	lsrs	r1, r5, #9
1000657c:	05e8      	lsls	r0, r5, #23
1000657e:	0a5b      	lsrs	r3, r3, #9
10006580:	4318      	orrs	r0, r3
10006582:	d209      	bcs.n	10006598 <dd_1>
10006584:	e02f      	b.n	100065e6 <dd_2>

10006586 <dd_0>:
10006586:	2204      	movs	r2, #4
10006588:	4494      	add	ip, r2
1000658a:	3380      	adds	r3, #128	; 0x80
1000658c:	4175      	adcs	r5, r6
1000658e:	0aa9      	lsrs	r1, r5, #10
10006590:	05a8      	lsls	r0, r5, #22
10006592:	0a9b      	lsrs	r3, r3, #10
10006594:	4318      	orrs	r0, r3
10006596:	d326      	bcc.n	100065e6 <dd_2>

10006598 <dd_1>:
10006598:	4140      	adcs	r0, r0
1000659a:	4149      	adcs	r1, r1
1000659c:	0424      	lsls	r4, r4, #16
1000659e:	9a00      	ldr	r2, [sp, #0]
100065a0:	9b01      	ldr	r3, [sp, #4]
100065a2:	000d      	movs	r5, r1
100065a4:	4355      	muls	r5, r2
100065a6:	1b64      	subs	r4, r4, r5
100065a8:	4343      	muls	r3, r0
100065aa:	1ae4      	subs	r4, r4, r3
100065ac:	b295      	uxth	r5, r2
100065ae:	b286      	uxth	r6, r0
100065b0:	4375      	muls	r5, r6
100065b2:	0c17      	lsrs	r7, r2, #16
100065b4:	437e      	muls	r6, r7
100065b6:	0c03      	lsrs	r3, r0, #16
100065b8:	435f      	muls	r7, r3
100065ba:	b292      	uxth	r2, r2
100065bc:	435a      	muls	r2, r3
100065be:	18b6      	adds	r6, r6, r2
100065c0:	d302      	bcc.n	100065c8 <l23_1>
100065c2:	2201      	movs	r2, #1
100065c4:	0412      	lsls	r2, r2, #16
100065c6:	18bf      	adds	r7, r7, r2

100065c8 <l23_1>:
100065c8:	0432      	lsls	r2, r6, #16
100065ca:	0c33      	lsrs	r3, r6, #16
100065cc:	1952      	adds	r2, r2, r5
100065ce:	417b      	adcs	r3, r7
100065d0:	4252      	negs	r2, r2
100065d2:	419c      	sbcs	r4, r3
100065d4:	2c00      	cmp	r4, #0
100065d6:	d402      	bmi.n	100065de <l23_1+0x16>
100065d8:	2200      	movs	r2, #0
100065da:	3001      	adds	r0, #1
100065dc:	4151      	adcs	r1, r2
100065de:	0840      	lsrs	r0, r0, #1
100065e0:	07ca      	lsls	r2, r1, #31
100065e2:	4310      	orrs	r0, r2
100065e4:	0849      	lsrs	r1, r1, #1

100065e6 <dd_2>:
100065e6:	b002      	add	sp, #8
100065e8:	4662      	mov	r2, ip
100065ea:	07d7      	lsls	r7, r2, #31
100065ec:	1092      	asrs	r2, r2, #2
100065ee:	4b08      	ldr	r3, [pc, #32]	; (10006610 <dd_4+0x6>)
100065f0:	18d2      	adds	r2, r2, r3
100065f2:	4b08      	ldr	r3, [pc, #32]	; (10006614 <dd_4+0xa>)
100065f4:	429a      	cmp	r2, r3
100065f6:	d203      	bcs.n	10006600 <dd_3>
100065f8:	0512      	lsls	r2, r2, #20
100065fa:	1889      	adds	r1, r1, r2

100065fc <dd_5>:
100065fc:	19c9      	adds	r1, r1, r7
100065fe:	bdf0      	pop	{r4, r5, r6, r7, pc}

10006600 <dd_3>:
10006600:	2000      	movs	r0, #0
10006602:	2a00      	cmp	r2, #0
10006604:	dc01      	bgt.n	1000660a <dd_4>
10006606:	0039      	movs	r1, r7
10006608:	bdf0      	pop	{r4, r5, r6, r7, pc}

1000660a <dd_4>:
1000660a:	3301      	adds	r3, #1
1000660c:	0519      	lsls	r1, r3, #20
1000660e:	e7f5      	b.n	100065fc <dd_5>
10006610:	000003fd 	.word	0x000003fd
10006614:	000007fe 	.word	0x000007fe

10006618 <dcordic_rot_step>:
10006618:	4662      	mov	r2, ip
1000661a:	ca18      	ldmia	r2!, {r3, r4}
1000661c:	4694      	mov	ip, r2
1000661e:	2900      	cmp	r1, #0
10006620:	da1a      	bge.n	10006658 <dcordic_rot_step+0x40>
10006622:	18c0      	adds	r0, r0, r3
10006624:	4161      	adcs	r1, r4
10006626:	465b      	mov	r3, fp
10006628:	413b      	asrs	r3, r7
1000662a:	465c      	mov	r4, fp
1000662c:	40b4      	lsls	r4, r6
1000662e:	4652      	mov	r2, sl
10006630:	40fa      	lsrs	r2, r7
10006632:	4322      	orrs	r2, r4
10006634:	4644      	mov	r4, r8
10006636:	464d      	mov	r5, r9
10006638:	4162      	adcs	r2, r4
1000663a:	416b      	adcs	r3, r5
1000663c:	4690      	mov	r8, r2
1000663e:	4699      	mov	r9, r3
10006640:	462b      	mov	r3, r5
10006642:	40b3      	lsls	r3, r6
10006644:	413d      	asrs	r5, r7
10006646:	40fc      	lsrs	r4, r7
10006648:	431c      	orrs	r4, r3
1000664a:	4652      	mov	r2, sl
1000664c:	465b      	mov	r3, fp
1000664e:	41a2      	sbcs	r2, r4
10006650:	41ab      	sbcs	r3, r5
10006652:	4692      	mov	sl, r2
10006654:	469b      	mov	fp, r3
10006656:	4770      	bx	lr
10006658:	1ac0      	subs	r0, r0, r3
1000665a:	41a1      	sbcs	r1, r4
1000665c:	464b      	mov	r3, r9
1000665e:	413b      	asrs	r3, r7
10006660:	464c      	mov	r4, r9
10006662:	40b4      	lsls	r4, r6
10006664:	4642      	mov	r2, r8
10006666:	40fa      	lsrs	r2, r7
10006668:	4322      	orrs	r2, r4
1000666a:	4654      	mov	r4, sl
1000666c:	465d      	mov	r5, fp
1000666e:	4162      	adcs	r2, r4
10006670:	416b      	adcs	r3, r5
10006672:	4692      	mov	sl, r2
10006674:	469b      	mov	fp, r3
10006676:	462b      	mov	r3, r5
10006678:	40b3      	lsls	r3, r6
1000667a:	413d      	asrs	r5, r7
1000667c:	40fc      	lsrs	r4, r7
1000667e:	431c      	orrs	r4, r3
10006680:	4642      	mov	r2, r8
10006682:	464b      	mov	r3, r9
10006684:	41a2      	sbcs	r2, r4
10006686:	41ab      	sbcs	r3, r5
10006688:	4690      	mov	r8, r2
1000668a:	4699      	mov	r9, r3
1000668c:	4770      	bx	lr

1000668e <ret_dzero>:
1000668e:	2000      	movs	r0, #0
10006690:	2100      	movs	r1, #0
10006692:	4770      	bx	lr

10006694 <double2uint_shim>:
10006694:	2200      	movs	r2, #0

10006696 <double2ufix_shim>:
10006696:	b500      	push	{lr}
10006698:	3220      	adds	r2, #32
1000669a:	f000 f804 	bl	100066a6 <double2ufix64_shim>
1000669e:	0008      	movs	r0, r1
100066a0:	bd00      	pop	{pc}
	...

100066a4 <double2uint64_shim>:
100066a4:	2200      	movs	r2, #0

100066a6 <double2ufix64_shim>:
100066a6:	150b      	asrs	r3, r1, #20
100066a8:	d4f1      	bmi.n	1000668e <ret_dzero>

100066aa <d2fix>:
100066aa:	b510      	push	{r4, lr}
100066ac:	4694      	mov	ip, r2
100066ae:	f000 f82f 	bl	10006710 <dunpacks>
100066b2:	1414      	asrs	r4, r2, #16
100066b4:	3401      	adds	r4, #1
100066b6:	da00      	bge.n	100066ba <d2fix+0x10>
100066b8:	2100      	movs	r1, #0
100066ba:	17cb      	asrs	r3, r1, #31
100066bc:	4c13      	ldr	r4, [pc, #76]	; (1000670c <d2fix_a+0x4c>)
100066be:	4720      	bx	r4

100066c0 <d2fix_a>:
100066c0:	4462      	add	r2, ip
100066c2:	3a34      	subs	r2, #52	; 0x34
100066c4:	d40c      	bmi.n	100066e0 <d2fix_a+0x20>
100066c6:	2a0c      	cmp	r2, #12
100066c8:	da07      	bge.n	100066da <d2fix_a+0x1a>
100066ca:	0004      	movs	r4, r0
100066cc:	4091      	lsls	r1, r2
100066ce:	4090      	lsls	r0, r2
100066d0:	4252      	negs	r2, r2
100066d2:	3220      	adds	r2, #32
100066d4:	40d4      	lsrs	r4, r2
100066d6:	4321      	orrs	r1, r4
100066d8:	bd10      	pop	{r4, pc}
100066da:	43d8      	mvns	r0, r3
100066dc:	43d9      	mvns	r1, r3
100066de:	bd10      	pop	{r4, pc}
100066e0:	3220      	adds	r2, #32
100066e2:	d407      	bmi.n	100066f4 <d2fix_a+0x34>
100066e4:	460c      	mov	r4, r1
100066e6:	4094      	lsls	r4, r2
100066e8:	4252      	negs	r2, r2
100066ea:	3220      	adds	r2, #32
100066ec:	4111      	asrs	r1, r2
100066ee:	40d0      	lsrs	r0, r2
100066f0:	4320      	orrs	r0, r4
100066f2:	bd10      	pop	{r4, pc}
100066f4:	0008      	movs	r0, r1
100066f6:	17c9      	asrs	r1, r1, #31
100066f8:	3220      	adds	r2, #32
100066fa:	d403      	bmi.n	10006704 <d2fix_a+0x44>
100066fc:	4252      	negs	r2, r2
100066fe:	3220      	adds	r2, #32
10006700:	4110      	asrs	r0, r2
10006702:	bd10      	pop	{r4, pc}
10006704:	0018      	movs	r0, r3
10006706:	0019      	movs	r1, r3
10006708:	bd10      	pop	{r4, pc}
1000670a:	0000      	.short	0x0000
1000670c:	100066c1 	.word	0x100066c1

10006710 <dunpacks>:
10006710:	0d0a      	lsrs	r2, r1, #20
10006712:	0fcc      	lsrs	r4, r1, #31
10006714:	1e53      	subs	r3, r2, #1
10006716:	051b      	lsls	r3, r3, #20
10006718:	1ac9      	subs	r1, r1, r3
1000671a:	0552      	lsls	r2, r2, #21
1000671c:	d303      	bcc.n	10006726 <l60_1>
1000671e:	43c9      	mvns	r1, r1
10006720:	4240      	negs	r0, r0
10006722:	d300      	bcc.n	10006726 <l60_1>
10006724:	3101      	adds	r1, #1

10006726 <l60_1>:
10006726:	0d52      	lsrs	r2, r2, #21
10006728:	d003      	beq.n	10006732 <l60_2>
1000672a:	1c53      	adds	r3, r2, #1
1000672c:	0adb      	lsrs	r3, r3, #11
1000672e:	d007      	beq.n	10006740 <l60_3>
10006730:	1b12      	subs	r2, r2, r4

10006732 <l60_2>:
10006732:	2000      	movs	r0, #0
10006734:	0064      	lsls	r4, r4, #1
10006736:	1c61      	adds	r1, r4, #1
10006738:	0789      	lsls	r1, r1, #30
1000673a:	1289      	asrs	r1, r1, #10
1000673c:	3a80      	subs	r2, #128	; 0x80
1000673e:	0312      	lsls	r2, r2, #12

10006740 <l60_3>:
10006740:	4b01      	ldr	r3, [pc, #4]	; (10006748 <l60_3+0x8>)
10006742:	1ad2      	subs	r2, r2, r3
10006744:	4770      	bx	lr
10006746:	0000      	.short	0x0000
10006748:	000003ff 	.word	0x000003ff

1000674c <__wrap___aeabi_lmul>:
1000674c:	4351      	muls	r1, r2
1000674e:	4343      	muls	r3, r0
10006750:	18c9      	adds	r1, r1, r3
10006752:	468c      	mov	ip, r1
10006754:	0c11      	lsrs	r1, r2, #16
10006756:	b283      	uxth	r3, r0
10006758:	434b      	muls	r3, r1
1000675a:	b410      	push	{r4}
1000675c:	0c04      	lsrs	r4, r0, #16
1000675e:	4361      	muls	r1, r4
10006760:	b292      	uxth	r2, r2
10006762:	b280      	uxth	r0, r0
10006764:	4350      	muls	r0, r2
10006766:	4362      	muls	r2, r4
10006768:	041c      	lsls	r4, r3, #16
1000676a:	0c1b      	lsrs	r3, r3, #16
1000676c:	1900      	adds	r0, r0, r4
1000676e:	bc10      	pop	{r4}
10006770:	4159      	adcs	r1, r3
10006772:	0413      	lsls	r3, r2, #16
10006774:	0c12      	lsrs	r2, r2, #16
10006776:	18c0      	adds	r0, r0, r3
10006778:	4151      	adcs	r1, r2
1000677a:	4461      	add	r1, ip
1000677c:	4770      	bx	lr
	...

10006780 <__aeabi_float_init>:
10006780:	2313      	movs	r3, #19
10006782:	b510      	push	{r4, lr}
10006784:	4812      	ldr	r0, [pc, #72]	; (100067d0 <__aeabi_float_init+0x50>)
10006786:	781c      	ldrb	r4, [r3, #0]
10006788:	f7ff f934 	bl	100059f4 <rom_data_lookup>
1000678c:	0001      	movs	r1, r0
1000678e:	2c01      	cmp	r4, #1
10006790:	d00a      	beq.n	100067a8 <__aeabi_float_init+0x28>
10006792:	dd03      	ble.n	1000679c <__aeabi_float_init+0x1c>
10006794:	2280      	movs	r2, #128	; 0x80
10006796:	480f      	ldr	r0, [pc, #60]	; (100067d4 <__aeabi_float_init+0x54>)
10006798:	f000 f850 	bl	1000683c <__wrap___aeabi_memcpy>
1000679c:	480e      	ldr	r0, [pc, #56]	; (100067d8 <__aeabi_float_init+0x58>)
1000679e:	f7ff f921 	bl	100059e4 <rom_func_lookup>
100067a2:	4b0e      	ldr	r3, [pc, #56]	; (100067dc <__aeabi_float_init+0x5c>)
100067a4:	6018      	str	r0, [r3, #0]
100067a6:	bd10      	pop	{r4, pc}
100067a8:	4c0a      	ldr	r4, [pc, #40]	; (100067d4 <__aeabi_float_init+0x54>)
100067aa:	2254      	movs	r2, #84	; 0x54
100067ac:	0020      	movs	r0, r4
100067ae:	f000 f845 	bl	1000683c <__wrap___aeabi_memcpy>
100067b2:	4b0b      	ldr	r3, [pc, #44]	; (100067e0 <__aeabi_float_init+0x60>)
100067b4:	6563      	str	r3, [r4, #84]	; 0x54
100067b6:	65a3      	str	r3, [r4, #88]	; 0x58
100067b8:	65e3      	str	r3, [r4, #92]	; 0x5c
100067ba:	6623      	str	r3, [r4, #96]	; 0x60
100067bc:	6663      	str	r3, [r4, #100]	; 0x64
100067be:	66a3      	str	r3, [r4, #104]	; 0x68
100067c0:	66e3      	str	r3, [r4, #108]	; 0x6c
100067c2:	6723      	str	r3, [r4, #112]	; 0x70
100067c4:	6763      	str	r3, [r4, #116]	; 0x74
100067c6:	67a3      	str	r3, [r4, #120]	; 0x78
100067c8:	67e3      	str	r3, [r4, #124]	; 0x7c
100067ca:	6223      	str	r3, [r4, #32]
100067cc:	61e3      	str	r3, [r4, #28]
100067ce:	e7e5      	b.n	1000679c <__aeabi_float_init+0x1c>
100067d0:	00004653 	.word	0x00004653
100067d4:	20001f58 	.word	0x20001f58
100067d8:	0000334c 	.word	0x0000334c
100067dc:	20002058 	.word	0x20002058
100067e0:	100067e5 	.word	0x100067e5

100067e4 <float_table_shim_on_use_helper>:
100067e4:	b507      	push	{r0, r1, r2, lr}
100067e6:	4660      	mov	r0, ip
100067e8:	8801      	ldrh	r1, [r0, #0]
100067ea:	0a0a      	lsrs	r2, r1, #8
100067ec:	3002      	adds	r0, #2
100067ee:	2adf      	cmp	r2, #223	; 0xdf
100067f0:	d1fa      	bne.n	100067e8 <float_table_shim_on_use_helper+0x4>
100067f2:	b2c9      	uxtb	r1, r1
100067f4:	0882      	lsrs	r2, r0, #2
100067f6:	d304      	bcc.n	10006802 <float_table_shim_on_use_helper+0x1e>
100067f8:	8802      	ldrh	r2, [r0, #0]
100067fa:	8840      	ldrh	r0, [r0, #2]
100067fc:	0400      	lsls	r0, r0, #16
100067fe:	4310      	orrs	r0, r2
10006800:	e000      	b.n	10006804 <float_table_shim_on_use_helper+0x20>
10006802:	6800      	ldr	r0, [r0, #0]
10006804:	4a01      	ldr	r2, [pc, #4]	; (1000680c <float_table_shim_on_use_helper+0x28>)
10006806:	5050      	str	r0, [r2, r1]
10006808:	9003      	str	r0, [sp, #12]
1000680a:	bd07      	pop	{r0, r1, r2, pc}
1000680c:	20001f58 	.word	0x20001f58

10006810 <__wrap_malloc>:
10006810:	b510      	push	{r4, lr}
10006812:	f000 fdcb 	bl	100073ac <malloc>
10006816:	bd10      	pop	{r4, pc}

10006818 <__wrap_calloc>:
10006818:	b510      	push	{r4, lr}
1000681a:	f000 fd7b 	bl	10007314 <calloc>
1000681e:	bd10      	pop	{r4, pc}

10006820 <__aeabi_mem_init>:
10006820:	4801      	ldr	r0, [pc, #4]	; (10006828 <__aeabi_mem_init+0x8>)
10006822:	2104      	movs	r1, #4
10006824:	4b01      	ldr	r3, [pc, #4]	; (1000682c <__aeabi_mem_init+0xc>)
10006826:	4718      	bx	r3
10006828:	20000380 	.word	0x20000380
1000682c:	10005a05 	.word	0x10005a05

10006830 <__wrap_memset>:
10006830:	4b01      	ldr	r3, [pc, #4]	; (10006838 <__wrap_memset+0x8>)
10006832:	681b      	ldr	r3, [r3, #0]
10006834:	4718      	bx	r3
10006836:	0000      	.short	0x0000
10006838:	20000380 	.word	0x20000380

1000683c <__wrap___aeabi_memcpy>:
1000683c:	4b01      	ldr	r3, [pc, #4]	; (10006844 <__wrap___aeabi_memcpy+0x8>)
1000683e:	685b      	ldr	r3, [r3, #4]
10006840:	4718      	bx	r3
10006842:	0000      	.short	0x0000
10006844:	20000380 	.word	0x20000380

10006848 <core1_trampoline>:
10006848:	bd03      	pop	{r0, r1, pc}
1000684a:	46c0      	nop			; (mov r8, r8)

1000684c <core1_wrapper>:
1000684c:	b510      	push	{r4, lr}
1000684e:	0004      	movs	r4, r0
10006850:	f7fd fdd2 	bl	100043f8 <irq_init_priorities>
10006854:	47a0      	blx	r4
10006856:	bd10      	pop	{r4, pc}

10006858 <multicore_launch_core1>:
10006858:	b530      	push	{r4, r5, lr}
1000685a:	4a21      	ldr	r2, [pc, #132]	; (100068e0 <multicore_launch_core1+0x88>)
1000685c:	4b21      	ldr	r3, [pc, #132]	; (100068e4 <multicore_launch_core1+0x8c>)
1000685e:	b087      	sub	sp, #28
10006860:	429a      	cmp	r2, r3
10006862:	d201      	bcs.n	10006868 <multicore_launch_core1+0x10>
10006864:	2201      	movs	r2, #1
10006866:	4252      	negs	r2, r2
10006868:	0013      	movs	r3, r2
1000686a:	491f      	ldr	r1, [pc, #124]	; (100068e8 <multicore_launch_core1+0x90>)
1000686c:	2402      	movs	r4, #2
1000686e:	5050      	str	r0, [r2, r1]
10006870:	3104      	adds	r1, #4
10006872:	5052      	str	r2, [r2, r1]
10006874:	4a1d      	ldr	r2, [pc, #116]	; (100068ec <multicore_launch_core1+0x94>)
10006876:	491e      	ldr	r1, [pc, #120]	; (100068f0 <multicore_launch_core1+0x98>)
10006878:	2000      	movs	r0, #0
1000687a:	5099      	str	r1, [r3, r2]
1000687c:	4a1d      	ldr	r2, [pc, #116]	; (100068f4 <multicore_launch_core1+0x9c>)
1000687e:	2100      	movs	r1, #0
10006880:	6892      	ldr	r2, [r2, #8]
10006882:	9000      	str	r0, [sp, #0]
10006884:	9101      	str	r1, [sp, #4]
10006886:	9203      	str	r2, [sp, #12]
10006888:	4a17      	ldr	r2, [pc, #92]	; (100068e8 <multicore_launch_core1+0x90>)
1000688a:	2101      	movs	r1, #1
1000688c:	4694      	mov	ip, r2
1000688e:	4463      	add	r3, ip
10006890:	9304      	str	r3, [sp, #16]
10006892:	4b19      	ldr	r3, [pc, #100]	; (100068f8 <multicore_launch_core1+0xa0>)
10006894:	2200      	movs	r2, #0
10006896:	9305      	str	r3, [sp, #20]
10006898:	23d0      	movs	r3, #208	; 0xd0
1000689a:	9102      	str	r1, [sp, #8]
1000689c:	061b      	lsls	r3, r3, #24
1000689e:	2800      	cmp	r0, #0
100068a0:	d014      	beq.n	100068cc <multicore_launch_core1+0x74>
100068a2:	6d1d      	ldr	r5, [r3, #80]	; 0x50
100068a4:	422c      	tst	r4, r5
100068a6:	d0fc      	beq.n	100068a2 <multicore_launch_core1+0x4a>
100068a8:	6558      	str	r0, [r3, #84]	; 0x54
100068aa:	bf40      	sev
100068ac:	6d1d      	ldr	r5, [r3, #80]	; 0x50
100068ae:	4229      	tst	r1, r5
100068b0:	d103      	bne.n	100068ba <multicore_launch_core1+0x62>
100068b2:	bf20      	wfe
100068b4:	6d1d      	ldr	r5, [r3, #80]	; 0x50
100068b6:	4229      	tst	r1, r5
100068b8:	d0fb      	beq.n	100068b2 <multicore_launch_core1+0x5a>
100068ba:	6d9d      	ldr	r5, [r3, #88]	; 0x58
100068bc:	4285      	cmp	r5, r0
100068be:	d00a      	beq.n	100068d6 <multicore_launch_core1+0x7e>
100068c0:	2200      	movs	r2, #0
100068c2:	466d      	mov	r5, sp
100068c4:	0090      	lsls	r0, r2, #2
100068c6:	5828      	ldr	r0, [r5, r0]
100068c8:	e7e9      	b.n	1000689e <multicore_launch_core1+0x46>
100068ca:	6d9d      	ldr	r5, [r3, #88]	; 0x58
100068cc:	6d1d      	ldr	r5, [r3, #80]	; 0x50
100068ce:	4229      	tst	r1, r5
100068d0:	d1fb      	bne.n	100068ca <multicore_launch_core1+0x72>
100068d2:	bf40      	sev
100068d4:	e7e5      	b.n	100068a2 <multicore_launch_core1+0x4a>
100068d6:	3201      	adds	r2, #1
100068d8:	2a05      	cmp	r2, #5
100068da:	d9f2      	bls.n	100068c2 <multicore_launch_core1+0x6a>
100068dc:	b007      	add	sp, #28
100068de:	bd30      	pop	{r4, r5, pc}
100068e0:	20040800 	.word	0x20040800
100068e4:	20040000 	.word	0x20040000
100068e8:	000007f4 	.word	0x000007f4
100068ec:	000007fc 	.word	0x000007fc
100068f0:	1000684d 	.word	0x1000684d
100068f4:	e000ed00 	.word	0xe000ed00
100068f8:	10006849 	.word	0x10006849

100068fc <_ZN7arduino5Print17availableForWriteEv>:
100068fc:	2000      	movs	r0, #0
100068fe:	4770      	bx	lr

10006900 <_ZN7arduino5Print5writeEPKhj>:
10006900:	b5f8      	push	{r3, r4, r5, r6, r7, lr}
10006902:	0005      	movs	r5, r0
10006904:	000f      	movs	r7, r1
10006906:	0016      	movs	r6, r2
10006908:	2400      	movs	r4, #0
1000690a:	2a00      	cmp	r2, #0
1000690c:	d103      	bne.n	10006916 <_ZN7arduino5Print5writeEPKhj+0x16>
1000690e:	e009      	b.n	10006924 <_ZN7arduino5Print5writeEPKhj+0x24>
10006910:	3401      	adds	r4, #1
10006912:	42a6      	cmp	r6, r4
10006914:	d006      	beq.n	10006924 <_ZN7arduino5Print5writeEPKhj+0x24>
10006916:	682b      	ldr	r3, [r5, #0]
10006918:	0028      	movs	r0, r5
1000691a:	5d39      	ldrb	r1, [r7, r4]
1000691c:	681b      	ldr	r3, [r3, #0]
1000691e:	4798      	blx	r3
10006920:	2800      	cmp	r0, #0
10006922:	d1f5      	bne.n	10006910 <_ZN7arduino5Print5writeEPKhj+0x10>
10006924:	0020      	movs	r0, r4
10006926:	bdf8      	pop	{r3, r4, r5, r6, r7, pc}

10006928 <_ZN7arduino5Print5printEPKc>:
10006928:	b5f0      	push	{r4, r5, r6, r7, lr}
1000692a:	46c6      	mov	lr, r8
1000692c:	0005      	movs	r5, r0
1000692e:	000e      	movs	r6, r1
10006930:	b500      	push	{lr}
10006932:	2900      	cmp	r1, #0
10006934:	d01a      	beq.n	1000696c <_ZN7arduino5Print5printEPKc+0x44>
10006936:	6807      	ldr	r7, [r0, #0]
10006938:	0008      	movs	r0, r1
1000693a:	f001 f823 	bl	10007984 <strlen>
1000693e:	687c      	ldr	r4, [r7, #4]
10006940:	4b0e      	ldr	r3, [pc, #56]	; (1000697c <_ZN7arduino5Print5printEPKc+0x54>)
10006942:	4680      	mov	r8, r0
10006944:	429c      	cmp	r4, r3
10006946:	d113      	bne.n	10006970 <_ZN7arduino5Print5printEPKc+0x48>
10006948:	2400      	movs	r4, #0
1000694a:	2800      	cmp	r0, #0
1000694c:	d104      	bne.n	10006958 <_ZN7arduino5Print5printEPKc+0x30>
1000694e:	e009      	b.n	10006964 <_ZN7arduino5Print5printEPKc+0x3c>
10006950:	3401      	adds	r4, #1
10006952:	45a0      	cmp	r8, r4
10006954:	d006      	beq.n	10006964 <_ZN7arduino5Print5printEPKc+0x3c>
10006956:	682f      	ldr	r7, [r5, #0]
10006958:	0028      	movs	r0, r5
1000695a:	5d31      	ldrb	r1, [r6, r4]
1000695c:	683b      	ldr	r3, [r7, #0]
1000695e:	4798      	blx	r3
10006960:	2800      	cmp	r0, #0
10006962:	d1f5      	bne.n	10006950 <_ZN7arduino5Print5printEPKc+0x28>
10006964:	0020      	movs	r0, r4
10006966:	bc04      	pop	{r2}
10006968:	4690      	mov	r8, r2
1000696a:	bdf0      	pop	{r4, r5, r6, r7, pc}
1000696c:	2400      	movs	r4, #0
1000696e:	e7f9      	b.n	10006964 <_ZN7arduino5Print5printEPKc+0x3c>
10006970:	0002      	movs	r2, r0
10006972:	0031      	movs	r1, r6
10006974:	0028      	movs	r0, r5
10006976:	47a0      	blx	r4
10006978:	0004      	movs	r4, r0
1000697a:	e7f3      	b.n	10006964 <_ZN7arduino5Print5printEPKc+0x3c>
1000697c:	10006901 	.word	0x10006901

10006980 <_ZN7arduino5Print7printlnEv>:
10006980:	6803      	ldr	r3, [r0, #0]
10006982:	b570      	push	{r4, r5, r6, lr}
10006984:	4a0b      	ldr	r2, [pc, #44]	; (100069b4 <_ZN7arduino5Print7printlnEv+0x34>)
10006986:	685d      	ldr	r5, [r3, #4]
10006988:	0004      	movs	r4, r0
1000698a:	4295      	cmp	r5, r2
1000698c:	d10d      	bne.n	100069aa <_ZN7arduino5Print7printlnEv+0x2a>
1000698e:	210d      	movs	r1, #13
10006990:	681b      	ldr	r3, [r3, #0]
10006992:	4798      	blx	r3
10006994:	2800      	cmp	r0, #0
10006996:	d007      	beq.n	100069a8 <_ZN7arduino5Print7printlnEv+0x28>
10006998:	6823      	ldr	r3, [r4, #0]
1000699a:	210a      	movs	r1, #10
1000699c:	681b      	ldr	r3, [r3, #0]
1000699e:	0020      	movs	r0, r4
100069a0:	4798      	blx	r3
100069a2:	1e43      	subs	r3, r0, #1
100069a4:	4198      	sbcs	r0, r3
100069a6:	3001      	adds	r0, #1
100069a8:	bd70      	pop	{r4, r5, r6, pc}
100069aa:	2202      	movs	r2, #2
100069ac:	4902      	ldr	r1, [pc, #8]	; (100069b8 <_ZN7arduino5Print7printlnEv+0x38>)
100069ae:	47a8      	blx	r5
100069b0:	e7fa      	b.n	100069a8 <_ZN7arduino5Print7printlnEv+0x28>
100069b2:	46c0      	nop			; (mov r8, r8)
100069b4:	10006901 	.word	0x10006901
100069b8:	10008b24 	.word	0x10008b24

100069bc <_ZN7arduino5Print11printNumberEmh>:
100069bc:	b5f0      	push	{r4, r5, r6, r7, lr}
100069be:	4647      	mov	r7, r8
100069c0:	46ce      	mov	lr, r9
100069c2:	000d      	movs	r5, r1
100069c4:	2320      	movs	r3, #32
100069c6:	2100      	movs	r1, #0
100069c8:	b580      	push	{r7, lr}
100069ca:	b08b      	sub	sp, #44	; 0x2c
100069cc:	0016      	movs	r6, r2
100069ce:	aa01      	add	r2, sp, #4
100069d0:	0007      	movs	r7, r0
100069d2:	54d1      	strb	r1, [r2, r3]
100069d4:	2e01      	cmp	r6, #1
100069d6:	d935      	bls.n	10006a44 <_ZN7arduino5Print11printNumberEmh+0x88>
100069d8:	ac09      	add	r4, sp, #36	; 0x24
100069da:	e005      	b.n	100069e8 <_ZN7arduino5Print11printNumberEmh+0x2c>
100069dc:	3330      	adds	r3, #48	; 0x30
100069de:	b2db      	uxtb	r3, r3
100069e0:	3c01      	subs	r4, #1
100069e2:	7023      	strb	r3, [r4, #0]
100069e4:	4296      	cmp	r6, r2
100069e6:	d80e      	bhi.n	10006a06 <_ZN7arduino5Print11printNumberEmh+0x4a>
100069e8:	0028      	movs	r0, r5
100069ea:	0031      	movs	r1, r6
100069ec:	f7ff f854 	bl	10005a98 <__wrap___aeabi_uidiv>
100069f0:	002a      	movs	r2, r5
100069f2:	b2cb      	uxtb	r3, r1
100069f4:	0005      	movs	r5, r0
100069f6:	2909      	cmp	r1, #9
100069f8:	d9f0      	bls.n	100069dc <_ZN7arduino5Print11printNumberEmh+0x20>
100069fa:	3337      	adds	r3, #55	; 0x37
100069fc:	b2db      	uxtb	r3, r3
100069fe:	3c01      	subs	r4, #1
10006a00:	7023      	strb	r3, [r4, #0]
10006a02:	4296      	cmp	r6, r2
10006a04:	d9f0      	bls.n	100069e8 <_ZN7arduino5Print11printNumberEmh+0x2c>
10006a06:	0020      	movs	r0, r4
10006a08:	f000 ffbc 	bl	10007984 <strlen>
10006a0c:	683e      	ldr	r6, [r7, #0]
10006a0e:	4b11      	ldr	r3, [pc, #68]	; (10006a54 <_ZN7arduino5Print11printNumberEmh+0x98>)
10006a10:	6875      	ldr	r5, [r6, #4]
10006a12:	4680      	mov	r8, r0
10006a14:	4681      	mov	r9, r0
10006a16:	429d      	cmp	r5, r3
10006a18:	d116      	bne.n	10006a48 <_ZN7arduino5Print11printNumberEmh+0x8c>
10006a1a:	2800      	cmp	r0, #0
10006a1c:	d00c      	beq.n	10006a38 <_ZN7arduino5Print11printNumberEmh+0x7c>
10006a1e:	2500      	movs	r5, #0
10006a20:	e003      	b.n	10006a2a <_ZN7arduino5Print11printNumberEmh+0x6e>
10006a22:	3501      	adds	r5, #1
10006a24:	45a9      	cmp	r9, r5
10006a26:	d007      	beq.n	10006a38 <_ZN7arduino5Print11printNumberEmh+0x7c>
10006a28:	683e      	ldr	r6, [r7, #0]
10006a2a:	0038      	movs	r0, r7
10006a2c:	5d61      	ldrb	r1, [r4, r5]
10006a2e:	6833      	ldr	r3, [r6, #0]
10006a30:	4798      	blx	r3
10006a32:	2800      	cmp	r0, #0
10006a34:	d1f5      	bne.n	10006a22 <_ZN7arduino5Print11printNumberEmh+0x66>
10006a36:	46a8      	mov	r8, r5
10006a38:	4640      	mov	r0, r8
10006a3a:	b00b      	add	sp, #44	; 0x2c
10006a3c:	bc0c      	pop	{r2, r3}
10006a3e:	4690      	mov	r8, r2
10006a40:	4699      	mov	r9, r3
10006a42:	bdf0      	pop	{r4, r5, r6, r7, pc}
10006a44:	260a      	movs	r6, #10
10006a46:	e7c7      	b.n	100069d8 <_ZN7arduino5Print11printNumberEmh+0x1c>
10006a48:	0002      	movs	r2, r0
10006a4a:	0021      	movs	r1, r4
10006a4c:	0038      	movs	r0, r7
10006a4e:	47a8      	blx	r5
10006a50:	4680      	mov	r8, r0
10006a52:	e7f1      	b.n	10006a38 <_ZN7arduino5Print11printNumberEmh+0x7c>
10006a54:	10006901 	.word	0x10006901

10006a58 <_ZN7arduino5Print5printEli>:
10006a58:	b570      	push	{r4, r5, r6, lr}
10006a5a:	0005      	movs	r5, r0
10006a5c:	000c      	movs	r4, r1
10006a5e:	2a00      	cmp	r2, #0
10006a60:	d104      	bne.n	10006a6c <_ZN7arduino5Print5printEli+0x14>
10006a62:	6803      	ldr	r3, [r0, #0]
10006a64:	b2c9      	uxtb	r1, r1
10006a66:	681b      	ldr	r3, [r3, #0]
10006a68:	4798      	blx	r3
10006a6a:	bd70      	pop	{r4, r5, r6, pc}
10006a6c:	2a0a      	cmp	r2, #10
10006a6e:	d10d      	bne.n	10006a8c <_ZN7arduino5Print5printEli+0x34>
10006a70:	2900      	cmp	r1, #0
10006a72:	da0f      	bge.n	10006a94 <_ZN7arduino5Print5printEli+0x3c>
10006a74:	6803      	ldr	r3, [r0, #0]
10006a76:	212d      	movs	r1, #45	; 0x2d
10006a78:	681b      	ldr	r3, [r3, #0]
10006a7a:	4798      	blx	r3
10006a7c:	220a      	movs	r2, #10
10006a7e:	0006      	movs	r6, r0
10006a80:	4261      	negs	r1, r4
10006a82:	0028      	movs	r0, r5
10006a84:	f7ff ff9a 	bl	100069bc <_ZN7arduino5Print11printNumberEmh>
10006a88:	1980      	adds	r0, r0, r6
10006a8a:	e7ee      	b.n	10006a6a <_ZN7arduino5Print5printEli+0x12>
10006a8c:	b2d2      	uxtb	r2, r2
10006a8e:	f7ff ff95 	bl	100069bc <_ZN7arduino5Print11printNumberEmh>
10006a92:	e7ea      	b.n	10006a6a <_ZN7arduino5Print5printEli+0x12>
10006a94:	220a      	movs	r2, #10
10006a96:	f7ff ff91 	bl	100069bc <_ZN7arduino5Print11printNumberEmh>
10006a9a:	e7e6      	b.n	10006a6a <_ZN7arduino5Print5printEli+0x12>

10006a9c <_ZN7arduino5Print7printlnEli>:
10006a9c:	b570      	push	{r4, r5, r6, lr}
10006a9e:	0004      	movs	r4, r0
10006aa0:	f7ff ffda 	bl	10006a58 <_ZN7arduino5Print5printEli>
10006aa4:	6823      	ldr	r3, [r4, #0]
10006aa6:	4a0e      	ldr	r2, [pc, #56]	; (10006ae0 <_ZN7arduino5Print7printlnEli+0x44>)
10006aa8:	685e      	ldr	r6, [r3, #4]
10006aaa:	0005      	movs	r5, r0
10006aac:	4296      	cmp	r6, r2
10006aae:	d110      	bne.n	10006ad2 <_ZN7arduino5Print7printlnEli+0x36>
10006ab0:	210d      	movs	r1, #13
10006ab2:	0020      	movs	r0, r4
10006ab4:	681b      	ldr	r3, [r3, #0]
10006ab6:	4798      	blx	r3
10006ab8:	2800      	cmp	r0, #0
10006aba:	d008      	beq.n	10006ace <_ZN7arduino5Print7printlnEli+0x32>
10006abc:	6823      	ldr	r3, [r4, #0]
10006abe:	210a      	movs	r1, #10
10006ac0:	681b      	ldr	r3, [r3, #0]
10006ac2:	0020      	movs	r0, r4
10006ac4:	4798      	blx	r3
10006ac6:	1e43      	subs	r3, r0, #1
10006ac8:	4198      	sbcs	r0, r3
10006aca:	1940      	adds	r0, r0, r5
10006acc:	1c45      	adds	r5, r0, #1
10006ace:	0028      	movs	r0, r5
10006ad0:	bd70      	pop	{r4, r5, r6, pc}
10006ad2:	2202      	movs	r2, #2
10006ad4:	0020      	movs	r0, r4
10006ad6:	4903      	ldr	r1, [pc, #12]	; (10006ae4 <_ZN7arduino5Print7printlnEli+0x48>)
10006ad8:	47b0      	blx	r6
10006ada:	182d      	adds	r5, r5, r0
10006adc:	e7f7      	b.n	10006ace <_ZN7arduino5Print7printlnEli+0x32>
10006ade:	46c0      	nop			; (mov r8, r8)
10006ae0:	10006901 	.word	0x10006901
10006ae4:	10008b24 	.word	0x10008b24

10006ae8 <_ZN7arduino13ArduinoLogger9setLoggerERNS_6StreamENS0_8LogLevelE>:
10006ae8:	6041      	str	r1, [r0, #4]
10006aea:	7202      	strb	r2, [r0, #8]
10006aec:	4770      	bx	lr
10006aee:	46c0      	nop			; (mov r8, r8)

10006af0 <_ZN7arduino13ArduinoLogger9isLoggingEv>:
10006af0:	6840      	ldr	r0, [r0, #4]
10006af2:	1e43      	subs	r3, r0, #1
10006af4:	4198      	sbcs	r0, r3
10006af6:	b2c0      	uxtb	r0, r0
10006af8:	4770      	bx	lr
10006afa:	46c0      	nop			; (mov r8, r8)

10006afc <_ZN17PicoDefaultSerial5beginEm>:
10006afc:	2301      	movs	r3, #1
10006afe:	7403      	strb	r3, [r0, #16]
10006b00:	4770      	bx	lr
10006b02:	46c0      	nop			; (mov r8, r8)

10006b04 <_ZN17PicoDefaultSerial5beginEmt>:
10006b04:	2301      	movs	r3, #1
10006b06:	7403      	strb	r3, [r0, #16]
10006b08:	4770      	bx	lr
10006b0a:	46c0      	nop			; (mov r8, r8)

10006b0c <_ZN17PicoDefaultSerial3endEv>:
10006b0c:	2300      	movs	r3, #0
10006b0e:	7403      	strb	r3, [r0, #16]
10006b10:	4770      	bx	lr
10006b12:	46c0      	nop			; (mov r8, r8)

10006b14 <_ZN17PicoDefaultSerialcvbEv>:
10006b14:	7c00      	ldrb	r0, [r0, #16]
10006b16:	4770      	bx	lr

10006b18 <_ZN18PicoHardwareSerial5beginEm>:
10006b18:	b510      	push	{r4, lr}
10006b1a:	6803      	ldr	r3, [r0, #0]
10006b1c:	69db      	ldr	r3, [r3, #28]
10006b1e:	4798      	blx	r3
10006b20:	bd10      	pop	{r4, pc}
10006b22:	46c0      	nop			; (mov r8, r8)

10006b24 <_ZN18PicoHardwareSerial5beginEmt>:
10006b24:	b510      	push	{r4, lr}
10006b26:	6803      	ldr	r3, [r0, #0]
10006b28:	6a1b      	ldr	r3, [r3, #32]
10006b2a:	4798      	blx	r3
10006b2c:	bd10      	pop	{r4, pc}
10006b2e:	46c0      	nop			; (mov r8, r8)

10006b30 <_ZN18PicoHardwareSerial9availableEv>:
10006b30:	2386      	movs	r3, #134	; 0x86
10006b32:	009b      	lsls	r3, r3, #2
10006b34:	58c2      	ldr	r2, [r0, r3]
10006b36:	2a00      	cmp	r2, #0
10006b38:	dd01      	ble.n	10006b3e <_ZN18PicoHardwareSerial9availableEv+0xe>
10006b3a:	58c0      	ldr	r0, [r0, r3]
10006b3c:	4770      	bx	lr
10006b3e:	2387      	movs	r3, #135	; 0x87
10006b40:	009b      	lsls	r3, r3, #2
10006b42:	58c3      	ldr	r3, [r0, r3]
10006b44:	2001      	movs	r0, #1
10006b46:	699b      	ldr	r3, [r3, #24]
10006b48:	091b      	lsrs	r3, r3, #4
10006b4a:	4398      	bics	r0, r3
10006b4c:	e7f6      	b.n	10006b3c <_ZN18PicoHardwareSerial9availableEv+0xc>
10006b4e:	46c0      	nop			; (mov r8, r8)

10006b50 <_ZN18PicoHardwareSerial17availableForWriteEv>:
10006b50:	2387      	movs	r3, #135	; 0x87
10006b52:	009b      	lsls	r3, r3, #2
10006b54:	58c3      	ldr	r3, [r0, r3]
10006b56:	2001      	movs	r0, #1
10006b58:	699b      	ldr	r3, [r3, #24]
10006b5a:	095b      	lsrs	r3, r3, #5
10006b5c:	4398      	bics	r0, r3
10006b5e:	4770      	bx	lr

10006b60 <_ZN18PicoHardwareSerial5writeEh>:
10006b60:	2387      	movs	r3, #135	; 0x87
10006b62:	009b      	lsls	r3, r3, #2
10006b64:	58c2      	ldr	r2, [r0, r3]
10006b66:	4b0b      	ldr	r3, [pc, #44]	; (10006b94 <_ZN18PicoHardwareSerial5writeEh+0x34>)
10006b68:	18d3      	adds	r3, r2, r3
10006b6a:	4258      	negs	r0, r3
10006b6c:	4143      	adcs	r3, r0
10006b6e:	480a      	ldr	r0, [pc, #40]	; (10006b98 <_ZN18PicoHardwareSerial5writeEh+0x38>)
10006b70:	005b      	lsls	r3, r3, #1
10006b72:	5e1b      	ldrsh	r3, [r3, r0]
10006b74:	428b      	cmp	r3, r1
10006b76:	d006      	beq.n	10006b86 <_ZN18PicoHardwareSerial5writeEh+0x26>
10006b78:	2020      	movs	r0, #32
10006b7a:	6993      	ldr	r3, [r2, #24]
10006b7c:	4218      	tst	r0, r3
10006b7e:	d1fc      	bne.n	10006b7a <_ZN18PicoHardwareSerial5writeEh+0x1a>
10006b80:	2001      	movs	r0, #1
10006b82:	6011      	str	r1, [r2, #0]
10006b84:	4770      	bx	lr
10006b86:	2020      	movs	r0, #32
10006b88:	6993      	ldr	r3, [r2, #24]
10006b8a:	4218      	tst	r0, r3
10006b8c:	d1fc      	bne.n	10006b88 <_ZN18PicoHardwareSerial5writeEh+0x28>
10006b8e:	230d      	movs	r3, #13
10006b90:	6013      	str	r3, [r2, #0]
10006b92:	e7f1      	b.n	10006b78 <_ZN18PicoHardwareSerial5writeEh+0x18>
10006b94:	bffc8000 	.word	0xbffc8000
10006b98:	20001e54 	.word	0x20001e54

10006b9c <_ZN18PicoHardwareSerial5writeEPKhj>:
10006b9c:	2387      	movs	r3, #135	; 0x87
10006b9e:	009b      	lsls	r3, r3, #2
10006ba0:	b570      	push	{r4, r5, r6, lr}
10006ba2:	58c4      	ldr	r4, [r0, r3]
10006ba4:	2a00      	cmp	r2, #0
10006ba6:	d00a      	beq.n	10006bbe <_ZN18PicoHardwareSerial5writeEPKhj+0x22>
10006ba8:	000d      	movs	r5, r1
10006baa:	188e      	adds	r6, r1, r2
10006bac:	2120      	movs	r1, #32
10006bae:	69a3      	ldr	r3, [r4, #24]
10006bb0:	4219      	tst	r1, r3
10006bb2:	d1fc      	bne.n	10006bae <_ZN18PicoHardwareSerial5writeEPKhj+0x12>
10006bb4:	782b      	ldrb	r3, [r5, #0]
10006bb6:	3501      	adds	r5, #1
10006bb8:	6023      	str	r3, [r4, #0]
10006bba:	42ae      	cmp	r6, r5
10006bbc:	d1f7      	bne.n	10006bae <_ZN18PicoHardwareSerial5writeEPKhj+0x12>
10006bbe:	0010      	movs	r0, r2
10006bc0:	bd70      	pop	{r4, r5, r6, pc}
10006bc2:	46c0      	nop			; (mov r8, r8)

10006bc4 <_ZN18PicoHardwareSerialcvbEv>:
10006bc4:	238b      	movs	r3, #139	; 0x8b
10006bc6:	009b      	lsls	r3, r3, #2
10006bc8:	5cc0      	ldrb	r0, [r0, r3]
10006bca:	4770      	bx	lr

10006bcc <_ZN18PicoHardwareSerial5flushEv>:
10006bcc:	4770      	bx	lr
10006bce:	46c0      	nop			; (mov r8, r8)

10006bd0 <_ZN17PicoDefaultSerial7printlnEPKc>:
10006bd0:	b510      	push	{r4, lr}
10006bd2:	0008      	movs	r0, r1
10006bd4:	f7f9 feb6 	bl	10000944 <__wrap_printf>
10006bd8:	bd10      	pop	{r4, pc}
10006bda:	46c0      	nop			; (mov r8, r8)

10006bdc <_ZN17PicoDefaultSerial5flushEv>:
10006bdc:	b510      	push	{r4, lr}
10006bde:	f7f9 fe29 	bl	10000834 <stdio_flush>
10006be2:	bd10      	pop	{r4, pc}

10006be4 <_ZN17PicoDefaultSerial5writeEh>:
10006be4:	b510      	push	{r4, lr}
10006be6:	0008      	movs	r0, r1
10006be8:	f7f9 fd82 	bl	100006f0 <__wrap_putchar>
10006bec:	bd10      	pop	{r4, pc}
10006bee:	46c0      	nop			; (mov r8, r8)

10006bf0 <_ZN18PicoHardwareSerial5beginEmmaabbb>:
10006bf0:	b5f0      	push	{r4, r5, r6, r7, lr}
10006bf2:	46c6      	mov	lr, r8
10006bf4:	b500      	push	{lr}
10006bf6:	0006      	movs	r6, r0
10006bf8:	a808      	add	r0, sp, #32
10006bfa:	7805      	ldrb	r5, [r0, #0]
10006bfc:	a809      	add	r0, sp, #36	; 0x24
10006bfe:	7807      	ldrb	r7, [r0, #0]
10006c00:	2087      	movs	r0, #135	; 0x87
10006c02:	0080      	lsls	r0, r0, #2
10006c04:	4680      	mov	r8, r0
10006c06:	0014      	movs	r4, r2
10006c08:	aa06      	add	r2, sp, #24
10006c0a:	7812      	ldrb	r2, [r2, #0]
10006c0c:	5830      	ldr	r0, [r6, r0]
10006c0e:	b252      	sxtb	r2, r2
10006c10:	f7f9 fc58 	bl	100004c4 <stdio_uart_init_full>
10006c14:	4643      	mov	r3, r8
10006c16:	58f3      	ldr	r3, [r6, r3]
10006c18:	03ed      	lsls	r5, r5, #15
10006c1a:	6b1a      	ldr	r2, [r3, #48]	; 0x30
10006c1c:	03bf      	lsls	r7, r7, #14
10006c1e:	433d      	orrs	r5, r7
10006c20:	4055      	eors	r5, r2
10006c22:	22c0      	movs	r2, #192	; 0xc0
10006c24:	0212      	lsls	r2, r2, #8
10006c26:	4015      	ands	r5, r2
10006c28:	0019      	movs	r1, r3
10006c2a:	2280      	movs	r2, #128	; 0x80
10006c2c:	3130      	adds	r1, #48	; 0x30
10006c2e:	0152      	lsls	r2, r2, #5
10006c30:	430a      	orrs	r2, r1
10006c32:	6015      	str	r5, [r2, #0]
10006c34:	22cd      	movs	r2, #205	; 0xcd
10006c36:	0092      	lsls	r2, r2, #2
10006c38:	4294      	cmp	r4, r2
10006c3a:	d22f      	bcs.n	10006c9c <_ZN18PicoHardwareSerial5beginEmmaabbb+0xac>
10006c3c:	3a24      	subs	r2, #36	; 0x24
10006c3e:	4294      	cmp	r4, r2
10006c40:	d823      	bhi.n	10006c8a <_ZN18PicoHardwareSerial5beginEmmaabbb+0x9a>
10006c42:	3add      	subs	r2, #221	; 0xdd
10006c44:	3aff      	subs	r2, #255	; 0xff
10006c46:	4294      	cmp	r4, r2
10006c48:	d314      	bcc.n	10006c74 <_ZN18PicoHardwareSerial5beginEmmaabbb+0x84>
10006c4a:	4a4a      	ldr	r2, [pc, #296]	; (10006d74 <_ZN18PicoHardwareSerial5beginEmmaabbb+0x184>)
10006c4c:	4694      	mov	ip, r2
10006c4e:	4464      	add	r4, ip
10006c50:	2c22      	cmp	r4, #34	; 0x22
10006c52:	d80c      	bhi.n	10006c6e <_ZN18PicoHardwareSerial5beginEmmaabbb+0x7e>
10006c54:	4a48      	ldr	r2, [pc, #288]	; (10006d78 <_ZN18PicoHardwareSerial5beginEmmaabbb+0x188>)
10006c56:	00a4      	lsls	r4, r4, #2
10006c58:	5912      	ldr	r2, [r2, r4]
10006c5a:	4697      	mov	pc, r2
10006c5c:	226e      	movs	r2, #110	; 0x6e
10006c5e:	6ad9      	ldr	r1, [r3, #44]	; 0x2c
10006c60:	438a      	bics	r2, r1
10006c62:	332c      	adds	r3, #44	; 0x2c
10006c64:	0019      	movs	r1, r3
10006c66:	2380      	movs	r3, #128	; 0x80
10006c68:	015b      	lsls	r3, r3, #5
10006c6a:	430b      	orrs	r3, r1
10006c6c:	601a      	str	r2, [r3, #0]
10006c6e:	bc04      	pop	{r2}
10006c70:	4690      	mov	r8, r2
10006c72:	bdf0      	pop	{r4, r5, r6, r7, pc}
10006c74:	3a24      	subs	r2, #36	; 0x24
10006c76:	4294      	cmp	r4, r2
10006c78:	d9f9      	bls.n	10006c6e <_ZN18PicoHardwareSerial5beginEmmaabbb+0x7e>
10006c7a:	3c12      	subs	r4, #18
10006c7c:	3cff      	subs	r4, #255	; 0xff
10006c7e:	2c22      	cmp	r4, #34	; 0x22
10006c80:	d8f5      	bhi.n	10006c6e <_ZN18PicoHardwareSerial5beginEmmaabbb+0x7e>
10006c82:	4a3e      	ldr	r2, [pc, #248]	; (10006d7c <_ZN18PicoHardwareSerial5beginEmmaabbb+0x18c>)
10006c84:	00a4      	lsls	r4, r4, #2
10006c86:	5912      	ldr	r2, [r2, r4]
10006c88:	4697      	mov	pc, r2
10006c8a:	4a3d      	ldr	r2, [pc, #244]	; (10006d80 <_ZN18PicoHardwareSerial5beginEmmaabbb+0x190>)
10006c8c:	4694      	mov	ip, r2
10006c8e:	4464      	add	r4, ip
10006c90:	2c22      	cmp	r4, #34	; 0x22
10006c92:	d8ec      	bhi.n	10006c6e <_ZN18PicoHardwareSerial5beginEmmaabbb+0x7e>
10006c94:	4a3b      	ldr	r2, [pc, #236]	; (10006d84 <_ZN18PicoHardwareSerial5beginEmmaabbb+0x194>)
10006c96:	00a4      	lsls	r4, r4, #2
10006c98:	5912      	ldr	r2, [r2, r4]
10006c9a:	4697      	mov	pc, r2
10006c9c:	4a3a      	ldr	r2, [pc, #232]	; (10006d88 <_ZN18PicoHardwareSerial5beginEmmaabbb+0x198>)
10006c9e:	4694      	mov	ip, r2
10006ca0:	4464      	add	r4, ip
10006ca2:	2c22      	cmp	r4, #34	; 0x22
10006ca4:	d8e3      	bhi.n	10006c6e <_ZN18PicoHardwareSerial5beginEmmaabbb+0x7e>
10006ca6:	4a39      	ldr	r2, [pc, #228]	; (10006d8c <_ZN18PicoHardwareSerial5beginEmmaabbb+0x19c>)
10006ca8:	00a4      	lsls	r4, r4, #2
10006caa:	5912      	ldr	r2, [r2, r4]
10006cac:	4697      	mov	pc, r2
10006cae:	2168      	movs	r1, #104	; 0x68
10006cb0:	6ada      	ldr	r2, [r3, #44]	; 0x2c
10006cb2:	4051      	eors	r1, r2
10006cb4:	e03b      	b.n	10006d2e <_ZN18PicoHardwareSerial5beginEmmaabbb+0x13e>
10006cb6:	226a      	movs	r2, #106	; 0x6a
10006cb8:	6ad9      	ldr	r1, [r3, #44]	; 0x2c
10006cba:	332c      	adds	r3, #44	; 0x2c
10006cbc:	404a      	eors	r2, r1
10006cbe:	216e      	movs	r1, #110	; 0x6e
10006cc0:	4011      	ands	r1, r2
10006cc2:	2280      	movs	r2, #128	; 0x80
10006cc4:	0152      	lsls	r2, r2, #5
10006cc6:	4313      	orrs	r3, r2
10006cc8:	6019      	str	r1, [r3, #0]
10006cca:	e7d0      	b.n	10006c6e <_ZN18PicoHardwareSerial5beginEmmaabbb+0x7e>
10006ccc:	2160      	movs	r1, #96	; 0x60
10006cce:	6ada      	ldr	r2, [r3, #44]	; 0x2c
10006cd0:	4051      	eors	r1, r2
10006cd2:	e02c      	b.n	10006d2e <_ZN18PicoHardwareSerial5beginEmmaabbb+0x13e>
10006cd4:	2162      	movs	r1, #98	; 0x62
10006cd6:	6ada      	ldr	r2, [r3, #44]	; 0x2c
10006cd8:	4051      	eors	r1, r2
10006cda:	e028      	b.n	10006d2e <_ZN18PicoHardwareSerial5beginEmmaabbb+0x13e>
10006cdc:	2166      	movs	r1, #102	; 0x66
10006cde:	6ada      	ldr	r2, [r3, #44]	; 0x2c
10006ce0:	4051      	eors	r1, r2
10006ce2:	e024      	b.n	10006d2e <_ZN18PicoHardwareSerial5beginEmmaabbb+0x13e>
10006ce4:	2148      	movs	r1, #72	; 0x48
10006ce6:	6ada      	ldr	r2, [r3, #44]	; 0x2c
10006ce8:	4051      	eors	r1, r2
10006cea:	e020      	b.n	10006d2e <_ZN18PicoHardwareSerial5beginEmmaabbb+0x13e>
10006cec:	214a      	movs	r1, #74	; 0x4a
10006cee:	6ada      	ldr	r2, [r3, #44]	; 0x2c
10006cf0:	4051      	eors	r1, r2
10006cf2:	e01c      	b.n	10006d2e <_ZN18PicoHardwareSerial5beginEmmaabbb+0x13e>
10006cf4:	214e      	movs	r1, #78	; 0x4e
10006cf6:	6ada      	ldr	r2, [r3, #44]	; 0x2c
10006cf8:	4051      	eors	r1, r2
10006cfa:	e018      	b.n	10006d2e <_ZN18PicoHardwareSerial5beginEmmaabbb+0x13e>
10006cfc:	2140      	movs	r1, #64	; 0x40
10006cfe:	6ada      	ldr	r2, [r3, #44]	; 0x2c
10006d00:	4051      	eors	r1, r2
10006d02:	e014      	b.n	10006d2e <_ZN18PicoHardwareSerial5beginEmmaabbb+0x13e>
10006d04:	2142      	movs	r1, #66	; 0x42
10006d06:	6ada      	ldr	r2, [r3, #44]	; 0x2c
10006d08:	4051      	eors	r1, r2
10006d0a:	e010      	b.n	10006d2e <_ZN18PicoHardwareSerial5beginEmmaabbb+0x13e>
10006d0c:	2146      	movs	r1, #70	; 0x46
10006d0e:	6ada      	ldr	r2, [r3, #44]	; 0x2c
10006d10:	4051      	eors	r1, r2
10006d12:	e00c      	b.n	10006d2e <_ZN18PicoHardwareSerial5beginEmmaabbb+0x13e>
10006d14:	2108      	movs	r1, #8
10006d16:	6ada      	ldr	r2, [r3, #44]	; 0x2c
10006d18:	4051      	eors	r1, r2
10006d1a:	e008      	b.n	10006d2e <_ZN18PicoHardwareSerial5beginEmmaabbb+0x13e>
10006d1c:	210a      	movs	r1, #10
10006d1e:	6ada      	ldr	r2, [r3, #44]	; 0x2c
10006d20:	4051      	eors	r1, r2
10006d22:	e004      	b.n	10006d2e <_ZN18PicoHardwareSerial5beginEmmaabbb+0x13e>
10006d24:	210e      	movs	r1, #14
10006d26:	6ada      	ldr	r2, [r3, #44]	; 0x2c
10006d28:	4051      	eors	r1, r2
10006d2a:	e000      	b.n	10006d2e <_ZN18PicoHardwareSerial5beginEmmaabbb+0x13e>
10006d2c:	6ad9      	ldr	r1, [r3, #44]	; 0x2c
10006d2e:	226e      	movs	r2, #110	; 0x6e
10006d30:	400a      	ands	r2, r1
10006d32:	e796      	b.n	10006c62 <_ZN18PicoHardwareSerial5beginEmmaabbb+0x72>
10006d34:	2102      	movs	r1, #2
10006d36:	6ada      	ldr	r2, [r3, #44]	; 0x2c
10006d38:	4051      	eors	r1, r2
10006d3a:	e7f8      	b.n	10006d2e <_ZN18PicoHardwareSerial5beginEmmaabbb+0x13e>
10006d3c:	2106      	movs	r1, #6
10006d3e:	6ada      	ldr	r2, [r3, #44]	; 0x2c
10006d40:	4051      	eors	r1, r2
10006d42:	e7f4      	b.n	10006d2e <_ZN18PicoHardwareSerial5beginEmmaabbb+0x13e>
10006d44:	2128      	movs	r1, #40	; 0x28
10006d46:	6ada      	ldr	r2, [r3, #44]	; 0x2c
10006d48:	4051      	eors	r1, r2
10006d4a:	e7f0      	b.n	10006d2e <_ZN18PicoHardwareSerial5beginEmmaabbb+0x13e>
10006d4c:	212a      	movs	r1, #42	; 0x2a
10006d4e:	6ada      	ldr	r2, [r3, #44]	; 0x2c
10006d50:	4051      	eors	r1, r2
10006d52:	e7ec      	b.n	10006d2e <_ZN18PicoHardwareSerial5beginEmmaabbb+0x13e>
10006d54:	212e      	movs	r1, #46	; 0x2e
10006d56:	6ada      	ldr	r2, [r3, #44]	; 0x2c
10006d58:	4051      	eors	r1, r2
10006d5a:	e7e8      	b.n	10006d2e <_ZN18PicoHardwareSerial5beginEmmaabbb+0x13e>
10006d5c:	2120      	movs	r1, #32
10006d5e:	6ada      	ldr	r2, [r3, #44]	; 0x2c
10006d60:	4051      	eors	r1, r2
10006d62:	e7e4      	b.n	10006d2e <_ZN18PicoHardwareSerial5beginEmmaabbb+0x13e>
10006d64:	2122      	movs	r1, #34	; 0x22
10006d66:	6ada      	ldr	r2, [r3, #44]	; 0x2c
10006d68:	4051      	eors	r1, r2
10006d6a:	e7e0      	b.n	10006d2e <_ZN18PicoHardwareSerial5beginEmmaabbb+0x13e>
10006d6c:	2126      	movs	r1, #38	; 0x26
10006d6e:	6ada      	ldr	r2, [r3, #44]	; 0x2c
10006d70:	4051      	eors	r1, r2
10006d72:	e7dc      	b.n	10006d2e <_ZN18PicoHardwareSerial5beginEmmaabbb+0x13e>
10006d74:	fffffdef 	.word	0xfffffdef
10006d78:	10008b28 	.word	0x10008b28
10006d7c:	10008bb4 	.word	0x10008bb4
10006d80:	fffffcef 	.word	0xfffffcef
10006d84:	10008c40 	.word	0x10008c40
10006d88:	fffffbef 	.word	0xfffffbef
10006d8c:	10008ccc 	.word	0x10008ccc

10006d90 <_ZN18PicoHardwareSerial3endEv>:
10006d90:	2387      	movs	r3, #135	; 0x87
10006d92:	b510      	push	{r4, lr}
10006d94:	009b      	lsls	r3, r3, #2
10006d96:	58c0      	ldr	r0, [r0, r3]
10006d98:	f7fe fb9e 	bl	100054d8 <uart_deinit>
10006d9c:	bd10      	pop	{r4, pc}
10006d9e:	46c0      	nop			; (mov r8, r8)

10006da0 <_ZN7arduino13ArduinoLogger3logENS0_8LogLevelEPKcS3_S3_>:
10006da0:	b570      	push	{r4, r5, r6, lr}
10006da2:	0004      	movs	r4, r0
10006da4:	6840      	ldr	r0, [r0, #4]
10006da6:	001d      	movs	r5, r3
10006da8:	2800      	cmp	r0, #0
10006daa:	d002      	beq.n	10006db2 <_ZN7arduino13ArduinoLogger3logENS0_8LogLevelEPKcS3_S3_+0x12>
10006dac:	7a23      	ldrb	r3, [r4, #8]
10006dae:	428b      	cmp	r3, r1
10006db0:	d900      	bls.n	10006db4 <_ZN7arduino13ArduinoLogger3logENS0_8LogLevelEPKcS3_S3_+0x14>
10006db2:	bd70      	pop	{r4, r5, r6, pc}
10006db4:	0011      	movs	r1, r2
10006db6:	f7ff fdb7 	bl	10006928 <_ZN7arduino5Print5printEPKc>
10006dba:	2d00      	cmp	r5, #0
10006dbc:	d007      	beq.n	10006dce <_ZN7arduino13ArduinoLogger3logENS0_8LogLevelEPKcS3_S3_+0x2e>
10006dbe:	490d      	ldr	r1, [pc, #52]	; (10006df4 <_ZN7arduino13ArduinoLogger3logENS0_8LogLevelEPKcS3_S3_+0x54>)
10006dc0:	6860      	ldr	r0, [r4, #4]
10006dc2:	f7ff fdb1 	bl	10006928 <_ZN7arduino5Print5printEPKc>
10006dc6:	0029      	movs	r1, r5
10006dc8:	6860      	ldr	r0, [r4, #4]
10006dca:	f7ff fdad 	bl	10006928 <_ZN7arduino5Print5printEPKc>
10006dce:	9b04      	ldr	r3, [sp, #16]
10006dd0:	2b00      	cmp	r3, #0
10006dd2:	d007      	beq.n	10006de4 <_ZN7arduino13ArduinoLogger3logENS0_8LogLevelEPKcS3_S3_+0x44>
10006dd4:	4907      	ldr	r1, [pc, #28]	; (10006df4 <_ZN7arduino13ArduinoLogger3logENS0_8LogLevelEPKcS3_S3_+0x54>)
10006dd6:	6860      	ldr	r0, [r4, #4]
10006dd8:	f7ff fda6 	bl	10006928 <_ZN7arduino5Print5printEPKc>
10006ddc:	9904      	ldr	r1, [sp, #16]
10006dde:	6860      	ldr	r0, [r4, #4]
10006de0:	f7ff fda2 	bl	10006928 <_ZN7arduino5Print5printEPKc>
10006de4:	6860      	ldr	r0, [r4, #4]
10006de6:	f7ff fdcb 	bl	10006980 <_ZN7arduino5Print7printlnEv>
10006dea:	6860      	ldr	r0, [r4, #4]
10006dec:	6803      	ldr	r3, [r0, #0]
10006dee:	68db      	ldr	r3, [r3, #12]
10006df0:	4798      	blx	r3
10006df2:	e7de      	b.n	10006db2 <_ZN7arduino13ArduinoLogger3logENS0_8LogLevelEPKcS3_S3_+0x12>
10006df4:	10008d58 	.word	0x10008d58

10006df8 <_ZN18PicoHardwareSerial4readEv>:
10006df8:	2386      	movs	r3, #134	; 0x86
10006dfa:	009b      	lsls	r3, r3, #2
10006dfc:	58c3      	ldr	r3, [r0, r3]
10006dfe:	b530      	push	{r4, r5, lr}
10006e00:	2b00      	cmp	r3, #0
10006e02:	d123      	bne.n	10006e4c <_ZN18PicoHardwareSerial4readEv+0x54>
10006e04:	2387      	movs	r3, #135	; 0x87
10006e06:	2110      	movs	r1, #16
10006e08:	009b      	lsls	r3, r3, #2
10006e0a:	58c3      	ldr	r3, [r0, r3]
10006e0c:	699a      	ldr	r2, [r3, #24]
10006e0e:	4211      	tst	r1, r2
10006e10:	d1fc      	bne.n	10006e0c <_ZN18PicoHardwareSerial4readEv+0x14>
10006e12:	2286      	movs	r2, #134	; 0x86
10006e14:	2580      	movs	r5, #128	; 0x80
10006e16:	2184      	movs	r1, #132	; 0x84
10006e18:	681c      	ldr	r4, [r3, #0]
10006e1a:	0092      	lsls	r2, r2, #2
10006e1c:	b2e4      	uxtb	r4, r4
10006e1e:	00ad      	lsls	r5, r5, #2
10006e20:	0089      	lsls	r1, r1, #2
10006e22:	e00d      	b.n	10006e40 <_ZN18PicoHardwareSerial4readEv+0x48>
10006e24:	5883      	ldr	r3, [r0, r2]
10006e26:	42ab      	cmp	r3, r5
10006e28:	d00c      	beq.n	10006e44 <_ZN18PicoHardwareSerial4readEv+0x4c>
10006e2a:	5843      	ldr	r3, [r0, r1]
10006e2c:	18c3      	adds	r3, r0, r3
10006e2e:	741c      	strb	r4, [r3, #16]
10006e30:	5843      	ldr	r3, [r0, r1]
10006e32:	3301      	adds	r3, #1
10006e34:	05db      	lsls	r3, r3, #23
10006e36:	0ddb      	lsrs	r3, r3, #23
10006e38:	5043      	str	r3, [r0, r1]
10006e3a:	5883      	ldr	r3, [r0, r2]
10006e3c:	3301      	adds	r3, #1
10006e3e:	5083      	str	r3, [r0, r2]
10006e40:	2c00      	cmp	r4, #0
10006e42:	d003      	beq.n	10006e4c <_ZN18PicoHardwareSerial4readEv+0x54>
10006e44:	5883      	ldr	r3, [r0, r2]
10006e46:	1aeb      	subs	r3, r5, r3
10006e48:	2b00      	cmp	r3, #0
10006e4a:	dceb      	bgt.n	10006e24 <_ZN18PicoHardwareSerial4readEv+0x2c>
10006e4c:	2286      	movs	r2, #134	; 0x86
10006e4e:	0092      	lsls	r2, r2, #2
10006e50:	5883      	ldr	r3, [r0, r2]
10006e52:	2b00      	cmp	r3, #0
10006e54:	d00e      	beq.n	10006e74 <_ZN18PicoHardwareSerial4readEv+0x7c>
10006e56:	2485      	movs	r4, #133	; 0x85
10006e58:	00a4      	lsls	r4, r4, #2
10006e5a:	5903      	ldr	r3, [r0, r4]
10006e5c:	18c3      	adds	r3, r0, r3
10006e5e:	7c19      	ldrb	r1, [r3, #16]
10006e60:	5903      	ldr	r3, [r0, r4]
10006e62:	3301      	adds	r3, #1
10006e64:	05db      	lsls	r3, r3, #23
10006e66:	0ddb      	lsrs	r3, r3, #23
10006e68:	5103      	str	r3, [r0, r4]
10006e6a:	5883      	ldr	r3, [r0, r2]
10006e6c:	3b01      	subs	r3, #1
10006e6e:	5083      	str	r3, [r0, r2]
10006e70:	0008      	movs	r0, r1
10006e72:	bd30      	pop	{r4, r5, pc}
10006e74:	2001      	movs	r0, #1
10006e76:	4240      	negs	r0, r0
10006e78:	e7fb      	b.n	10006e72 <_ZN18PicoHardwareSerial4readEv+0x7a>
10006e7a:	46c0      	nop			; (mov r8, r8)

10006e7c <_ZN17PicoDefaultSerial4readEv>:
10006e7c:	b570      	push	{r4, r5, r6, lr}
10006e7e:	2587      	movs	r5, #135	; 0x87
10006e80:	00ad      	lsls	r5, r5, #2
10006e82:	5943      	ldr	r3, [r0, r5]
10006e84:	0004      	movs	r4, r0
10006e86:	2b00      	cmp	r3, #0
10006e88:	d012      	beq.n	10006eb0 <_ZN17PicoDefaultSerial4readEv+0x34>
10006e8a:	2287      	movs	r2, #135	; 0x87
10006e8c:	0092      	lsls	r2, r2, #2
10006e8e:	58a3      	ldr	r3, [r4, r2]
10006e90:	2b00      	cmp	r3, #0
10006e92:	d02b      	beq.n	10006eec <_ZN17PicoDefaultSerial4readEv+0x70>
10006e94:	2186      	movs	r1, #134	; 0x86
10006e96:	0089      	lsls	r1, r1, #2
10006e98:	5863      	ldr	r3, [r4, r1]
10006e9a:	18e3      	adds	r3, r4, r3
10006e9c:	7d18      	ldrb	r0, [r3, #20]
10006e9e:	5863      	ldr	r3, [r4, r1]
10006ea0:	3301      	adds	r3, #1
10006ea2:	05db      	lsls	r3, r3, #23
10006ea4:	0ddb      	lsrs	r3, r3, #23
10006ea6:	5063      	str	r3, [r4, r1]
10006ea8:	58a3      	ldr	r3, [r4, r2]
10006eaa:	3b01      	subs	r3, #1
10006eac:	50a3      	str	r3, [r4, r2]
10006eae:	bd70      	pop	{r4, r5, r6, pc}
10006eb0:	f000 fa6a 	bl	10007388 <getchar>
10006eb4:	2185      	movs	r1, #133	; 0x85
10006eb6:	002a      	movs	r2, r5
10006eb8:	b2c0      	uxtb	r0, r0
10006eba:	3d1c      	subs	r5, #28
10006ebc:	0089      	lsls	r1, r1, #2
10006ebe:	58a3      	ldr	r3, [r4, r2]
10006ec0:	1aeb      	subs	r3, r5, r3
10006ec2:	2b00      	cmp	r3, #0
10006ec4:	dde1      	ble.n	10006e8a <_ZN17PicoDefaultSerial4readEv+0xe>
10006ec6:	58a3      	ldr	r3, [r4, r2]
10006ec8:	42ab      	cmp	r3, r5
10006eca:	d0f8      	beq.n	10006ebe <_ZN17PicoDefaultSerial4readEv+0x42>
10006ecc:	5863      	ldr	r3, [r4, r1]
10006ece:	18e3      	adds	r3, r4, r3
10006ed0:	7518      	strb	r0, [r3, #20]
10006ed2:	5863      	ldr	r3, [r4, r1]
10006ed4:	3301      	adds	r3, #1
10006ed6:	05db      	lsls	r3, r3, #23
10006ed8:	0ddb      	lsrs	r3, r3, #23
10006eda:	5063      	str	r3, [r4, r1]
10006edc:	58a3      	ldr	r3, [r4, r2]
10006ede:	3301      	adds	r3, #1
10006ee0:	50a3      	str	r3, [r4, r2]
10006ee2:	58a3      	ldr	r3, [r4, r2]
10006ee4:	1aeb      	subs	r3, r5, r3
10006ee6:	2b00      	cmp	r3, #0
10006ee8:	dced      	bgt.n	10006ec6 <_ZN17PicoDefaultSerial4readEv+0x4a>
10006eea:	e7ce      	b.n	10006e8a <_ZN17PicoDefaultSerial4readEv+0xe>
10006eec:	2001      	movs	r0, #1
10006eee:	4240      	negs	r0, r0
10006ef0:	e7dd      	b.n	10006eae <_ZN17PicoDefaultSerial4readEv+0x32>
10006ef2:	46c0      	nop			; (mov r8, r8)

10006ef4 <_ZN18PicoHardwareSerial4peekEv>:
10006ef4:	2386      	movs	r3, #134	; 0x86
10006ef6:	009b      	lsls	r3, r3, #2
10006ef8:	58c3      	ldr	r3, [r0, r3]
10006efa:	b530      	push	{r4, r5, lr}
10006efc:	2b00      	cmp	r3, #0
10006efe:	d123      	bne.n	10006f48 <_ZN18PicoHardwareSerial4peekEv+0x54>
10006f00:	2387      	movs	r3, #135	; 0x87
10006f02:	2110      	movs	r1, #16
10006f04:	009b      	lsls	r3, r3, #2
10006f06:	58c3      	ldr	r3, [r0, r3]
10006f08:	699a      	ldr	r2, [r3, #24]
10006f0a:	4211      	tst	r1, r2
10006f0c:	d1fc      	bne.n	10006f08 <_ZN18PicoHardwareSerial4peekEv+0x14>
10006f0e:	2286      	movs	r2, #134	; 0x86
10006f10:	2580      	movs	r5, #128	; 0x80
10006f12:	2184      	movs	r1, #132	; 0x84
10006f14:	681c      	ldr	r4, [r3, #0]
10006f16:	0092      	lsls	r2, r2, #2
10006f18:	b2e4      	uxtb	r4, r4
10006f1a:	00ad      	lsls	r5, r5, #2
10006f1c:	0089      	lsls	r1, r1, #2
10006f1e:	e00d      	b.n	10006f3c <_ZN18PicoHardwareSerial4peekEv+0x48>
10006f20:	5883      	ldr	r3, [r0, r2]
10006f22:	42ab      	cmp	r3, r5
10006f24:	d00c      	beq.n	10006f40 <_ZN18PicoHardwareSerial4peekEv+0x4c>
10006f26:	5843      	ldr	r3, [r0, r1]
10006f28:	18c3      	adds	r3, r0, r3
10006f2a:	741c      	strb	r4, [r3, #16]
10006f2c:	5843      	ldr	r3, [r0, r1]
10006f2e:	3301      	adds	r3, #1
10006f30:	05db      	lsls	r3, r3, #23
10006f32:	0ddb      	lsrs	r3, r3, #23
10006f34:	5043      	str	r3, [r0, r1]
10006f36:	5883      	ldr	r3, [r0, r2]
10006f38:	3301      	adds	r3, #1
10006f3a:	5083      	str	r3, [r0, r2]
10006f3c:	2c00      	cmp	r4, #0
10006f3e:	d003      	beq.n	10006f48 <_ZN18PicoHardwareSerial4peekEv+0x54>
10006f40:	5883      	ldr	r3, [r0, r2]
10006f42:	1aeb      	subs	r3, r5, r3
10006f44:	2b00      	cmp	r3, #0
10006f46:	dceb      	bgt.n	10006f20 <_ZN18PicoHardwareSerial4peekEv+0x2c>
10006f48:	2386      	movs	r3, #134	; 0x86
10006f4a:	009b      	lsls	r3, r3, #2
10006f4c:	58c3      	ldr	r3, [r0, r3]
10006f4e:	2b00      	cmp	r3, #0
10006f50:	d005      	beq.n	10006f5e <_ZN18PicoHardwareSerial4peekEv+0x6a>
10006f52:	2385      	movs	r3, #133	; 0x85
10006f54:	009b      	lsls	r3, r3, #2
10006f56:	58c3      	ldr	r3, [r0, r3]
10006f58:	18c0      	adds	r0, r0, r3
10006f5a:	7c00      	ldrb	r0, [r0, #16]
10006f5c:	bd30      	pop	{r4, r5, pc}
10006f5e:	2001      	movs	r0, #1
10006f60:	4240      	negs	r0, r0
10006f62:	e7fb      	b.n	10006f5c <_ZN18PicoHardwareSerial4peekEv+0x68>

10006f64 <_ZN17PicoDefaultSerial9availableEv>:
10006f64:	b570      	push	{r4, r5, r6, lr}
10006f66:	2587      	movs	r5, #135	; 0x87
10006f68:	00ad      	lsls	r5, r5, #2
10006f6a:	5943      	ldr	r3, [r0, r5]
10006f6c:	0004      	movs	r4, r0
10006f6e:	2b00      	cmp	r3, #0
10006f70:	d003      	beq.n	10006f7a <_ZN17PicoDefaultSerial9availableEv+0x16>
10006f72:	2387      	movs	r3, #135	; 0x87
10006f74:	009b      	lsls	r3, r3, #2
10006f76:	58e0      	ldr	r0, [r4, r3]
10006f78:	bd70      	pop	{r4, r5, r6, pc}
10006f7a:	f000 fa05 	bl	10007388 <getchar>
10006f7e:	2185      	movs	r1, #133	; 0x85
10006f80:	002a      	movs	r2, r5
10006f82:	b2c0      	uxtb	r0, r0
10006f84:	3d1c      	subs	r5, #28
10006f86:	0089      	lsls	r1, r1, #2
10006f88:	58a3      	ldr	r3, [r4, r2]
10006f8a:	1aeb      	subs	r3, r5, r3
10006f8c:	2b00      	cmp	r3, #0
10006f8e:	ddf0      	ble.n	10006f72 <_ZN17PicoDefaultSerial9availableEv+0xe>
10006f90:	58a3      	ldr	r3, [r4, r2]
10006f92:	42ab      	cmp	r3, r5
10006f94:	d0f8      	beq.n	10006f88 <_ZN17PicoDefaultSerial9availableEv+0x24>
10006f96:	5863      	ldr	r3, [r4, r1]
10006f98:	18e3      	adds	r3, r4, r3
10006f9a:	7518      	strb	r0, [r3, #20]
10006f9c:	5863      	ldr	r3, [r4, r1]
10006f9e:	3301      	adds	r3, #1
10006fa0:	05db      	lsls	r3, r3, #23
10006fa2:	0ddb      	lsrs	r3, r3, #23
10006fa4:	5063      	str	r3, [r4, r1]
10006fa6:	58a3      	ldr	r3, [r4, r2]
10006fa8:	3301      	adds	r3, #1
10006faa:	50a3      	str	r3, [r4, r2]
10006fac:	58a3      	ldr	r3, [r4, r2]
10006fae:	1aeb      	subs	r3, r5, r3
10006fb0:	2b00      	cmp	r3, #0
10006fb2:	dced      	bgt.n	10006f90 <_ZN17PicoDefaultSerial9availableEv+0x2c>
10006fb4:	e7dd      	b.n	10006f72 <_ZN17PicoDefaultSerial9availableEv+0xe>
10006fb6:	46c0      	nop			; (mov r8, r8)

10006fb8 <_ZN17PicoDefaultSerial4peekEv>:
10006fb8:	b570      	push	{r4, r5, r6, lr}
10006fba:	2587      	movs	r5, #135	; 0x87
10006fbc:	00ad      	lsls	r5, r5, #2
10006fbe:	5943      	ldr	r3, [r0, r5]
10006fc0:	0004      	movs	r4, r0
10006fc2:	2b00      	cmp	r3, #0
10006fc4:	d00a      	beq.n	10006fdc <_ZN17PicoDefaultSerial4peekEv+0x24>
10006fc6:	2387      	movs	r3, #135	; 0x87
10006fc8:	009b      	lsls	r3, r3, #2
10006fca:	58e3      	ldr	r3, [r4, r3]
10006fcc:	2b00      	cmp	r3, #0
10006fce:	d023      	beq.n	10007018 <_ZN17PicoDefaultSerial4peekEv+0x60>
10006fd0:	2386      	movs	r3, #134	; 0x86
10006fd2:	009b      	lsls	r3, r3, #2
10006fd4:	58e0      	ldr	r0, [r4, r3]
10006fd6:	1824      	adds	r4, r4, r0
10006fd8:	7d20      	ldrb	r0, [r4, #20]
10006fda:	bd70      	pop	{r4, r5, r6, pc}
10006fdc:	f000 f9d4 	bl	10007388 <getchar>
10006fe0:	2185      	movs	r1, #133	; 0x85
10006fe2:	002a      	movs	r2, r5
10006fe4:	b2c0      	uxtb	r0, r0
10006fe6:	3d1c      	subs	r5, #28
10006fe8:	0089      	lsls	r1, r1, #2
10006fea:	58a3      	ldr	r3, [r4, r2]
10006fec:	1aeb      	subs	r3, r5, r3
10006fee:	2b00      	cmp	r3, #0
10006ff0:	dde9      	ble.n	10006fc6 <_ZN17PicoDefaultSerial4peekEv+0xe>
10006ff2:	58a3      	ldr	r3, [r4, r2]
10006ff4:	42ab      	cmp	r3, r5
10006ff6:	d0f8      	beq.n	10006fea <_ZN17PicoDefaultSerial4peekEv+0x32>
10006ff8:	5863      	ldr	r3, [r4, r1]
10006ffa:	18e3      	adds	r3, r4, r3
10006ffc:	7518      	strb	r0, [r3, #20]
10006ffe:	5863      	ldr	r3, [r4, r1]
10007000:	3301      	adds	r3, #1
10007002:	05db      	lsls	r3, r3, #23
10007004:	0ddb      	lsrs	r3, r3, #23
10007006:	5063      	str	r3, [r4, r1]
10007008:	58a3      	ldr	r3, [r4, r2]
1000700a:	3301      	adds	r3, #1
1000700c:	50a3      	str	r3, [r4, r2]
1000700e:	58a3      	ldr	r3, [r4, r2]
10007010:	1aeb      	subs	r3, r5, r3
10007012:	2b00      	cmp	r3, #0
10007014:	dced      	bgt.n	10006ff2 <_ZN17PicoDefaultSerial4peekEv+0x3a>
10007016:	e7d6      	b.n	10006fc6 <_ZN17PicoDefaultSerial4peekEv+0xe>
10007018:	2001      	movs	r0, #1
1000701a:	4240      	negs	r0, r0
1000701c:	e7dd      	b.n	10006fda <_ZN17PicoDefaultSerial4peekEv+0x22>
1000701e:	46c0      	nop			; (mov r8, r8)

10007020 <_ZN7arduino13ArduinoLogger5errorEPKcS2_S2_>:
10007020:	b5f0      	push	{r4, r5, r6, r7, lr}
10007022:	0004      	movs	r4, r0
10007024:	6800      	ldr	r0, [r0, #0]
10007026:	0017      	movs	r7, r2
10007028:	6985      	ldr	r5, [r0, #24]
1000702a:	4819      	ldr	r0, [pc, #100]	; (10007090 <_ZN7arduino13ArduinoLogger5errorEPKcS2_S2_+0x70>)
1000702c:	001e      	movs	r6, r3
1000702e:	b083      	sub	sp, #12
10007030:	4285      	cmp	r5, r0
10007032:	d107      	bne.n	10007044 <_ZN7arduino13ArduinoLogger5errorEPKcS2_S2_+0x24>
10007034:	6860      	ldr	r0, [r4, #4]
10007036:	2800      	cmp	r0, #0
10007038:	d002      	beq.n	10007040 <_ZN7arduino13ArduinoLogger5errorEPKcS2_S2_+0x20>
1000703a:	7a23      	ldrb	r3, [r4, #8]
1000703c:	2b03      	cmp	r3, #3
1000703e:	d908      	bls.n	10007052 <_ZN7arduino13ArduinoLogger5errorEPKcS2_S2_+0x32>
10007040:	b003      	add	sp, #12
10007042:	bdf0      	pop	{r4, r5, r6, r7, pc}
10007044:	9300      	str	r3, [sp, #0]
10007046:	0020      	movs	r0, r4
10007048:	0013      	movs	r3, r2
1000704a:	000a      	movs	r2, r1
1000704c:	2103      	movs	r1, #3
1000704e:	47a8      	blx	r5
10007050:	e7f6      	b.n	10007040 <_ZN7arduino13ArduinoLogger5errorEPKcS2_S2_+0x20>
10007052:	f7ff fc69 	bl	10006928 <_ZN7arduino5Print5printEPKc>
10007056:	2f00      	cmp	r7, #0
10007058:	d007      	beq.n	1000706a <_ZN7arduino13ArduinoLogger5errorEPKcS2_S2_+0x4a>
1000705a:	490e      	ldr	r1, [pc, #56]	; (10007094 <_ZN7arduino13ArduinoLogger5errorEPKcS2_S2_+0x74>)
1000705c:	6860      	ldr	r0, [r4, #4]
1000705e:	f7ff fc63 	bl	10006928 <_ZN7arduino5Print5printEPKc>
10007062:	0039      	movs	r1, r7
10007064:	6860      	ldr	r0, [r4, #4]
10007066:	f7ff fc5f 	bl	10006928 <_ZN7arduino5Print5printEPKc>
1000706a:	2e00      	cmp	r6, #0
1000706c:	d007      	beq.n	1000707e <_ZN7arduino13ArduinoLogger5errorEPKcS2_S2_+0x5e>
1000706e:	4909      	ldr	r1, [pc, #36]	; (10007094 <_ZN7arduino13ArduinoLogger5errorEPKcS2_S2_+0x74>)
10007070:	6860      	ldr	r0, [r4, #4]
10007072:	f7ff fc59 	bl	10006928 <_ZN7arduino5Print5printEPKc>
10007076:	0031      	movs	r1, r6
10007078:	6860      	ldr	r0, [r4, #4]
1000707a:	f7ff fc55 	bl	10006928 <_ZN7arduino5Print5printEPKc>
1000707e:	6860      	ldr	r0, [r4, #4]
10007080:	f7ff fc7e 	bl	10006980 <_ZN7arduino5Print7printlnEv>
10007084:	6860      	ldr	r0, [r4, #4]
10007086:	6803      	ldr	r3, [r0, #0]
10007088:	68db      	ldr	r3, [r3, #12]
1000708a:	4798      	blx	r3
1000708c:	e7d8      	b.n	10007040 <_ZN7arduino13ArduinoLogger5errorEPKcS2_S2_+0x20>
1000708e:	46c0      	nop			; (mov r8, r8)
10007090:	10006da1 	.word	0x10006da1
10007094:	10008d58 	.word	0x10008d58

10007098 <_ZN7arduino13ArduinoLogger4infoEPKcS2_S2_>:
10007098:	b5f0      	push	{r4, r5, r6, r7, lr}
1000709a:	0004      	movs	r4, r0
1000709c:	6800      	ldr	r0, [r0, #0]
1000709e:	0017      	movs	r7, r2
100070a0:	6985      	ldr	r5, [r0, #24]
100070a2:	4819      	ldr	r0, [pc, #100]	; (10007108 <_ZN7arduino13ArduinoLogger4infoEPKcS2_S2_+0x70>)
100070a4:	001e      	movs	r6, r3
100070a6:	b083      	sub	sp, #12
100070a8:	4285      	cmp	r5, r0
100070aa:	d107      	bne.n	100070bc <_ZN7arduino13ArduinoLogger4infoEPKcS2_S2_+0x24>
100070ac:	6860      	ldr	r0, [r4, #4]
100070ae:	2800      	cmp	r0, #0
100070b0:	d002      	beq.n	100070b8 <_ZN7arduino13ArduinoLogger4infoEPKcS2_S2_+0x20>
100070b2:	7a23      	ldrb	r3, [r4, #8]
100070b4:	2b01      	cmp	r3, #1
100070b6:	d908      	bls.n	100070ca <_ZN7arduino13ArduinoLogger4infoEPKcS2_S2_+0x32>
100070b8:	b003      	add	sp, #12
100070ba:	bdf0      	pop	{r4, r5, r6, r7, pc}
100070bc:	9300      	str	r3, [sp, #0]
100070be:	0020      	movs	r0, r4
100070c0:	0013      	movs	r3, r2
100070c2:	000a      	movs	r2, r1
100070c4:	2101      	movs	r1, #1
100070c6:	47a8      	blx	r5
100070c8:	e7f6      	b.n	100070b8 <_ZN7arduino13ArduinoLogger4infoEPKcS2_S2_+0x20>
100070ca:	f7ff fc2d 	bl	10006928 <_ZN7arduino5Print5printEPKc>
100070ce:	2f00      	cmp	r7, #0
100070d0:	d007      	beq.n	100070e2 <_ZN7arduino13ArduinoLogger4infoEPKcS2_S2_+0x4a>
100070d2:	490e      	ldr	r1, [pc, #56]	; (1000710c <_ZN7arduino13ArduinoLogger4infoEPKcS2_S2_+0x74>)
100070d4:	6860      	ldr	r0, [r4, #4]
100070d6:	f7ff fc27 	bl	10006928 <_ZN7arduino5Print5printEPKc>
100070da:	0039      	movs	r1, r7
100070dc:	6860      	ldr	r0, [r4, #4]
100070de:	f7ff fc23 	bl	10006928 <_ZN7arduino5Print5printEPKc>
100070e2:	2e00      	cmp	r6, #0
100070e4:	d007      	beq.n	100070f6 <_ZN7arduino13ArduinoLogger4infoEPKcS2_S2_+0x5e>
100070e6:	4909      	ldr	r1, [pc, #36]	; (1000710c <_ZN7arduino13ArduinoLogger4infoEPKcS2_S2_+0x74>)
100070e8:	6860      	ldr	r0, [r4, #4]
100070ea:	f7ff fc1d 	bl	10006928 <_ZN7arduino5Print5printEPKc>
100070ee:	0031      	movs	r1, r6
100070f0:	6860      	ldr	r0, [r4, #4]
100070f2:	f7ff fc19 	bl	10006928 <_ZN7arduino5Print5printEPKc>
100070f6:	6860      	ldr	r0, [r4, #4]
100070f8:	f7ff fc42 	bl	10006980 <_ZN7arduino5Print7printlnEv>
100070fc:	6860      	ldr	r0, [r4, #4]
100070fe:	6803      	ldr	r3, [r0, #0]
10007100:	68db      	ldr	r3, [r3, #12]
10007102:	4798      	blx	r3
10007104:	e7d8      	b.n	100070b8 <_ZN7arduino13ArduinoLogger4infoEPKcS2_S2_+0x20>
10007106:	46c0      	nop			; (mov r8, r8)
10007108:	10006da1 	.word	0x10006da1
1000710c:	10008d58 	.word	0x10008d58

10007110 <_ZN7arduino13ArduinoLogger7warningEPKcS2_S2_>:
10007110:	b5f0      	push	{r4, r5, r6, r7, lr}
10007112:	0004      	movs	r4, r0
10007114:	6800      	ldr	r0, [r0, #0]
10007116:	0017      	movs	r7, r2
10007118:	6985      	ldr	r5, [r0, #24]
1000711a:	4819      	ldr	r0, [pc, #100]	; (10007180 <_ZN7arduino13ArduinoLogger7warningEPKcS2_S2_+0x70>)
1000711c:	001e      	movs	r6, r3
1000711e:	b083      	sub	sp, #12
10007120:	4285      	cmp	r5, r0
10007122:	d107      	bne.n	10007134 <_ZN7arduino13ArduinoLogger7warningEPKcS2_S2_+0x24>
10007124:	6860      	ldr	r0, [r4, #4]
10007126:	2800      	cmp	r0, #0
10007128:	d002      	beq.n	10007130 <_ZN7arduino13ArduinoLogger7warningEPKcS2_S2_+0x20>
1000712a:	7a23      	ldrb	r3, [r4, #8]
1000712c:	2b02      	cmp	r3, #2
1000712e:	d908      	bls.n	10007142 <_ZN7arduino13ArduinoLogger7warningEPKcS2_S2_+0x32>
10007130:	b003      	add	sp, #12
10007132:	bdf0      	pop	{r4, r5, r6, r7, pc}
10007134:	9300      	str	r3, [sp, #0]
10007136:	0020      	movs	r0, r4
10007138:	0013      	movs	r3, r2
1000713a:	000a      	movs	r2, r1
1000713c:	2102      	movs	r1, #2
1000713e:	47a8      	blx	r5
10007140:	e7f6      	b.n	10007130 <_ZN7arduino13ArduinoLogger7warningEPKcS2_S2_+0x20>
10007142:	f7ff fbf1 	bl	10006928 <_ZN7arduino5Print5printEPKc>
10007146:	2f00      	cmp	r7, #0
10007148:	d007      	beq.n	1000715a <_ZN7arduino13ArduinoLogger7warningEPKcS2_S2_+0x4a>
1000714a:	490e      	ldr	r1, [pc, #56]	; (10007184 <_ZN7arduino13ArduinoLogger7warningEPKcS2_S2_+0x74>)
1000714c:	6860      	ldr	r0, [r4, #4]
1000714e:	f7ff fbeb 	bl	10006928 <_ZN7arduino5Print5printEPKc>
10007152:	0039      	movs	r1, r7
10007154:	6860      	ldr	r0, [r4, #4]
10007156:	f7ff fbe7 	bl	10006928 <_ZN7arduino5Print5printEPKc>
1000715a:	2e00      	cmp	r6, #0
1000715c:	d007      	beq.n	1000716e <_ZN7arduino13ArduinoLogger7warningEPKcS2_S2_+0x5e>
1000715e:	4909      	ldr	r1, [pc, #36]	; (10007184 <_ZN7arduino13ArduinoLogger7warningEPKcS2_S2_+0x74>)
10007160:	6860      	ldr	r0, [r4, #4]
10007162:	f7ff fbe1 	bl	10006928 <_ZN7arduino5Print5printEPKc>
10007166:	0031      	movs	r1, r6
10007168:	6860      	ldr	r0, [r4, #4]
1000716a:	f7ff fbdd 	bl	10006928 <_ZN7arduino5Print5printEPKc>
1000716e:	6860      	ldr	r0, [r4, #4]
10007170:	f7ff fc06 	bl	10006980 <_ZN7arduino5Print7printlnEv>
10007174:	6860      	ldr	r0, [r4, #4]
10007176:	6803      	ldr	r3, [r0, #0]
10007178:	68db      	ldr	r3, [r3, #12]
1000717a:	4798      	blx	r3
1000717c:	e7d8      	b.n	10007130 <_ZN7arduino13ArduinoLogger7warningEPKcS2_S2_+0x20>
1000717e:	46c0      	nop			; (mov r8, r8)
10007180:	10006da1 	.word	0x10006da1
10007184:	10008d58 	.word	0x10008d58

10007188 <_ZN7arduino13ArduinoLogger5debugEPKcS2_S2_>:
10007188:	b5f0      	push	{r4, r5, r6, r7, lr}
1000718a:	0004      	movs	r4, r0
1000718c:	6800      	ldr	r0, [r0, #0]
1000718e:	0017      	movs	r7, r2
10007190:	6985      	ldr	r5, [r0, #24]
10007192:	4819      	ldr	r0, [pc, #100]	; (100071f8 <_ZN7arduino13ArduinoLogger5debugEPKcS2_S2_+0x70>)
10007194:	001e      	movs	r6, r3
10007196:	b083      	sub	sp, #12
10007198:	4285      	cmp	r5, r0
1000719a:	d107      	bne.n	100071ac <_ZN7arduino13ArduinoLogger5debugEPKcS2_S2_+0x24>
1000719c:	6860      	ldr	r0, [r4, #4]
1000719e:	2800      	cmp	r0, #0
100071a0:	d002      	beq.n	100071a8 <_ZN7arduino13ArduinoLogger5debugEPKcS2_S2_+0x20>
100071a2:	7a23      	ldrb	r3, [r4, #8]
100071a4:	2b00      	cmp	r3, #0
100071a6:	d008      	beq.n	100071ba <_ZN7arduino13ArduinoLogger5debugEPKcS2_S2_+0x32>
100071a8:	b003      	add	sp, #12
100071aa:	bdf0      	pop	{r4, r5, r6, r7, pc}
100071ac:	9300      	str	r3, [sp, #0]
100071ae:	0020      	movs	r0, r4
100071b0:	0013      	movs	r3, r2
100071b2:	000a      	movs	r2, r1
100071b4:	2100      	movs	r1, #0
100071b6:	47a8      	blx	r5
100071b8:	e7f6      	b.n	100071a8 <_ZN7arduino13ArduinoLogger5debugEPKcS2_S2_+0x20>
100071ba:	f7ff fbb5 	bl	10006928 <_ZN7arduino5Print5printEPKc>
100071be:	2f00      	cmp	r7, #0
100071c0:	d007      	beq.n	100071d2 <_ZN7arduino13ArduinoLogger5debugEPKcS2_S2_+0x4a>
100071c2:	490e      	ldr	r1, [pc, #56]	; (100071fc <_ZN7arduino13ArduinoLogger5debugEPKcS2_S2_+0x74>)
100071c4:	6860      	ldr	r0, [r4, #4]
100071c6:	f7ff fbaf 	bl	10006928 <_ZN7arduino5Print5printEPKc>
100071ca:	0039      	movs	r1, r7
100071cc:	6860      	ldr	r0, [r4, #4]
100071ce:	f7ff fbab 	bl	10006928 <_ZN7arduino5Print5printEPKc>
100071d2:	2e00      	cmp	r6, #0
100071d4:	d007      	beq.n	100071e6 <_ZN7arduino13ArduinoLogger5debugEPKcS2_S2_+0x5e>
100071d6:	4909      	ldr	r1, [pc, #36]	; (100071fc <_ZN7arduino13ArduinoLogger5debugEPKcS2_S2_+0x74>)
100071d8:	6860      	ldr	r0, [r4, #4]
100071da:	f7ff fba5 	bl	10006928 <_ZN7arduino5Print5printEPKc>
100071de:	0031      	movs	r1, r6
100071e0:	6860      	ldr	r0, [r4, #4]
100071e2:	f7ff fba1 	bl	10006928 <_ZN7arduino5Print5printEPKc>
100071e6:	6860      	ldr	r0, [r4, #4]
100071e8:	f7ff fbca 	bl	10006980 <_ZN7arduino5Print7printlnEv>
100071ec:	6860      	ldr	r0, [r4, #4]
100071ee:	6803      	ldr	r3, [r0, #0]
100071f0:	68db      	ldr	r3, [r3, #12]
100071f2:	4798      	blx	r3
100071f4:	e7d8      	b.n	100071a8 <_ZN7arduino13ArduinoLogger5debugEPKcS2_S2_+0x20>
100071f6:	46c0      	nop			; (mov r8, r8)
100071f8:	10006da1 	.word	0x10006da1
100071fc:	10008d58 	.word	0x10008d58

10007200 <_GLOBAL__sub_I_Serial>:
10007200:	b5f8      	push	{r3, r4, r5, r6, r7, lr}
10007202:	46de      	mov	lr, fp
10007204:	4657      	mov	r7, sl
10007206:	464e      	mov	r6, r9
10007208:	4645      	mov	r5, r8
1000720a:	23fa      	movs	r3, #250	; 0xfa
1000720c:	b5e0      	push	{r5, r6, r7, lr}
1000720e:	4d2a      	ldr	r5, [pc, #168]	; (100072b8 <_GLOBAL__sub_I_Serial+0xb8>)
10007210:	009b      	lsls	r3, r3, #2
10007212:	469a      	mov	sl, r3
10007214:	60ab      	str	r3, [r5, #8]
10007216:	4b29      	ldr	r3, [pc, #164]	; (100072bc <_GLOBAL__sub_I_Serial+0xbc>)
10007218:	2400      	movs	r4, #0
1000721a:	602b      	str	r3, [r5, #0]
1000721c:	2380      	movs	r3, #128	; 0x80
1000721e:	0028      	movs	r0, r5
10007220:	009b      	lsls	r3, r3, #2
10007222:	001a      	movs	r2, r3
10007224:	2100      	movs	r1, #0
10007226:	606c      	str	r4, [r5, #4]
10007228:	3014      	adds	r0, #20
1000722a:	4699      	mov	r9, r3
1000722c:	2786      	movs	r7, #134	; 0x86
1000722e:	f7ff faff 	bl	10006830 <__wrap_memset>
10007232:	2687      	movs	r6, #135	; 0x87
10007234:	2385      	movs	r3, #133	; 0x85
10007236:	00bf      	lsls	r7, r7, #2
10007238:	00b6      	lsls	r6, r6, #2
1000723a:	009b      	lsls	r3, r3, #2
1000723c:	50ec      	str	r4, [r5, r3]
1000723e:	51ec      	str	r4, [r5, r7]
10007240:	51ac      	str	r4, [r5, r6]
10007242:	4698      	mov	r8, r3
10007244:	f7f9 fb8a 	bl	1000095c <stdio_init_all>
10007248:	4d1d      	ldr	r5, [pc, #116]	; (100072c0 <_GLOBAL__sub_I_Serial+0xc0>)
1000724a:	4653      	mov	r3, sl
1000724c:	0028      	movs	r0, r5
1000724e:	60ab      	str	r3, [r5, #8]
10007250:	4b1c      	ldr	r3, [pc, #112]	; (100072c4 <_GLOBAL__sub_I_Serial+0xc4>)
10007252:	464a      	mov	r2, r9
10007254:	606c      	str	r4, [r5, #4]
10007256:	602b      	str	r3, [r5, #0]
10007258:	2100      	movs	r1, #0
1000725a:	3010      	adds	r0, #16
1000725c:	469b      	mov	fp, r3
1000725e:	f7ff fae7 	bl	10006830 <__wrap_memset>
10007262:	2384      	movs	r3, #132	; 0x84
10007264:	4642      	mov	r2, r8
10007266:	4651      	mov	r1, sl
10007268:	009b      	lsls	r3, r3, #2
1000726a:	50ec      	str	r4, [r5, r3]
1000726c:	4b16      	ldr	r3, [pc, #88]	; (100072c8 <_GLOBAL__sub_I_Serial+0xc8>)
1000726e:	50ac      	str	r4, [r5, r2]
10007270:	3218      	adds	r2, #24
10007272:	51ab      	str	r3, [r5, r6]
10007274:	51ec      	str	r4, [r5, r7]
10007276:	54ac      	strb	r4, [r5, r2]
10007278:	4d14      	ldr	r5, [pc, #80]	; (100072cc <_GLOBAL__sub_I_Serial+0xcc>)
1000727a:	464a      	mov	r2, r9
1000727c:	60a9      	str	r1, [r5, #8]
1000727e:	0028      	movs	r0, r5
10007280:	4659      	mov	r1, fp
10007282:	606c      	str	r4, [r5, #4]
10007284:	6029      	str	r1, [r5, #0]
10007286:	3010      	adds	r0, #16
10007288:	2100      	movs	r1, #0
1000728a:	f7ff fad1 	bl	10006830 <__wrap_memset>
1000728e:	2384      	movs	r3, #132	; 0x84
10007290:	009b      	lsls	r3, r3, #2
10007292:	50ec      	str	r4, [r5, r3]
10007294:	4643      	mov	r3, r8
10007296:	228b      	movs	r2, #139	; 0x8b
10007298:	50ec      	str	r4, [r5, r3]
1000729a:	4b0d      	ldr	r3, [pc, #52]	; (100072d0 <_GLOBAL__sub_I_Serial+0xd0>)
1000729c:	0092      	lsls	r2, r2, #2
1000729e:	51ab      	str	r3, [r5, r6]
100072a0:	54ac      	strb	r4, [r5, r2]
100072a2:	4b0c      	ldr	r3, [pc, #48]	; (100072d4 <_GLOBAL__sub_I_Serial+0xd4>)
100072a4:	4a0c      	ldr	r2, [pc, #48]	; (100072d8 <_GLOBAL__sub_I_Serial+0xd8>)
100072a6:	51ec      	str	r4, [r5, r7]
100072a8:	601a      	str	r2, [r3, #0]
100072aa:	bc3c      	pop	{r2, r3, r4, r5}
100072ac:	4690      	mov	r8, r2
100072ae:	4699      	mov	r9, r3
100072b0:	46a2      	mov	sl, r4
100072b2:	46ab      	mov	fp, r5
100072b4:	bdf8      	pop	{r3, r4, r5, r6, r7, pc}
100072b6:	46c0      	nop			; (mov r8, r8)
100072b8:	20000c28 	.word	0x20000c28
100072bc:	10008d88 	.word	0x10008d88
100072c0:	20000e48 	.word	0x20000e48
100072c4:	10008dc0 	.word	0x10008dc0
100072c8:	40034000 	.word	0x40034000
100072cc:	20001078 	.word	0x20001078
100072d0:	40038000 	.word	0x40038000
100072d4:	20000c1c 	.word	0x20000c1c
100072d8:	10008d64 	.word	0x10008d64

100072dc <main>:
100072dc:	b510      	push	{r4, lr}
100072de:	f7f9 f837 	bl	10000350 <setup>
100072e2:	f7f9 f86f 	bl	100003c4 <loop>
100072e6:	e7fc      	b.n	100072e2 <main+0x6>

100072e8 <_GLOBAL__sub_I__ZN9__gnu_cxx9__freeresEv>:
100072e8:	b570      	push	{r4, r5, r6, lr}
100072ea:	259e      	movs	r5, #158	; 0x9e
100072ec:	4c08      	ldr	r4, [pc, #32]	; (10007310 <_GLOBAL__sub_I__ZN9__gnu_cxx9__freeresEv+0x28>)
100072ee:	012d      	lsls	r5, r5, #4
100072f0:	0028      	movs	r0, r5
100072f2:	60e5      	str	r5, [r4, #12]
100072f4:	f7ff fa8c 	bl	10006810 <__wrap_malloc>
100072f8:	60a0      	str	r0, [r4, #8]
100072fa:	2800      	cmp	r0, #0
100072fc:	d004      	beq.n	10007308 <_GLOBAL__sub_I__ZN9__gnu_cxx9__freeresEv+0x20>
100072fe:	2300      	movs	r3, #0
10007300:	6060      	str	r0, [r4, #4]
10007302:	6005      	str	r5, [r0, #0]
10007304:	6043      	str	r3, [r0, #4]
10007306:	bd70      	pop	{r4, r5, r6, pc}
10007308:	60e0      	str	r0, [r4, #12]
1000730a:	6060      	str	r0, [r4, #4]
1000730c:	e7fb      	b.n	10007306 <_GLOBAL__sub_I__ZN9__gnu_cxx9__freeresEv+0x1e>
1000730e:	46c0      	nop			; (mov r8, r8)
10007310:	200012a8 	.word	0x200012a8

10007314 <calloc>:
10007314:	0003      	movs	r3, r0
10007316:	b510      	push	{r4, lr}
10007318:	000a      	movs	r2, r1
1000731a:	4903      	ldr	r1, [pc, #12]	; (10007328 <calloc+0x14>)
1000731c:	6808      	ldr	r0, [r1, #0]
1000731e:	0019      	movs	r1, r3
10007320:	f000 f804 	bl	1000732c <_calloc_r>
10007324:	bd10      	pop	{r4, pc}
10007326:	46c0      	nop			; (mov r8, r8)
10007328:	20000390 	.word	0x20000390

1000732c <_calloc_r>:
1000732c:	b510      	push	{r4, lr}
1000732e:	4351      	muls	r1, r2
10007330:	f000 f846 	bl	100073c0 <_malloc_r>
10007334:	1e04      	subs	r4, r0, #0
10007336:	d00e      	beq.n	10007356 <_calloc_r+0x2a>
10007338:	0003      	movs	r3, r0
1000733a:	3b08      	subs	r3, #8
1000733c:	685a      	ldr	r2, [r3, #4]
1000733e:	2303      	movs	r3, #3
10007340:	439a      	bics	r2, r3
10007342:	3a04      	subs	r2, #4
10007344:	2a24      	cmp	r2, #36	; 0x24
10007346:	d815      	bhi.n	10007374 <_calloc_r+0x48>
10007348:	0003      	movs	r3, r0
1000734a:	2a13      	cmp	r2, #19
1000734c:	d805      	bhi.n	1000735a <_calloc_r+0x2e>
1000734e:	2200      	movs	r2, #0
10007350:	601a      	str	r2, [r3, #0]
10007352:	605a      	str	r2, [r3, #4]
10007354:	609a      	str	r2, [r3, #8]
10007356:	0020      	movs	r0, r4
10007358:	bd10      	pop	{r4, pc}
1000735a:	2100      	movs	r1, #0
1000735c:	3308      	adds	r3, #8
1000735e:	6001      	str	r1, [r0, #0]
10007360:	6041      	str	r1, [r0, #4]
10007362:	2a1b      	cmp	r2, #27
10007364:	d9f3      	bls.n	1000734e <_calloc_r+0x22>
10007366:	6081      	str	r1, [r0, #8]
10007368:	60c1      	str	r1, [r0, #12]
1000736a:	2a24      	cmp	r2, #36	; 0x24
1000736c:	d006      	beq.n	1000737c <_calloc_r+0x50>
1000736e:	0003      	movs	r3, r0
10007370:	3310      	adds	r3, #16
10007372:	e7ec      	b.n	1000734e <_calloc_r+0x22>
10007374:	2100      	movs	r1, #0
10007376:	f7ff fa5b 	bl	10006830 <__wrap_memset>
1000737a:	e7ec      	b.n	10007356 <_calloc_r+0x2a>
1000737c:	0003      	movs	r3, r0
1000737e:	6101      	str	r1, [r0, #16]
10007380:	3318      	adds	r3, #24
10007382:	6141      	str	r1, [r0, #20]
10007384:	e7e3      	b.n	1000734e <_calloc_r+0x22>
10007386:	46c0      	nop			; (mov r8, r8)

10007388 <getchar>:
10007388:	b510      	push	{r4, lr}
1000738a:	4b03      	ldr	r3, [pc, #12]	; (10007398 <getchar+0x10>)
1000738c:	6818      	ldr	r0, [r3, #0]
1000738e:	6841      	ldr	r1, [r0, #4]
10007390:	f000 fe0a 	bl	10007fa8 <_getc_r>
10007394:	bd10      	pop	{r4, pc}
10007396:	46c0      	nop			; (mov r8, r8)
10007398:	20000390 	.word	0x20000390

1000739c <__retarget_lock_init_recursive>:
1000739c:	4770      	bx	lr
1000739e:	46c0      	nop			; (mov r8, r8)

100073a0 <__retarget_lock_close_recursive>:
100073a0:	4770      	bx	lr
100073a2:	46c0      	nop			; (mov r8, r8)

100073a4 <__retarget_lock_acquire_recursive>:
100073a4:	4770      	bx	lr
100073a6:	46c0      	nop			; (mov r8, r8)

100073a8 <__retarget_lock_release_recursive>:
100073a8:	4770      	bx	lr
100073aa:	46c0      	nop			; (mov r8, r8)

100073ac <malloc>:
100073ac:	b510      	push	{r4, lr}
100073ae:	4b03      	ldr	r3, [pc, #12]	; (100073bc <malloc+0x10>)
100073b0:	0001      	movs	r1, r0
100073b2:	6818      	ldr	r0, [r3, #0]
100073b4:	f000 f804 	bl	100073c0 <_malloc_r>
100073b8:	bd10      	pop	{r4, pc}
100073ba:	46c0      	nop			; (mov r8, r8)
100073bc:	20000390 	.word	0x20000390

100073c0 <_malloc_r>:
100073c0:	b5f0      	push	{r4, r5, r6, r7, lr}
100073c2:	464e      	mov	r6, r9
100073c4:	4645      	mov	r5, r8
100073c6:	46de      	mov	lr, fp
100073c8:	4657      	mov	r7, sl
100073ca:	b5e0      	push	{r5, r6, r7, lr}
100073cc:	000d      	movs	r5, r1
100073ce:	350b      	adds	r5, #11
100073d0:	0006      	movs	r6, r0
100073d2:	b083      	sub	sp, #12
100073d4:	2d16      	cmp	r5, #22
100073d6:	d822      	bhi.n	1000741e <_malloc_r+0x5e>
100073d8:	2910      	cmp	r1, #16
100073da:	d900      	bls.n	100073de <_malloc_r+0x1e>
100073dc:	e0b2      	b.n	10007544 <_malloc_r+0x184>
100073de:	f000 faaf 	bl	10007940 <__malloc_lock>
100073e2:	2510      	movs	r5, #16
100073e4:	2002      	movs	r0, #2
100073e6:	2318      	movs	r3, #24
100073e8:	4fcb      	ldr	r7, [pc, #812]	; (10007718 <_malloc_r+0x358>)
100073ea:	18fb      	adds	r3, r7, r3
100073ec:	001a      	movs	r2, r3
100073ee:	685c      	ldr	r4, [r3, #4]
100073f0:	3a08      	subs	r2, #8
100073f2:	4294      	cmp	r4, r2
100073f4:	d100      	bne.n	100073f8 <_malloc_r+0x38>
100073f6:	e0b5      	b.n	10007564 <_malloc_r+0x1a4>
100073f8:	2303      	movs	r3, #3
100073fa:	6862      	ldr	r2, [r4, #4]
100073fc:	439a      	bics	r2, r3
100073fe:	0013      	movs	r3, r2
10007400:	68e2      	ldr	r2, [r4, #12]
10007402:	68a1      	ldr	r1, [r4, #8]
10007404:	60ca      	str	r2, [r1, #12]
10007406:	6091      	str	r1, [r2, #8]
10007408:	2201      	movs	r2, #1
1000740a:	18e3      	adds	r3, r4, r3
1000740c:	6859      	ldr	r1, [r3, #4]
1000740e:	0030      	movs	r0, r6
10007410:	430a      	orrs	r2, r1
10007412:	605a      	str	r2, [r3, #4]
10007414:	f000 fa9c 	bl	10007950 <__malloc_unlock>
10007418:	0020      	movs	r0, r4
1000741a:	3008      	adds	r0, #8
1000741c:	e095      	b.n	1000754a <_malloc_r+0x18a>
1000741e:	2307      	movs	r3, #7
10007420:	439d      	bics	r5, r3
10007422:	d500      	bpl.n	10007426 <_malloc_r+0x66>
10007424:	e08e      	b.n	10007544 <_malloc_r+0x184>
10007426:	42a9      	cmp	r1, r5
10007428:	d900      	bls.n	1000742c <_malloc_r+0x6c>
1000742a:	e08b      	b.n	10007544 <_malloc_r+0x184>
1000742c:	f000 fa88 	bl	10007940 <__malloc_lock>
10007430:	23fc      	movs	r3, #252	; 0xfc
10007432:	005b      	lsls	r3, r3, #1
10007434:	429d      	cmp	r5, r3
10007436:	d200      	bcs.n	1000743a <_malloc_r+0x7a>
10007438:	e1a5      	b.n	10007786 <_malloc_r+0x3c6>
1000743a:	0a68      	lsrs	r0, r5, #9
1000743c:	d100      	bne.n	10007440 <_malloc_r+0x80>
1000743e:	e08b      	b.n	10007558 <_malloc_r+0x198>
10007440:	2804      	cmp	r0, #4
10007442:	d900      	bls.n	10007446 <_malloc_r+0x86>
10007444:	e178      	b.n	10007738 <_malloc_r+0x378>
10007446:	2338      	movs	r3, #56	; 0x38
10007448:	4698      	mov	r8, r3
1000744a:	09a8      	lsrs	r0, r5, #6
1000744c:	4480      	add	r8, r0
1000744e:	3039      	adds	r0, #57	; 0x39
10007450:	00c1      	lsls	r1, r0, #3
10007452:	4fb1      	ldr	r7, [pc, #708]	; (10007718 <_malloc_r+0x358>)
10007454:	1879      	adds	r1, r7, r1
10007456:	684c      	ldr	r4, [r1, #4]
10007458:	3908      	subs	r1, #8
1000745a:	42a1      	cmp	r1, r4
1000745c:	d00e      	beq.n	1000747c <_malloc_r+0xbc>
1000745e:	2303      	movs	r3, #3
10007460:	469c      	mov	ip, r3
10007462:	e004      	b.n	1000746e <_malloc_r+0xae>
10007464:	2a00      	cmp	r2, #0
10007466:	dacb      	bge.n	10007400 <_malloc_r+0x40>
10007468:	68e4      	ldr	r4, [r4, #12]
1000746a:	42a1      	cmp	r1, r4
1000746c:	d006      	beq.n	1000747c <_malloc_r+0xbc>
1000746e:	4662      	mov	r2, ip
10007470:	6863      	ldr	r3, [r4, #4]
10007472:	4393      	bics	r3, r2
10007474:	1b5a      	subs	r2, r3, r5
10007476:	2a0f      	cmp	r2, #15
10007478:	ddf4      	ble.n	10007464 <_malloc_r+0xa4>
1000747a:	4640      	mov	r0, r8
1000747c:	003a      	movs	r2, r7
1000747e:	693c      	ldr	r4, [r7, #16]
10007480:	3208      	adds	r2, #8
10007482:	4294      	cmp	r4, r2
10007484:	d100      	bne.n	10007488 <_malloc_r+0xc8>
10007486:	e078      	b.n	1000757a <_malloc_r+0x1ba>
10007488:	2303      	movs	r3, #3
1000748a:	6861      	ldr	r1, [r4, #4]
1000748c:	4399      	bics	r1, r3
1000748e:	4689      	mov	r9, r1
10007490:	000b      	movs	r3, r1
10007492:	1b49      	subs	r1, r1, r5
10007494:	290f      	cmp	r1, #15
10007496:	dd00      	ble.n	1000749a <_malloc_r+0xda>
10007498:	e179      	b.n	1000778e <_malloc_r+0x3ce>
1000749a:	617a      	str	r2, [r7, #20]
1000749c:	613a      	str	r2, [r7, #16]
1000749e:	2900      	cmp	r1, #0
100074a0:	dab2      	bge.n	10007408 <_malloc_r+0x48>
100074a2:	2280      	movs	r2, #128	; 0x80
100074a4:	0092      	lsls	r2, r2, #2
100074a6:	4591      	cmp	r9, r2
100074a8:	d300      	bcc.n	100074ac <_malloc_r+0xec>
100074aa:	e10e      	b.n	100076ca <_malloc_r+0x30a>
100074ac:	0959      	lsrs	r1, r3, #5
100074ae:	08da      	lsrs	r2, r3, #3
100074b0:	2301      	movs	r3, #1
100074b2:	408b      	lsls	r3, r1
100074b4:	00d2      	lsls	r2, r2, #3
100074b6:	6879      	ldr	r1, [r7, #4]
100074b8:	19d2      	adds	r2, r2, r7
100074ba:	430b      	orrs	r3, r1
100074bc:	6891      	ldr	r1, [r2, #8]
100074be:	607b      	str	r3, [r7, #4]
100074c0:	60e2      	str	r2, [r4, #12]
100074c2:	60a1      	str	r1, [r4, #8]
100074c4:	6094      	str	r4, [r2, #8]
100074c6:	60cc      	str	r4, [r1, #12]
100074c8:	2101      	movs	r1, #1
100074ca:	1082      	asrs	r2, r0, #2
100074cc:	4091      	lsls	r1, r2
100074ce:	4299      	cmp	r1, r3
100074d0:	d859      	bhi.n	10007586 <_malloc_r+0x1c6>
100074d2:	420b      	tst	r3, r1
100074d4:	d105      	bne.n	100074e2 <_malloc_r+0x122>
100074d6:	2203      	movs	r2, #3
100074d8:	4390      	bics	r0, r2
100074da:	0049      	lsls	r1, r1, #1
100074dc:	3004      	adds	r0, #4
100074de:	420b      	tst	r3, r1
100074e0:	d0fb      	beq.n	100074da <_malloc_r+0x11a>
100074e2:	2303      	movs	r3, #3
100074e4:	4698      	mov	r8, r3
100074e6:	00c3      	lsls	r3, r0, #3
100074e8:	4699      	mov	r9, r3
100074ea:	44b9      	add	r9, r7
100074ec:	46cc      	mov	ip, r9
100074ee:	4682      	mov	sl, r0
100074f0:	4663      	mov	r3, ip
100074f2:	68dc      	ldr	r4, [r3, #12]
100074f4:	45a4      	cmp	ip, r4
100074f6:	d107      	bne.n	10007508 <_malloc_r+0x148>
100074f8:	e12a      	b.n	10007750 <_malloc_r+0x390>
100074fa:	2a00      	cmp	r2, #0
100074fc:	db00      	blt.n	10007500 <_malloc_r+0x140>
100074fe:	e133      	b.n	10007768 <_malloc_r+0x3a8>
10007500:	68e4      	ldr	r4, [r4, #12]
10007502:	45a4      	cmp	ip, r4
10007504:	d100      	bne.n	10007508 <_malloc_r+0x148>
10007506:	e123      	b.n	10007750 <_malloc_r+0x390>
10007508:	4642      	mov	r2, r8
1000750a:	6863      	ldr	r3, [r4, #4]
1000750c:	4393      	bics	r3, r2
1000750e:	1b5a      	subs	r2, r3, r5
10007510:	2a0f      	cmp	r2, #15
10007512:	ddf2      	ble.n	100074fa <_malloc_r+0x13a>
10007514:	2001      	movs	r0, #1
10007516:	4680      	mov	r8, r0
10007518:	1961      	adds	r1, r4, r5
1000751a:	4305      	orrs	r5, r0
1000751c:	6065      	str	r5, [r4, #4]
1000751e:	68a0      	ldr	r0, [r4, #8]
10007520:	68e5      	ldr	r5, [r4, #12]
10007522:	3708      	adds	r7, #8
10007524:	60c5      	str	r5, [r0, #12]
10007526:	60a8      	str	r0, [r5, #8]
10007528:	4640      	mov	r0, r8
1000752a:	4310      	orrs	r0, r2
1000752c:	60f9      	str	r1, [r7, #12]
1000752e:	60b9      	str	r1, [r7, #8]
10007530:	6048      	str	r0, [r1, #4]
10007532:	60cf      	str	r7, [r1, #12]
10007534:	0030      	movs	r0, r6
10007536:	608f      	str	r7, [r1, #8]
10007538:	50e2      	str	r2, [r4, r3]
1000753a:	f000 fa09 	bl	10007950 <__malloc_unlock>
1000753e:	0020      	movs	r0, r4
10007540:	3008      	adds	r0, #8
10007542:	e002      	b.n	1000754a <_malloc_r+0x18a>
10007544:	230c      	movs	r3, #12
10007546:	2000      	movs	r0, #0
10007548:	6033      	str	r3, [r6, #0]
1000754a:	b003      	add	sp, #12
1000754c:	bc3c      	pop	{r2, r3, r4, r5}
1000754e:	4690      	mov	r8, r2
10007550:	4699      	mov	r9, r3
10007552:	46a2      	mov	sl, r4
10007554:	46ab      	mov	fp, r5
10007556:	bdf0      	pop	{r4, r5, r6, r7, pc}
10007558:	2180      	movs	r1, #128	; 0x80
1000755a:	233f      	movs	r3, #63	; 0x3f
1000755c:	2040      	movs	r0, #64	; 0x40
1000755e:	4698      	mov	r8, r3
10007560:	0089      	lsls	r1, r1, #2
10007562:	e776      	b.n	10007452 <_malloc_r+0x92>
10007564:	68dc      	ldr	r4, [r3, #12]
10007566:	3002      	adds	r0, #2
10007568:	42a3      	cmp	r3, r4
1000756a:	d000      	beq.n	1000756e <_malloc_r+0x1ae>
1000756c:	e744      	b.n	100073f8 <_malloc_r+0x38>
1000756e:	003a      	movs	r2, r7
10007570:	693c      	ldr	r4, [r7, #16]
10007572:	3208      	adds	r2, #8
10007574:	4294      	cmp	r4, r2
10007576:	d000      	beq.n	1000757a <_malloc_r+0x1ba>
10007578:	e786      	b.n	10007488 <_malloc_r+0xc8>
1000757a:	2101      	movs	r1, #1
1000757c:	687b      	ldr	r3, [r7, #4]
1000757e:	1082      	asrs	r2, r0, #2
10007580:	4091      	lsls	r1, r2
10007582:	4299      	cmp	r1, r3
10007584:	d9a5      	bls.n	100074d2 <_malloc_r+0x112>
10007586:	2303      	movs	r3, #3
10007588:	68bc      	ldr	r4, [r7, #8]
1000758a:	6862      	ldr	r2, [r4, #4]
1000758c:	439a      	bics	r2, r3
1000758e:	4691      	mov	r9, r2
10007590:	4295      	cmp	r5, r2
10007592:	d803      	bhi.n	1000759c <_malloc_r+0x1dc>
10007594:	1b53      	subs	r3, r2, r5
10007596:	2b0f      	cmp	r3, #15
10007598:	dd00      	ble.n	1000759c <_malloc_r+0x1dc>
1000759a:	e088      	b.n	100076ae <_malloc_r+0x2ee>
1000759c:	0023      	movs	r3, r4
1000759e:	444b      	add	r3, r9
100075a0:	4a5e      	ldr	r2, [pc, #376]	; (1000771c <_malloc_r+0x35c>)
100075a2:	9301      	str	r3, [sp, #4]
100075a4:	4b5e      	ldr	r3, [pc, #376]	; (10007720 <_malloc_r+0x360>)
100075a6:	4693      	mov	fp, r2
100075a8:	681b      	ldr	r3, [r3, #0]
100075aa:	6812      	ldr	r2, [r2, #0]
100075ac:	18eb      	adds	r3, r5, r3
100075ae:	3201      	adds	r2, #1
100075b0:	d100      	bne.n	100075b4 <_malloc_r+0x1f4>
100075b2:	e13b      	b.n	1000782c <_malloc_r+0x46c>
100075b4:	4a5b      	ldr	r2, [pc, #364]	; (10007724 <_malloc_r+0x364>)
100075b6:	4694      	mov	ip, r2
100075b8:	4463      	add	r3, ip
100075ba:	0b1b      	lsrs	r3, r3, #12
100075bc:	031b      	lsls	r3, r3, #12
100075be:	9300      	str	r3, [sp, #0]
100075c0:	0030      	movs	r0, r6
100075c2:	9900      	ldr	r1, [sp, #0]
100075c4:	f000 f9cc 	bl	10007960 <_sbrk_r>
100075c8:	0003      	movs	r3, r0
100075ca:	4680      	mov	r8, r0
100075cc:	3301      	adds	r3, #1
100075ce:	d100      	bne.n	100075d2 <_malloc_r+0x212>
100075d0:	e0f8      	b.n	100077c4 <_malloc_r+0x404>
100075d2:	9b01      	ldr	r3, [sp, #4]
100075d4:	4283      	cmp	r3, r0
100075d6:	d900      	bls.n	100075da <_malloc_r+0x21a>
100075d8:	e0f2      	b.n	100077c0 <_malloc_r+0x400>
100075da:	4b53      	ldr	r3, [pc, #332]	; (10007728 <_malloc_r+0x368>)
100075dc:	0019      	movs	r1, r3
100075de:	469a      	mov	sl, r3
100075e0:	6809      	ldr	r1, [r1, #0]
100075e2:	9b00      	ldr	r3, [sp, #0]
100075e4:	468c      	mov	ip, r1
100075e6:	4651      	mov	r1, sl
100075e8:	4463      	add	r3, ip
100075ea:	600b      	str	r3, [r1, #0]
100075ec:	9901      	ldr	r1, [sp, #4]
100075ee:	001a      	movs	r2, r3
100075f0:	4281      	cmp	r1, r0
100075f2:	d100      	bne.n	100075f6 <_malloc_r+0x236>
100075f4:	e150      	b.n	10007898 <_malloc_r+0x4d8>
100075f6:	465b      	mov	r3, fp
100075f8:	681b      	ldr	r3, [r3, #0]
100075fa:	3301      	adds	r3, #1
100075fc:	d100      	bne.n	10007600 <_malloc_r+0x240>
100075fe:	e155      	b.n	100078ac <_malloc_r+0x4ec>
10007600:	4643      	mov	r3, r8
10007602:	9901      	ldr	r1, [sp, #4]
10007604:	1a5b      	subs	r3, r3, r1
10007606:	189a      	adds	r2, r3, r2
10007608:	4653      	mov	r3, sl
1000760a:	601a      	str	r2, [r3, #0]
1000760c:	2307      	movs	r3, #7
1000760e:	4642      	mov	r2, r8
10007610:	4641      	mov	r1, r8
10007612:	401a      	ands	r2, r3
10007614:	9201      	str	r2, [sp, #4]
10007616:	4219      	tst	r1, r3
10007618:	d100      	bne.n	1000761c <_malloc_r+0x25c>
1000761a:	e111      	b.n	10007840 <_malloc_r+0x480>
1000761c:	2308      	movs	r3, #8
1000761e:	4698      	mov	r8, r3
10007620:	1a88      	subs	r0, r1, r2
10007622:	4b42      	ldr	r3, [pc, #264]	; (1000772c <_malloc_r+0x36c>)
10007624:	9900      	ldr	r1, [sp, #0]
10007626:	4480      	add	r8, r0
10007628:	4441      	add	r1, r8
1000762a:	1a9b      	subs	r3, r3, r2
1000762c:	1a5b      	subs	r3, r3, r1
1000762e:	051b      	lsls	r3, r3, #20
10007630:	0d1b      	lsrs	r3, r3, #20
10007632:	9100      	str	r1, [sp, #0]
10007634:	0030      	movs	r0, r6
10007636:	0019      	movs	r1, r3
10007638:	469b      	mov	fp, r3
1000763a:	f000 f991 	bl	10007960 <_sbrk_r>
1000763e:	1c43      	adds	r3, r0, #1
10007640:	d100      	bne.n	10007644 <_malloc_r+0x284>
10007642:	e14f      	b.n	100078e4 <_malloc_r+0x524>
10007644:	4643      	mov	r3, r8
10007646:	1ac0      	subs	r0, r0, r3
10007648:	0003      	movs	r3, r0
1000764a:	445b      	add	r3, fp
1000764c:	9300      	str	r3, [sp, #0]
1000764e:	4653      	mov	r3, sl
10007650:	4652      	mov	r2, sl
10007652:	681b      	ldr	r3, [r3, #0]
10007654:	2101      	movs	r1, #1
10007656:	445b      	add	r3, fp
10007658:	6013      	str	r3, [r2, #0]
1000765a:	4642      	mov	r2, r8
1000765c:	4640      	mov	r0, r8
1000765e:	60ba      	str	r2, [r7, #8]
10007660:	9a00      	ldr	r2, [sp, #0]
10007662:	430a      	orrs	r2, r1
10007664:	6042      	str	r2, [r0, #4]
10007666:	42bc      	cmp	r4, r7
10007668:	d100      	bne.n	1000766c <_malloc_r+0x2ac>
1000766a:	e123      	b.n	100078b4 <_malloc_r+0x4f4>
1000766c:	464a      	mov	r2, r9
1000766e:	2a0f      	cmp	r2, #15
10007670:	d800      	bhi.n	10007674 <_malloc_r+0x2b4>
10007672:	e121      	b.n	100078b8 <_malloc_r+0x4f8>
10007674:	2007      	movs	r0, #7
10007676:	3a0c      	subs	r2, #12
10007678:	4382      	bics	r2, r0
1000767a:	6860      	ldr	r0, [r4, #4]
1000767c:	4001      	ands	r1, r0
1000767e:	2005      	movs	r0, #5
10007680:	4311      	orrs	r1, r2
10007682:	6061      	str	r1, [r4, #4]
10007684:	18a1      	adds	r1, r4, r2
10007686:	6048      	str	r0, [r1, #4]
10007688:	6088      	str	r0, [r1, #8]
1000768a:	2a0f      	cmp	r2, #15
1000768c:	d900      	bls.n	10007690 <_malloc_r+0x2d0>
1000768e:	e134      	b.n	100078fa <_malloc_r+0x53a>
10007690:	4642      	mov	r2, r8
10007692:	4644      	mov	r4, r8
10007694:	6852      	ldr	r2, [r2, #4]
10007696:	4926      	ldr	r1, [pc, #152]	; (10007730 <_malloc_r+0x370>)
10007698:	6808      	ldr	r0, [r1, #0]
1000769a:	4298      	cmp	r0, r3
1000769c:	d200      	bcs.n	100076a0 <_malloc_r+0x2e0>
1000769e:	600b      	str	r3, [r1, #0]
100076a0:	4924      	ldr	r1, [pc, #144]	; (10007734 <_malloc_r+0x374>)
100076a2:	6808      	ldr	r0, [r1, #0]
100076a4:	4298      	cmp	r0, r3
100076a6:	d300      	bcc.n	100076aa <_malloc_r+0x2ea>
100076a8:	e08e      	b.n	100077c8 <_malloc_r+0x408>
100076aa:	600b      	str	r3, [r1, #0]
100076ac:	e08c      	b.n	100077c8 <_malloc_r+0x408>
100076ae:	2201      	movs	r2, #1
100076b0:	0029      	movs	r1, r5
100076b2:	4313      	orrs	r3, r2
100076b4:	4311      	orrs	r1, r2
100076b6:	1965      	adds	r5, r4, r5
100076b8:	6061      	str	r1, [r4, #4]
100076ba:	0030      	movs	r0, r6
100076bc:	60bd      	str	r5, [r7, #8]
100076be:	606b      	str	r3, [r5, #4]
100076c0:	f000 f946 	bl	10007950 <__malloc_unlock>
100076c4:	0020      	movs	r0, r4
100076c6:	3008      	adds	r0, #8
100076c8:	e73f      	b.n	1000754a <_malloc_r+0x18a>
100076ca:	0a5a      	lsrs	r2, r3, #9
100076cc:	2a04      	cmp	r2, #4
100076ce:	d971      	bls.n	100077b4 <_malloc_r+0x3f4>
100076d0:	2a14      	cmp	r2, #20
100076d2:	d900      	bls.n	100076d6 <_malloc_r+0x316>
100076d4:	e0c4      	b.n	10007860 <_malloc_r+0x4a0>
100076d6:	0011      	movs	r1, r2
100076d8:	325c      	adds	r2, #92	; 0x5c
100076da:	315b      	adds	r1, #91	; 0x5b
100076dc:	00d2      	lsls	r2, r2, #3
100076de:	2308      	movs	r3, #8
100076e0:	425b      	negs	r3, r3
100076e2:	469c      	mov	ip, r3
100076e4:	18ba      	adds	r2, r7, r2
100076e6:	4494      	add	ip, r2
100076e8:	4663      	mov	r3, ip
100076ea:	689a      	ldr	r2, [r3, #8]
100076ec:	2303      	movs	r3, #3
100076ee:	4698      	mov	r8, r3
100076f0:	4594      	cmp	ip, r2
100076f2:	d100      	bne.n	100076f6 <_malloc_r+0x336>
100076f4:	e09d      	b.n	10007832 <_malloc_r+0x472>
100076f6:	4643      	mov	r3, r8
100076f8:	6851      	ldr	r1, [r2, #4]
100076fa:	4399      	bics	r1, r3
100076fc:	4549      	cmp	r1, r9
100076fe:	d902      	bls.n	10007706 <_malloc_r+0x346>
10007700:	6892      	ldr	r2, [r2, #8]
10007702:	4594      	cmp	ip, r2
10007704:	d1f7      	bne.n	100076f6 <_malloc_r+0x336>
10007706:	68d3      	ldr	r3, [r2, #12]
10007708:	469c      	mov	ip, r3
1000770a:	687b      	ldr	r3, [r7, #4]
1000770c:	4661      	mov	r1, ip
1000770e:	60a2      	str	r2, [r4, #8]
10007710:	60e1      	str	r1, [r4, #12]
10007712:	608c      	str	r4, [r1, #8]
10007714:	60d4      	str	r4, [r2, #12]
10007716:	e6d7      	b.n	100074c8 <_malloc_r+0x108>
10007718:	200007c0 	.word	0x200007c0
1000771c:	20000bc8 	.word	0x20000bc8
10007720:	200012e8 	.word	0x200012e8
10007724:	0000100f 	.word	0x0000100f
10007728:	200012b8 	.word	0x200012b8
1000772c:	00001008 	.word	0x00001008
10007730:	200012e0 	.word	0x200012e0
10007734:	200012e4 	.word	0x200012e4
10007738:	2814      	cmp	r0, #20
1000773a:	d952      	bls.n	100077e2 <_malloc_r+0x422>
1000773c:	2854      	cmp	r0, #84	; 0x54
1000773e:	d900      	bls.n	10007742 <_malloc_r+0x382>
10007740:	e096      	b.n	10007870 <_malloc_r+0x4b0>
10007742:	236e      	movs	r3, #110	; 0x6e
10007744:	4698      	mov	r8, r3
10007746:	0b28      	lsrs	r0, r5, #12
10007748:	4480      	add	r8, r0
1000774a:	306f      	adds	r0, #111	; 0x6f
1000774c:	00c1      	lsls	r1, r0, #3
1000774e:	e680      	b.n	10007452 <_malloc_r+0x92>
10007750:	2308      	movs	r3, #8
10007752:	469b      	mov	fp, r3
10007754:	3b07      	subs	r3, #7
10007756:	44dc      	add	ip, fp
10007758:	469b      	mov	fp, r3
1000775a:	44da      	add	sl, fp
1000775c:	4643      	mov	r3, r8
1000775e:	4652      	mov	r2, sl
10007760:	4213      	tst	r3, r2
10007762:	d000      	beq.n	10007766 <_malloc_r+0x3a6>
10007764:	e6c4      	b.n	100074f0 <_malloc_r+0x130>
10007766:	e04c      	b.n	10007802 <_malloc_r+0x442>
10007768:	2201      	movs	r2, #1
1000776a:	18e3      	adds	r3, r4, r3
1000776c:	6859      	ldr	r1, [r3, #4]
1000776e:	0030      	movs	r0, r6
10007770:	430a      	orrs	r2, r1
10007772:	605a      	str	r2, [r3, #4]
10007774:	68e3      	ldr	r3, [r4, #12]
10007776:	68a2      	ldr	r2, [r4, #8]
10007778:	60d3      	str	r3, [r2, #12]
1000777a:	609a      	str	r2, [r3, #8]
1000777c:	f000 f8e8 	bl	10007950 <__malloc_unlock>
10007780:	0020      	movs	r0, r4
10007782:	3008      	adds	r0, #8
10007784:	e6e1      	b.n	1000754a <_malloc_r+0x18a>
10007786:	002b      	movs	r3, r5
10007788:	08e8      	lsrs	r0, r5, #3
1000778a:	3308      	adds	r3, #8
1000778c:	e62c      	b.n	100073e8 <_malloc_r+0x28>
1000778e:	2301      	movs	r3, #1
10007790:	1960      	adds	r0, r4, r5
10007792:	431d      	orrs	r5, r3
10007794:	6065      	str	r5, [r4, #4]
10007796:	6178      	str	r0, [r7, #20]
10007798:	6138      	str	r0, [r7, #16]
1000779a:	60c2      	str	r2, [r0, #12]
1000779c:	6082      	str	r2, [r0, #8]
1000779e:	001a      	movs	r2, r3
100077a0:	464b      	mov	r3, r9
100077a2:	430a      	orrs	r2, r1
100077a4:	6042      	str	r2, [r0, #4]
100077a6:	0030      	movs	r0, r6
100077a8:	50e1      	str	r1, [r4, r3]
100077aa:	f000 f8d1 	bl	10007950 <__malloc_unlock>
100077ae:	0020      	movs	r0, r4
100077b0:	3008      	adds	r0, #8
100077b2:	e6ca      	b.n	1000754a <_malloc_r+0x18a>
100077b4:	099a      	lsrs	r2, r3, #6
100077b6:	0011      	movs	r1, r2
100077b8:	3239      	adds	r2, #57	; 0x39
100077ba:	3138      	adds	r1, #56	; 0x38
100077bc:	00d2      	lsls	r2, r2, #3
100077be:	e78e      	b.n	100076de <_malloc_r+0x31e>
100077c0:	42bc      	cmp	r4, r7
100077c2:	d060      	beq.n	10007886 <_malloc_r+0x4c6>
100077c4:	68bc      	ldr	r4, [r7, #8]
100077c6:	6862      	ldr	r2, [r4, #4]
100077c8:	2303      	movs	r3, #3
100077ca:	439a      	bics	r2, r3
100077cc:	1b53      	subs	r3, r2, r5
100077ce:	4295      	cmp	r5, r2
100077d0:	d802      	bhi.n	100077d8 <_malloc_r+0x418>
100077d2:	2b0f      	cmp	r3, #15
100077d4:	dd00      	ble.n	100077d8 <_malloc_r+0x418>
100077d6:	e76a      	b.n	100076ae <_malloc_r+0x2ee>
100077d8:	0030      	movs	r0, r6
100077da:	f000 f8b9 	bl	10007950 <__malloc_unlock>
100077de:	2000      	movs	r0, #0
100077e0:	e6b3      	b.n	1000754a <_malloc_r+0x18a>
100077e2:	235b      	movs	r3, #91	; 0x5b
100077e4:	4698      	mov	r8, r3
100077e6:	4480      	add	r8, r0
100077e8:	305c      	adds	r0, #92	; 0x5c
100077ea:	00c1      	lsls	r1, r0, #3
100077ec:	e631      	b.n	10007452 <_malloc_r+0x92>
100077ee:	2308      	movs	r3, #8
100077f0:	425b      	negs	r3, r3
100077f2:	469c      	mov	ip, r3
100077f4:	44e1      	add	r9, ip
100077f6:	464b      	mov	r3, r9
100077f8:	689b      	ldr	r3, [r3, #8]
100077fa:	3801      	subs	r0, #1
100077fc:	454b      	cmp	r3, r9
100077fe:	d000      	beq.n	10007802 <_malloc_r+0x442>
10007800:	e098      	b.n	10007934 <_malloc_r+0x574>
10007802:	4643      	mov	r3, r8
10007804:	4203      	tst	r3, r0
10007806:	d1f2      	bne.n	100077ee <_malloc_r+0x42e>
10007808:	687b      	ldr	r3, [r7, #4]
1000780a:	438b      	bics	r3, r1
1000780c:	607b      	str	r3, [r7, #4]
1000780e:	0049      	lsls	r1, r1, #1
10007810:	4299      	cmp	r1, r3
10007812:	d900      	bls.n	10007816 <_malloc_r+0x456>
10007814:	e6b7      	b.n	10007586 <_malloc_r+0x1c6>
10007816:	2900      	cmp	r1, #0
10007818:	d104      	bne.n	10007824 <_malloc_r+0x464>
1000781a:	e6b4      	b.n	10007586 <_malloc_r+0x1c6>
1000781c:	2204      	movs	r2, #4
1000781e:	4694      	mov	ip, r2
10007820:	0049      	lsls	r1, r1, #1
10007822:	44e2      	add	sl, ip
10007824:	420b      	tst	r3, r1
10007826:	d0f9      	beq.n	1000781c <_malloc_r+0x45c>
10007828:	4650      	mov	r0, sl
1000782a:	e65c      	b.n	100074e6 <_malloc_r+0x126>
1000782c:	3310      	adds	r3, #16
1000782e:	9300      	str	r3, [sp, #0]
10007830:	e6c6      	b.n	100075c0 <_malloc_r+0x200>
10007832:	1089      	asrs	r1, r1, #2
10007834:	3b02      	subs	r3, #2
10007836:	408b      	lsls	r3, r1
10007838:	6879      	ldr	r1, [r7, #4]
1000783a:	430b      	orrs	r3, r1
1000783c:	607b      	str	r3, [r7, #4]
1000783e:	e765      	b.n	1000770c <_malloc_r+0x34c>
10007840:	9b00      	ldr	r3, [sp, #0]
10007842:	0030      	movs	r0, r6
10007844:	4443      	add	r3, r8
10007846:	425b      	negs	r3, r3
10007848:	051b      	lsls	r3, r3, #20
1000784a:	0d1b      	lsrs	r3, r3, #20
1000784c:	0019      	movs	r1, r3
1000784e:	469b      	mov	fp, r3
10007850:	f000 f886 	bl	10007960 <_sbrk_r>
10007854:	1c43      	adds	r3, r0, #1
10007856:	d000      	beq.n	1000785a <_malloc_r+0x49a>
10007858:	e6f4      	b.n	10007644 <_malloc_r+0x284>
1000785a:	2300      	movs	r3, #0
1000785c:	469b      	mov	fp, r3
1000785e:	e6f6      	b.n	1000764e <_malloc_r+0x28e>
10007860:	2a54      	cmp	r2, #84	; 0x54
10007862:	d82b      	bhi.n	100078bc <_malloc_r+0x4fc>
10007864:	0b1a      	lsrs	r2, r3, #12
10007866:	0011      	movs	r1, r2
10007868:	326f      	adds	r2, #111	; 0x6f
1000786a:	316e      	adds	r1, #110	; 0x6e
1000786c:	00d2      	lsls	r2, r2, #3
1000786e:	e736      	b.n	100076de <_malloc_r+0x31e>
10007870:	23aa      	movs	r3, #170	; 0xaa
10007872:	005b      	lsls	r3, r3, #1
10007874:	4298      	cmp	r0, r3
10007876:	d82b      	bhi.n	100078d0 <_malloc_r+0x510>
10007878:	3bdd      	subs	r3, #221	; 0xdd
1000787a:	4698      	mov	r8, r3
1000787c:	0be8      	lsrs	r0, r5, #15
1000787e:	4480      	add	r8, r0
10007880:	3078      	adds	r0, #120	; 0x78
10007882:	00c1      	lsls	r1, r0, #3
10007884:	e5e5      	b.n	10007452 <_malloc_r+0x92>
10007886:	4b2c      	ldr	r3, [pc, #176]	; (10007938 <_malloc_r+0x578>)
10007888:	9a00      	ldr	r2, [sp, #0]
1000788a:	469a      	mov	sl, r3
1000788c:	681b      	ldr	r3, [r3, #0]
1000788e:	469c      	mov	ip, r3
10007890:	4653      	mov	r3, sl
10007892:	4462      	add	r2, ip
10007894:	601a      	str	r2, [r3, #0]
10007896:	e6ae      	b.n	100075f6 <_malloc_r+0x236>
10007898:	0509      	lsls	r1, r1, #20
1000789a:	d000      	beq.n	1000789e <_malloc_r+0x4de>
1000789c:	e6ab      	b.n	100075f6 <_malloc_r+0x236>
1000789e:	9a00      	ldr	r2, [sp, #0]
100078a0:	68bc      	ldr	r4, [r7, #8]
100078a2:	444a      	add	r2, r9
100078a4:	3101      	adds	r1, #1
100078a6:	430a      	orrs	r2, r1
100078a8:	6062      	str	r2, [r4, #4]
100078aa:	e6f4      	b.n	10007696 <_malloc_r+0x2d6>
100078ac:	465b      	mov	r3, fp
100078ae:	4642      	mov	r2, r8
100078b0:	601a      	str	r2, [r3, #0]
100078b2:	e6ab      	b.n	1000760c <_malloc_r+0x24c>
100078b4:	4644      	mov	r4, r8
100078b6:	e6ee      	b.n	10007696 <_malloc_r+0x2d6>
100078b8:	6041      	str	r1, [r0, #4]
100078ba:	e78d      	b.n	100077d8 <_malloc_r+0x418>
100078bc:	21aa      	movs	r1, #170	; 0xaa
100078be:	0049      	lsls	r1, r1, #1
100078c0:	428a      	cmp	r2, r1
100078c2:	d824      	bhi.n	1000790e <_malloc_r+0x54e>
100078c4:	0bda      	lsrs	r2, r3, #15
100078c6:	0011      	movs	r1, r2
100078c8:	3278      	adds	r2, #120	; 0x78
100078ca:	3177      	adds	r1, #119	; 0x77
100078cc:	00d2      	lsls	r2, r2, #3
100078ce:	e706      	b.n	100076de <_malloc_r+0x31e>
100078d0:	4b1a      	ldr	r3, [pc, #104]	; (1000793c <_malloc_r+0x57c>)
100078d2:	4298      	cmp	r0, r3
100078d4:	d824      	bhi.n	10007920 <_malloc_r+0x560>
100078d6:	237c      	movs	r3, #124	; 0x7c
100078d8:	4698      	mov	r8, r3
100078da:	0ca8      	lsrs	r0, r5, #18
100078dc:	4480      	add	r8, r0
100078de:	307d      	adds	r0, #125	; 0x7d
100078e0:	00c1      	lsls	r1, r0, #3
100078e2:	e5b6      	b.n	10007452 <_malloc_r+0x92>
100078e4:	9a00      	ldr	r2, [sp, #0]
100078e6:	9b01      	ldr	r3, [sp, #4]
100078e8:	4694      	mov	ip, r2
100078ea:	4642      	mov	r2, r8
100078ec:	3b08      	subs	r3, #8
100078ee:	4463      	add	r3, ip
100078f0:	1a9b      	subs	r3, r3, r2
100078f2:	9300      	str	r3, [sp, #0]
100078f4:	2300      	movs	r3, #0
100078f6:	469b      	mov	fp, r3
100078f8:	e6a9      	b.n	1000764e <_malloc_r+0x28e>
100078fa:	0021      	movs	r1, r4
100078fc:	0030      	movs	r0, r6
100078fe:	3108      	adds	r1, #8
10007900:	f000 fa2c 	bl	10007d5c <_free_r>
10007904:	4653      	mov	r3, sl
10007906:	68bc      	ldr	r4, [r7, #8]
10007908:	681b      	ldr	r3, [r3, #0]
1000790a:	6862      	ldr	r2, [r4, #4]
1000790c:	e6c3      	b.n	10007696 <_malloc_r+0x2d6>
1000790e:	490b      	ldr	r1, [pc, #44]	; (1000793c <_malloc_r+0x57c>)
10007910:	428a      	cmp	r2, r1
10007912:	d80b      	bhi.n	1000792c <_malloc_r+0x56c>
10007914:	0c9a      	lsrs	r2, r3, #18
10007916:	0011      	movs	r1, r2
10007918:	327d      	adds	r2, #125	; 0x7d
1000791a:	317c      	adds	r1, #124	; 0x7c
1000791c:	00d2      	lsls	r2, r2, #3
1000791e:	e6de      	b.n	100076de <_malloc_r+0x31e>
10007920:	21fe      	movs	r1, #254	; 0xfe
10007922:	237e      	movs	r3, #126	; 0x7e
10007924:	207f      	movs	r0, #127	; 0x7f
10007926:	4698      	mov	r8, r3
10007928:	0089      	lsls	r1, r1, #2
1000792a:	e592      	b.n	10007452 <_malloc_r+0x92>
1000792c:	22fe      	movs	r2, #254	; 0xfe
1000792e:	217e      	movs	r1, #126	; 0x7e
10007930:	0092      	lsls	r2, r2, #2
10007932:	e6d4      	b.n	100076de <_malloc_r+0x31e>
10007934:	687b      	ldr	r3, [r7, #4]
10007936:	e76a      	b.n	1000780e <_malloc_r+0x44e>
10007938:	200012b8 	.word	0x200012b8
1000793c:	00000554 	.word	0x00000554

10007940 <__malloc_lock>:
10007940:	b510      	push	{r4, lr}
10007942:	4802      	ldr	r0, [pc, #8]	; (1000794c <__malloc_lock+0xc>)
10007944:	f7ff fd2e 	bl	100073a4 <__retarget_lock_acquire_recursive>
10007948:	bd10      	pop	{r4, pc}
1000794a:	46c0      	nop			; (mov r8, r8)
1000794c:	2000206c 	.word	0x2000206c

10007950 <__malloc_unlock>:
10007950:	b510      	push	{r4, lr}
10007952:	4802      	ldr	r0, [pc, #8]	; (1000795c <__malloc_unlock+0xc>)
10007954:	f7ff fd28 	bl	100073a8 <__retarget_lock_release_recursive>
10007958:	bd10      	pop	{r4, pc}
1000795a:	46c0      	nop			; (mov r8, r8)
1000795c:	2000206c 	.word	0x2000206c

10007960 <_sbrk_r>:
10007960:	2300      	movs	r3, #0
10007962:	b570      	push	{r4, r5, r6, lr}
10007964:	4d06      	ldr	r5, [pc, #24]	; (10007980 <_sbrk_r+0x20>)
10007966:	0004      	movs	r4, r0
10007968:	0008      	movs	r0, r1
1000796a:	602b      	str	r3, [r5, #0]
1000796c:	f7fd fe3c 	bl	100055e8 <_sbrk>
10007970:	1c43      	adds	r3, r0, #1
10007972:	d000      	beq.n	10007976 <_sbrk_r+0x16>
10007974:	bd70      	pop	{r4, r5, r6, pc}
10007976:	682b      	ldr	r3, [r5, #0]
10007978:	2b00      	cmp	r3, #0
1000797a:	d0fb      	beq.n	10007974 <_sbrk_r+0x14>
1000797c:	6023      	str	r3, [r4, #0]
1000797e:	e7f9      	b.n	10007974 <_sbrk_r+0x14>
10007980:	20002080 	.word	0x20002080

10007984 <strlen>:
10007984:	b510      	push	{r4, lr}
10007986:	0783      	lsls	r3, r0, #30
10007988:	d00a      	beq.n	100079a0 <strlen+0x1c>
1000798a:	0003      	movs	r3, r0
1000798c:	2103      	movs	r1, #3
1000798e:	e002      	b.n	10007996 <strlen+0x12>
10007990:	3301      	adds	r3, #1
10007992:	420b      	tst	r3, r1
10007994:	d005      	beq.n	100079a2 <strlen+0x1e>
10007996:	781a      	ldrb	r2, [r3, #0]
10007998:	2a00      	cmp	r2, #0
1000799a:	d1f9      	bne.n	10007990 <strlen+0xc>
1000799c:	1a18      	subs	r0, r3, r0
1000799e:	bd10      	pop	{r4, pc}
100079a0:	0003      	movs	r3, r0
100079a2:	6819      	ldr	r1, [r3, #0]
100079a4:	4a0c      	ldr	r2, [pc, #48]	; (100079d8 <strlen+0x54>)
100079a6:	4c0d      	ldr	r4, [pc, #52]	; (100079dc <strlen+0x58>)
100079a8:	188a      	adds	r2, r1, r2
100079aa:	438a      	bics	r2, r1
100079ac:	4222      	tst	r2, r4
100079ae:	d10f      	bne.n	100079d0 <strlen+0x4c>
100079b0:	6859      	ldr	r1, [r3, #4]
100079b2:	4a09      	ldr	r2, [pc, #36]	; (100079d8 <strlen+0x54>)
100079b4:	3304      	adds	r3, #4
100079b6:	188a      	adds	r2, r1, r2
100079b8:	438a      	bics	r2, r1
100079ba:	4222      	tst	r2, r4
100079bc:	d108      	bne.n	100079d0 <strlen+0x4c>
100079be:	6859      	ldr	r1, [r3, #4]
100079c0:	4a05      	ldr	r2, [pc, #20]	; (100079d8 <strlen+0x54>)
100079c2:	3304      	adds	r3, #4
100079c4:	188a      	adds	r2, r1, r2
100079c6:	438a      	bics	r2, r1
100079c8:	4222      	tst	r2, r4
100079ca:	d0f1      	beq.n	100079b0 <strlen+0x2c>
100079cc:	e000      	b.n	100079d0 <strlen+0x4c>
100079ce:	3301      	adds	r3, #1
100079d0:	781a      	ldrb	r2, [r3, #0]
100079d2:	2a00      	cmp	r2, #0
100079d4:	d1fb      	bne.n	100079ce <strlen+0x4a>
100079d6:	e7e1      	b.n	1000799c <strlen+0x18>
100079d8:	fefefeff 	.word	0xfefefeff
100079dc:	80808080 	.word	0x80808080

100079e0 <_write_r>:
100079e0:	b570      	push	{r4, r5, r6, lr}
100079e2:	0004      	movs	r4, r0
100079e4:	0008      	movs	r0, r1
100079e6:	0011      	movs	r1, r2
100079e8:	001a      	movs	r2, r3
100079ea:	2300      	movs	r3, #0
100079ec:	4d05      	ldr	r5, [pc, #20]	; (10007a04 <_write_r+0x24>)
100079ee:	602b      	str	r3, [r5, #0]
100079f0:	f7f8 fef2 	bl	100007d8 <_write>
100079f4:	1c43      	adds	r3, r0, #1
100079f6:	d000      	beq.n	100079fa <_write_r+0x1a>
100079f8:	bd70      	pop	{r4, r5, r6, pc}
100079fa:	682b      	ldr	r3, [r5, #0]
100079fc:	2b00      	cmp	r3, #0
100079fe:	d0fb      	beq.n	100079f8 <_write_r+0x18>
10007a00:	6023      	str	r3, [r4, #0]
10007a02:	e7f9      	b.n	100079f8 <_write_r+0x18>
10007a04:	20002080 	.word	0x20002080

10007a08 <__sflush_r>:
10007a08:	b5f0      	push	{r4, r5, r6, r7, lr}
10007a0a:	46c6      	mov	lr, r8
10007a0c:	000c      	movs	r4, r1
10007a0e:	b500      	push	{lr}
10007a10:	89a2      	ldrh	r2, [r4, #12]
10007a12:	4680      	mov	r8, r0
10007a14:	230c      	movs	r3, #12
10007a16:	5ec9      	ldrsh	r1, [r1, r3]
10007a18:	0713      	lsls	r3, r2, #28
10007a1a:	d44c      	bmi.n	10007ab6 <__sflush_r+0xae>
10007a1c:	2380      	movs	r3, #128	; 0x80
10007a1e:	6862      	ldr	r2, [r4, #4]
10007a20:	011b      	lsls	r3, r3, #4
10007a22:	430b      	orrs	r3, r1
10007a24:	81a3      	strh	r3, [r4, #12]
10007a26:	2a00      	cmp	r2, #0
10007a28:	dd66      	ble.n	10007af8 <__sflush_r+0xf0>
10007a2a:	6aa6      	ldr	r6, [r4, #40]	; 0x28
10007a2c:	2e00      	cmp	r6, #0
10007a2e:	d03e      	beq.n	10007aae <__sflush_r+0xa6>
10007a30:	4642      	mov	r2, r8
10007a32:	4641      	mov	r1, r8
10007a34:	6815      	ldr	r5, [r2, #0]
10007a36:	2200      	movs	r2, #0
10007a38:	600a      	str	r2, [r1, #0]
10007a3a:	b29a      	uxth	r2, r3
10007a3c:	04db      	lsls	r3, r3, #19
10007a3e:	d460      	bmi.n	10007b02 <__sflush_r+0xfa>
10007a40:	2301      	movs	r3, #1
10007a42:	2200      	movs	r2, #0
10007a44:	4640      	mov	r0, r8
10007a46:	69e1      	ldr	r1, [r4, #28]
10007a48:	47b0      	blx	r6
10007a4a:	1c43      	adds	r3, r0, #1
10007a4c:	d068      	beq.n	10007b20 <__sflush_r+0x118>
10007a4e:	89a2      	ldrh	r2, [r4, #12]
10007a50:	6aa6      	ldr	r6, [r4, #40]	; 0x28
10007a52:	0753      	lsls	r3, r2, #29
10007a54:	d506      	bpl.n	10007a64 <__sflush_r+0x5c>
10007a56:	6863      	ldr	r3, [r4, #4]
10007a58:	1ac0      	subs	r0, r0, r3
10007a5a:	6b23      	ldr	r3, [r4, #48]	; 0x30
10007a5c:	2b00      	cmp	r3, #0
10007a5e:	d001      	beq.n	10007a64 <__sflush_r+0x5c>
10007a60:	6be3      	ldr	r3, [r4, #60]	; 0x3c
10007a62:	1ac0      	subs	r0, r0, r3
10007a64:	2300      	movs	r3, #0
10007a66:	0002      	movs	r2, r0
10007a68:	69e1      	ldr	r1, [r4, #28]
10007a6a:	4640      	mov	r0, r8
10007a6c:	47b0      	blx	r6
10007a6e:	1c43      	adds	r3, r0, #1
10007a70:	d149      	bne.n	10007b06 <__sflush_r+0xfe>
10007a72:	4643      	mov	r3, r8
10007a74:	681b      	ldr	r3, [r3, #0]
10007a76:	2b00      	cmp	r3, #0
10007a78:	d045      	beq.n	10007b06 <__sflush_r+0xfe>
10007a7a:	2b1d      	cmp	r3, #29
10007a7c:	d001      	beq.n	10007a82 <__sflush_r+0x7a>
10007a7e:	2b16      	cmp	r3, #22
10007a80:	d157      	bne.n	10007b32 <__sflush_r+0x12a>
10007a82:	89a3      	ldrh	r3, [r4, #12]
10007a84:	4a2f      	ldr	r2, [pc, #188]	; (10007b44 <__sflush_r+0x13c>)
10007a86:	4013      	ands	r3, r2
10007a88:	81a3      	strh	r3, [r4, #12]
10007a8a:	2300      	movs	r3, #0
10007a8c:	6063      	str	r3, [r4, #4]
10007a8e:	6923      	ldr	r3, [r4, #16]
10007a90:	6023      	str	r3, [r4, #0]
10007a92:	4643      	mov	r3, r8
10007a94:	6b21      	ldr	r1, [r4, #48]	; 0x30
10007a96:	601d      	str	r5, [r3, #0]
10007a98:	2900      	cmp	r1, #0
10007a9a:	d008      	beq.n	10007aae <__sflush_r+0xa6>
10007a9c:	0023      	movs	r3, r4
10007a9e:	3340      	adds	r3, #64	; 0x40
10007aa0:	4299      	cmp	r1, r3
10007aa2:	d002      	beq.n	10007aaa <__sflush_r+0xa2>
10007aa4:	4640      	mov	r0, r8
10007aa6:	f000 f959 	bl	10007d5c <_free_r>
10007aaa:	2300      	movs	r3, #0
10007aac:	6323      	str	r3, [r4, #48]	; 0x30
10007aae:	2000      	movs	r0, #0
10007ab0:	bc04      	pop	{r2}
10007ab2:	4690      	mov	r8, r2
10007ab4:	bdf0      	pop	{r4, r5, r6, r7, pc}
10007ab6:	6926      	ldr	r6, [r4, #16]
10007ab8:	2e00      	cmp	r6, #0
10007aba:	d0f8      	beq.n	10007aae <__sflush_r+0xa6>
10007abc:	6823      	ldr	r3, [r4, #0]
10007abe:	6026      	str	r6, [r4, #0]
10007ac0:	1b9d      	subs	r5, r3, r6
10007ac2:	2300      	movs	r3, #0
10007ac4:	0792      	lsls	r2, r2, #30
10007ac6:	d100      	bne.n	10007aca <__sflush_r+0xc2>
10007ac8:	6963      	ldr	r3, [r4, #20]
10007aca:	60a3      	str	r3, [r4, #8]
10007acc:	2d00      	cmp	r5, #0
10007ace:	dc04      	bgt.n	10007ada <__sflush_r+0xd2>
10007ad0:	e7ed      	b.n	10007aae <__sflush_r+0xa6>
10007ad2:	1836      	adds	r6, r6, r0
10007ad4:	1a2d      	subs	r5, r5, r0
10007ad6:	2d00      	cmp	r5, #0
10007ad8:	dde9      	ble.n	10007aae <__sflush_r+0xa6>
10007ada:	002b      	movs	r3, r5
10007adc:	0032      	movs	r2, r6
10007ade:	4640      	mov	r0, r8
10007ae0:	69e1      	ldr	r1, [r4, #28]
10007ae2:	6a67      	ldr	r7, [r4, #36]	; 0x24
10007ae4:	47b8      	blx	r7
10007ae6:	2800      	cmp	r0, #0
10007ae8:	dcf3      	bgt.n	10007ad2 <__sflush_r+0xca>
10007aea:	2240      	movs	r2, #64	; 0x40
10007aec:	2001      	movs	r0, #1
10007aee:	89a3      	ldrh	r3, [r4, #12]
10007af0:	4240      	negs	r0, r0
10007af2:	4313      	orrs	r3, r2
10007af4:	81a3      	strh	r3, [r4, #12]
10007af6:	e7db      	b.n	10007ab0 <__sflush_r+0xa8>
10007af8:	6be2      	ldr	r2, [r4, #60]	; 0x3c
10007afa:	2a00      	cmp	r2, #0
10007afc:	dd00      	ble.n	10007b00 <__sflush_r+0xf8>
10007afe:	e794      	b.n	10007a2a <__sflush_r+0x22>
10007b00:	e7d5      	b.n	10007aae <__sflush_r+0xa6>
10007b02:	6d20      	ldr	r0, [r4, #80]	; 0x50
10007b04:	e7a5      	b.n	10007a52 <__sflush_r+0x4a>
10007b06:	89a3      	ldrh	r3, [r4, #12]
10007b08:	4a0e      	ldr	r2, [pc, #56]	; (10007b44 <__sflush_r+0x13c>)
10007b0a:	4013      	ands	r3, r2
10007b0c:	2200      	movs	r2, #0
10007b0e:	6062      	str	r2, [r4, #4]
10007b10:	6922      	ldr	r2, [r4, #16]
10007b12:	b21b      	sxth	r3, r3
10007b14:	81a3      	strh	r3, [r4, #12]
10007b16:	6022      	str	r2, [r4, #0]
10007b18:	04db      	lsls	r3, r3, #19
10007b1a:	d5ba      	bpl.n	10007a92 <__sflush_r+0x8a>
10007b1c:	6520      	str	r0, [r4, #80]	; 0x50
10007b1e:	e7b8      	b.n	10007a92 <__sflush_r+0x8a>
10007b20:	4643      	mov	r3, r8
10007b22:	681b      	ldr	r3, [r3, #0]
10007b24:	2b00      	cmp	r3, #0
10007b26:	d100      	bne.n	10007b2a <__sflush_r+0x122>
10007b28:	e791      	b.n	10007a4e <__sflush_r+0x46>
10007b2a:	2b1d      	cmp	r3, #29
10007b2c:	d006      	beq.n	10007b3c <__sflush_r+0x134>
10007b2e:	2b16      	cmp	r3, #22
10007b30:	d004      	beq.n	10007b3c <__sflush_r+0x134>
10007b32:	2240      	movs	r2, #64	; 0x40
10007b34:	89a3      	ldrh	r3, [r4, #12]
10007b36:	4313      	orrs	r3, r2
10007b38:	81a3      	strh	r3, [r4, #12]
10007b3a:	e7b9      	b.n	10007ab0 <__sflush_r+0xa8>
10007b3c:	4643      	mov	r3, r8
10007b3e:	2000      	movs	r0, #0
10007b40:	601d      	str	r5, [r3, #0]
10007b42:	e7b5      	b.n	10007ab0 <__sflush_r+0xa8>
10007b44:	fffff7ff 	.word	0xfffff7ff

10007b48 <_fflush_r>:
10007b48:	b570      	push	{r4, r5, r6, lr}
10007b4a:	0005      	movs	r5, r0
10007b4c:	000c      	movs	r4, r1
10007b4e:	2800      	cmp	r0, #0
10007b50:	d002      	beq.n	10007b58 <_fflush_r+0x10>
10007b52:	6b83      	ldr	r3, [r0, #56]	; 0x38
10007b54:	2b00      	cmp	r3, #0
10007b56:	d015      	beq.n	10007b84 <_fflush_r+0x3c>
10007b58:	220c      	movs	r2, #12
10007b5a:	5ea3      	ldrsh	r3, [r4, r2]
10007b5c:	2b00      	cmp	r3, #0
10007b5e:	d017      	beq.n	10007b90 <_fflush_r+0x48>
10007b60:	6e62      	ldr	r2, [r4, #100]	; 0x64
10007b62:	07d2      	lsls	r2, r2, #31
10007b64:	d401      	bmi.n	10007b6a <_fflush_r+0x22>
10007b66:	059b      	lsls	r3, r3, #22
10007b68:	d514      	bpl.n	10007b94 <_fflush_r+0x4c>
10007b6a:	0028      	movs	r0, r5
10007b6c:	0021      	movs	r1, r4
10007b6e:	f7ff ff4b 	bl	10007a08 <__sflush_r>
10007b72:	6e63      	ldr	r3, [r4, #100]	; 0x64
10007b74:	0005      	movs	r5, r0
10007b76:	07db      	lsls	r3, r3, #31
10007b78:	d402      	bmi.n	10007b80 <_fflush_r+0x38>
10007b7a:	89a3      	ldrh	r3, [r4, #12]
10007b7c:	059b      	lsls	r3, r3, #22
10007b7e:	d515      	bpl.n	10007bac <_fflush_r+0x64>
10007b80:	0028      	movs	r0, r5
10007b82:	bd70      	pop	{r4, r5, r6, pc}
10007b84:	f000 f85c 	bl	10007c40 <__sinit>
10007b88:	220c      	movs	r2, #12
10007b8a:	5ea3      	ldrsh	r3, [r4, r2]
10007b8c:	2b00      	cmp	r3, #0
10007b8e:	d1e7      	bne.n	10007b60 <_fflush_r+0x18>
10007b90:	2500      	movs	r5, #0
10007b92:	e7f5      	b.n	10007b80 <_fflush_r+0x38>
10007b94:	6da0      	ldr	r0, [r4, #88]	; 0x58
10007b96:	f7ff fc05 	bl	100073a4 <__retarget_lock_acquire_recursive>
10007b9a:	0028      	movs	r0, r5
10007b9c:	0021      	movs	r1, r4
10007b9e:	f7ff ff33 	bl	10007a08 <__sflush_r>
10007ba2:	6e63      	ldr	r3, [r4, #100]	; 0x64
10007ba4:	0005      	movs	r5, r0
10007ba6:	07db      	lsls	r3, r3, #31
10007ba8:	d4ea      	bmi.n	10007b80 <_fflush_r+0x38>
10007baa:	e7e6      	b.n	10007b7a <_fflush_r+0x32>
10007bac:	6da0      	ldr	r0, [r4, #88]	; 0x58
10007bae:	f7ff fbfb 	bl	100073a8 <__retarget_lock_release_recursive>
10007bb2:	e7e5      	b.n	10007b80 <_fflush_r+0x38>

10007bb4 <fflush>:
10007bb4:	0001      	movs	r1, r0
10007bb6:	b510      	push	{r4, lr}
10007bb8:	2800      	cmp	r0, #0
10007bba:	d004      	beq.n	10007bc6 <fflush+0x12>
10007bbc:	4b05      	ldr	r3, [pc, #20]	; (10007bd4 <fflush+0x20>)
10007bbe:	6818      	ldr	r0, [r3, #0]
10007bc0:	f7ff ffc2 	bl	10007b48 <_fflush_r>
10007bc4:	bd10      	pop	{r4, pc}
10007bc6:	4b04      	ldr	r3, [pc, #16]	; (10007bd8 <fflush+0x24>)
10007bc8:	4904      	ldr	r1, [pc, #16]	; (10007bdc <fflush+0x28>)
10007bca:	6818      	ldr	r0, [r3, #0]
10007bcc:	f000 f9c8 	bl	10007f60 <_fwalk_reent>
10007bd0:	e7f8      	b.n	10007bc4 <fflush+0x10>
10007bd2:	46c0      	nop			; (mov r8, r8)
10007bd4:	20000390 	.word	0x20000390
10007bd8:	10008df0 	.word	0x10008df0
10007bdc:	10007b49 	.word	0x10007b49

10007be0 <std>:
10007be0:	2300      	movs	r3, #0
10007be2:	b510      	push	{r4, lr}
10007be4:	0004      	movs	r4, r0
10007be6:	6003      	str	r3, [r0, #0]
10007be8:	6043      	str	r3, [r0, #4]
10007bea:	6083      	str	r3, [r0, #8]
10007bec:	8181      	strh	r1, [r0, #12]
10007bee:	6643      	str	r3, [r0, #100]	; 0x64
10007bf0:	2100      	movs	r1, #0
10007bf2:	81c2      	strh	r2, [r0, #14]
10007bf4:	6103      	str	r3, [r0, #16]
10007bf6:	2208      	movs	r2, #8
10007bf8:	6143      	str	r3, [r0, #20]
10007bfa:	6183      	str	r3, [r0, #24]
10007bfc:	305c      	adds	r0, #92	; 0x5c
10007bfe:	f7fe fe17 	bl	10006830 <__wrap_memset>
10007c02:	0020      	movs	r0, r4
10007c04:	4b06      	ldr	r3, [pc, #24]	; (10007c20 <std+0x40>)
10007c06:	61e4      	str	r4, [r4, #28]
10007c08:	6223      	str	r3, [r4, #32]
10007c0a:	4b06      	ldr	r3, [pc, #24]	; (10007c24 <std+0x44>)
10007c0c:	3058      	adds	r0, #88	; 0x58
10007c0e:	6263      	str	r3, [r4, #36]	; 0x24
10007c10:	4b05      	ldr	r3, [pc, #20]	; (10007c28 <std+0x48>)
10007c12:	62a3      	str	r3, [r4, #40]	; 0x28
10007c14:	4b05      	ldr	r3, [pc, #20]	; (10007c2c <std+0x4c>)
10007c16:	62e3      	str	r3, [r4, #44]	; 0x2c
10007c18:	f7ff fbc0 	bl	1000739c <__retarget_lock_init_recursive>
10007c1c:	bd10      	pop	{r4, pc}
10007c1e:	46c0      	nop			; (mov r8, r8)
10007c20:	10008131 	.word	0x10008131
10007c24:	10008159 	.word	0x10008159
10007c28:	10008199 	.word	0x10008199
10007c2c:	100081c5 	.word	0x100081c5

10007c30 <_cleanup_r>:
10007c30:	b510      	push	{r4, lr}
10007c32:	4902      	ldr	r1, [pc, #8]	; (10007c3c <_cleanup_r+0xc>)
10007c34:	f000 f994 	bl	10007f60 <_fwalk_reent>
10007c38:	bd10      	pop	{r4, pc}
10007c3a:	46c0      	nop			; (mov r8, r8)
10007c3c:	100081f5 	.word	0x100081f5

10007c40 <__sinit>:
10007c40:	b570      	push	{r4, r5, r6, lr}
10007c42:	0004      	movs	r4, r0
10007c44:	4d14      	ldr	r5, [pc, #80]	; (10007c98 <__sinit+0x58>)
10007c46:	0028      	movs	r0, r5
10007c48:	f7ff fbac 	bl	100073a4 <__retarget_lock_acquire_recursive>
10007c4c:	6ba3      	ldr	r3, [r4, #56]	; 0x38
10007c4e:	2b00      	cmp	r3, #0
10007c50:	d11d      	bne.n	10007c8e <__sinit+0x4e>
10007c52:	4a12      	ldr	r2, [pc, #72]	; (10007c9c <__sinit+0x5c>)
10007c54:	2104      	movs	r1, #4
10007c56:	63e2      	str	r2, [r4, #60]	; 0x3c
10007c58:	22b8      	movs	r2, #184	; 0xb8
10007c5a:	0092      	lsls	r2, r2, #2
10007c5c:	50a3      	str	r3, [r4, r2]
10007c5e:	23b9      	movs	r3, #185	; 0xb9
10007c60:	2203      	movs	r2, #3
10007c62:	009b      	lsls	r3, r3, #2
10007c64:	50e2      	str	r2, [r4, r3]
10007c66:	3308      	adds	r3, #8
10007c68:	18e2      	adds	r2, r4, r3
10007c6a:	3b04      	subs	r3, #4
10007c6c:	50e2      	str	r2, [r4, r3]
10007c6e:	6860      	ldr	r0, [r4, #4]
10007c70:	2200      	movs	r2, #0
10007c72:	f7ff ffb5 	bl	10007be0 <std>
10007c76:	2201      	movs	r2, #1
10007c78:	2109      	movs	r1, #9
10007c7a:	68a0      	ldr	r0, [r4, #8]
10007c7c:	f7ff ffb0 	bl	10007be0 <std>
10007c80:	2202      	movs	r2, #2
10007c82:	2112      	movs	r1, #18
10007c84:	68e0      	ldr	r0, [r4, #12]
10007c86:	f7ff ffab 	bl	10007be0 <std>
10007c8a:	2301      	movs	r3, #1
10007c8c:	63a3      	str	r3, [r4, #56]	; 0x38
10007c8e:	0028      	movs	r0, r5
10007c90:	f7ff fb8a 	bl	100073a8 <__retarget_lock_release_recursive>
10007c94:	bd70      	pop	{r4, r5, r6, pc}
10007c96:	46c0      	nop			; (mov r8, r8)
10007c98:	20002068 	.word	0x20002068
10007c9c:	10007c31 	.word	0x10007c31

10007ca0 <__sfp_lock_acquire>:
10007ca0:	b510      	push	{r4, lr}
10007ca2:	4802      	ldr	r0, [pc, #8]	; (10007cac <__sfp_lock_acquire+0xc>)
10007ca4:	f7ff fb7e 	bl	100073a4 <__retarget_lock_acquire_recursive>
10007ca8:	bd10      	pop	{r4, pc}
10007caa:	46c0      	nop			; (mov r8, r8)
10007cac:	2000207c 	.word	0x2000207c

10007cb0 <__sfp_lock_release>:
10007cb0:	b510      	push	{r4, lr}
10007cb2:	4802      	ldr	r0, [pc, #8]	; (10007cbc <__sfp_lock_release+0xc>)
10007cb4:	f7ff fb78 	bl	100073a8 <__retarget_lock_release_recursive>
10007cb8:	bd10      	pop	{r4, pc}
10007cba:	46c0      	nop			; (mov r8, r8)
10007cbc:	2000207c 	.word	0x2000207c

10007cc0 <_malloc_trim_r>:
10007cc0:	b5f8      	push	{r3, r4, r5, r6, r7, lr}
10007cc2:	000c      	movs	r4, r1
10007cc4:	0005      	movs	r5, r0
10007cc6:	f7ff fe3b 	bl	10007940 <__malloc_lock>
10007cca:	4f20      	ldr	r7, [pc, #128]	; (10007d4c <_malloc_trim_r+0x8c>)
10007ccc:	68bb      	ldr	r3, [r7, #8]
10007cce:	685e      	ldr	r6, [r3, #4]
10007cd0:	2303      	movs	r3, #3
10007cd2:	439e      	bics	r6, r3
10007cd4:	4b1e      	ldr	r3, [pc, #120]	; (10007d50 <_malloc_trim_r+0x90>)
10007cd6:	1b34      	subs	r4, r6, r4
10007cd8:	469c      	mov	ip, r3
10007cda:	4464      	add	r4, ip
10007cdc:	0b24      	lsrs	r4, r4, #12
10007cde:	3c01      	subs	r4, #1
10007ce0:	3311      	adds	r3, #17
10007ce2:	0324      	lsls	r4, r4, #12
10007ce4:	429c      	cmp	r4, r3
10007ce6:	db07      	blt.n	10007cf8 <_malloc_trim_r+0x38>
10007ce8:	2100      	movs	r1, #0
10007cea:	0028      	movs	r0, r5
10007cec:	f7ff fe38 	bl	10007960 <_sbrk_r>
10007cf0:	68bb      	ldr	r3, [r7, #8]
10007cf2:	199b      	adds	r3, r3, r6
10007cf4:	4298      	cmp	r0, r3
10007cf6:	d004      	beq.n	10007d02 <_malloc_trim_r+0x42>
10007cf8:	0028      	movs	r0, r5
10007cfa:	f7ff fe29 	bl	10007950 <__malloc_unlock>
10007cfe:	2000      	movs	r0, #0
10007d00:	bdf8      	pop	{r3, r4, r5, r6, r7, pc}
10007d02:	0028      	movs	r0, r5
10007d04:	4261      	negs	r1, r4
10007d06:	f7ff fe2b 	bl	10007960 <_sbrk_r>
10007d0a:	1c43      	adds	r3, r0, #1
10007d0c:	d00d      	beq.n	10007d2a <_malloc_trim_r+0x6a>
10007d0e:	2201      	movs	r2, #1
10007d10:	68bb      	ldr	r3, [r7, #8]
10007d12:	1b36      	subs	r6, r6, r4
10007d14:	4316      	orrs	r6, r2
10007d16:	605e      	str	r6, [r3, #4]
10007d18:	4b0e      	ldr	r3, [pc, #56]	; (10007d54 <_malloc_trim_r+0x94>)
10007d1a:	0028      	movs	r0, r5
10007d1c:	681a      	ldr	r2, [r3, #0]
10007d1e:	1b14      	subs	r4, r2, r4
10007d20:	601c      	str	r4, [r3, #0]
10007d22:	f7ff fe15 	bl	10007950 <__malloc_unlock>
10007d26:	2001      	movs	r0, #1
10007d28:	e7ea      	b.n	10007d00 <_malloc_trim_r+0x40>
10007d2a:	2100      	movs	r1, #0
10007d2c:	0028      	movs	r0, r5
10007d2e:	f7ff fe17 	bl	10007960 <_sbrk_r>
10007d32:	68ba      	ldr	r2, [r7, #8]
10007d34:	1a83      	subs	r3, r0, r2
10007d36:	2b0f      	cmp	r3, #15
10007d38:	ddde      	ble.n	10007cf8 <_malloc_trim_r+0x38>
10007d3a:	4907      	ldr	r1, [pc, #28]	; (10007d58 <_malloc_trim_r+0x98>)
10007d3c:	6809      	ldr	r1, [r1, #0]
10007d3e:	1a40      	subs	r0, r0, r1
10007d40:	4904      	ldr	r1, [pc, #16]	; (10007d54 <_malloc_trim_r+0x94>)
10007d42:	6008      	str	r0, [r1, #0]
10007d44:	2101      	movs	r1, #1
10007d46:	430b      	orrs	r3, r1
10007d48:	6053      	str	r3, [r2, #4]
10007d4a:	e7d5      	b.n	10007cf8 <_malloc_trim_r+0x38>
10007d4c:	200007c0 	.word	0x200007c0
10007d50:	00000fef 	.word	0x00000fef
10007d54:	200012b8 	.word	0x200012b8
10007d58:	20000bc8 	.word	0x20000bc8

10007d5c <_free_r>:
10007d5c:	b5f0      	push	{r4, r5, r6, r7, lr}
10007d5e:	46c6      	mov	lr, r8
10007d60:	0005      	movs	r5, r0
10007d62:	000c      	movs	r4, r1
10007d64:	b500      	push	{lr}
10007d66:	2900      	cmp	r1, #0
10007d68:	d04f      	beq.n	10007e0a <_free_r+0xae>
10007d6a:	f7ff fde9 	bl	10007940 <__malloc_lock>
10007d6e:	0021      	movs	r1, r4
10007d70:	3908      	subs	r1, #8
10007d72:	684c      	ldr	r4, [r1, #4]
10007d74:	2601      	movs	r6, #1
10007d76:	0022      	movs	r2, r4
10007d78:	2003      	movs	r0, #3
10007d7a:	43b2      	bics	r2, r6
10007d7c:	188f      	adds	r7, r1, r2
10007d7e:	687b      	ldr	r3, [r7, #4]
10007d80:	4383      	bics	r3, r0
10007d82:	4862      	ldr	r0, [pc, #392]	; (10007f0c <_free_r+0x1b0>)
10007d84:	4698      	mov	r8, r3
10007d86:	6883      	ldr	r3, [r0, #8]
10007d88:	42bb      	cmp	r3, r7
10007d8a:	d06b      	beq.n	10007e64 <_free_r+0x108>
10007d8c:	4643      	mov	r3, r8
10007d8e:	607b      	str	r3, [r7, #4]
10007d90:	4226      	tst	r6, r4
10007d92:	d11e      	bne.n	10007dd2 <_free_r+0x76>
10007d94:	2308      	movs	r3, #8
10007d96:	469c      	mov	ip, r3
10007d98:	680c      	ldr	r4, [r1, #0]
10007d9a:	4484      	add	ip, r0
10007d9c:	1b09      	subs	r1, r1, r4
10007d9e:	1912      	adds	r2, r2, r4
10007da0:	688c      	ldr	r4, [r1, #8]
10007da2:	4564      	cmp	r4, ip
10007da4:	d04f      	beq.n	10007e46 <_free_r+0xea>
10007da6:	68cb      	ldr	r3, [r1, #12]
10007da8:	60e3      	str	r3, [r4, #12]
10007daa:	609c      	str	r4, [r3, #8]
10007dac:	4643      	mov	r3, r8
10007dae:	18fc      	adds	r4, r7, r3
10007db0:	6864      	ldr	r4, [r4, #4]
10007db2:	4234      	tst	r4, r6
10007db4:	d111      	bne.n	10007dda <_free_r+0x7e>
10007db6:	68bb      	ldr	r3, [r7, #8]
10007db8:	4c55      	ldr	r4, [pc, #340]	; (10007f10 <_free_r+0x1b4>)
10007dba:	4442      	add	r2, r8
10007dbc:	42a3      	cmp	r3, r4
10007dbe:	d100      	bne.n	10007dc2 <_free_r+0x66>
10007dc0:	e07f      	b.n	10007ec2 <_free_r+0x166>
10007dc2:	68fc      	ldr	r4, [r7, #12]
10007dc4:	60dc      	str	r4, [r3, #12]
10007dc6:	60a3      	str	r3, [r4, #8]
10007dc8:	2301      	movs	r3, #1
10007dca:	4313      	orrs	r3, r2
10007dcc:	604b      	str	r3, [r1, #4]
10007dce:	508a      	str	r2, [r1, r2]
10007dd0:	e006      	b.n	10007de0 <_free_r+0x84>
10007dd2:	18fc      	adds	r4, r7, r3
10007dd4:	6864      	ldr	r4, [r4, #4]
10007dd6:	4234      	tst	r4, r6
10007dd8:	d0ed      	beq.n	10007db6 <_free_r+0x5a>
10007dda:	4316      	orrs	r6, r2
10007ddc:	604e      	str	r6, [r1, #4]
10007dde:	603a      	str	r2, [r7, #0]
10007de0:	2380      	movs	r3, #128	; 0x80
10007de2:	009b      	lsls	r3, r3, #2
10007de4:	429a      	cmp	r2, r3
10007de6:	d213      	bcs.n	10007e10 <_free_r+0xb4>
10007de8:	0954      	lsrs	r4, r2, #5
10007dea:	08d3      	lsrs	r3, r2, #3
10007dec:	2201      	movs	r2, #1
10007dee:	40a2      	lsls	r2, r4
10007df0:	6844      	ldr	r4, [r0, #4]
10007df2:	00db      	lsls	r3, r3, #3
10007df4:	4322      	orrs	r2, r4
10007df6:	6042      	str	r2, [r0, #4]
10007df8:	1818      	adds	r0, r3, r0
10007dfa:	6883      	ldr	r3, [r0, #8]
10007dfc:	60c8      	str	r0, [r1, #12]
10007dfe:	608b      	str	r3, [r1, #8]
10007e00:	6081      	str	r1, [r0, #8]
10007e02:	60d9      	str	r1, [r3, #12]
10007e04:	0028      	movs	r0, r5
10007e06:	f7ff fda3 	bl	10007950 <__malloc_unlock>
10007e0a:	bc04      	pop	{r2}
10007e0c:	4690      	mov	r8, r2
10007e0e:	bdf0      	pop	{r4, r5, r6, r7, pc}
10007e10:	0a53      	lsrs	r3, r2, #9
10007e12:	2b04      	cmp	r3, #4
10007e14:	d83f      	bhi.n	10007e96 <_free_r+0x13a>
10007e16:	0994      	lsrs	r4, r2, #6
10007e18:	0026      	movs	r6, r4
10007e1a:	3439      	adds	r4, #57	; 0x39
10007e1c:	3638      	adds	r6, #56	; 0x38
10007e1e:	00e4      	lsls	r4, r4, #3
10007e20:	1904      	adds	r4, r0, r4
10007e22:	6823      	ldr	r3, [r4, #0]
10007e24:	3c08      	subs	r4, #8
10007e26:	2703      	movs	r7, #3
10007e28:	429c      	cmp	r4, r3
10007e2a:	d043      	beq.n	10007eb4 <_free_r+0x158>
10007e2c:	6858      	ldr	r0, [r3, #4]
10007e2e:	43b8      	bics	r0, r7
10007e30:	4290      	cmp	r0, r2
10007e32:	d902      	bls.n	10007e3a <_free_r+0xde>
10007e34:	689b      	ldr	r3, [r3, #8]
10007e36:	429c      	cmp	r4, r3
10007e38:	d1f8      	bne.n	10007e2c <_free_r+0xd0>
10007e3a:	68dc      	ldr	r4, [r3, #12]
10007e3c:	60cc      	str	r4, [r1, #12]
10007e3e:	608b      	str	r3, [r1, #8]
10007e40:	60a1      	str	r1, [r4, #8]
10007e42:	60d9      	str	r1, [r3, #12]
10007e44:	e7de      	b.n	10007e04 <_free_r+0xa8>
10007e46:	4643      	mov	r3, r8
10007e48:	18f8      	adds	r0, r7, r3
10007e4a:	6840      	ldr	r0, [r0, #4]
10007e4c:	4230      	tst	r0, r6
10007e4e:	d158      	bne.n	10007f02 <_free_r+0x1a6>
10007e50:	0013      	movs	r3, r2
10007e52:	68b8      	ldr	r0, [r7, #8]
10007e54:	68fa      	ldr	r2, [r7, #12]
10007e56:	4443      	add	r3, r8
10007e58:	431e      	orrs	r6, r3
10007e5a:	60c2      	str	r2, [r0, #12]
10007e5c:	6090      	str	r0, [r2, #8]
10007e5e:	604e      	str	r6, [r1, #4]
10007e60:	50cb      	str	r3, [r1, r3]
10007e62:	e7cf      	b.n	10007e04 <_free_r+0xa8>
10007e64:	0013      	movs	r3, r2
10007e66:	4443      	add	r3, r8
10007e68:	4226      	tst	r6, r4
10007e6a:	d106      	bne.n	10007e7a <_free_r+0x11e>
10007e6c:	680a      	ldr	r2, [r1, #0]
10007e6e:	1a89      	subs	r1, r1, r2
10007e70:	688c      	ldr	r4, [r1, #8]
10007e72:	189b      	adds	r3, r3, r2
10007e74:	68ca      	ldr	r2, [r1, #12]
10007e76:	60e2      	str	r2, [r4, #12]
10007e78:	6094      	str	r4, [r2, #8]
10007e7a:	2201      	movs	r2, #1
10007e7c:	431a      	orrs	r2, r3
10007e7e:	604a      	str	r2, [r1, #4]
10007e80:	4a24      	ldr	r2, [pc, #144]	; (10007f14 <_free_r+0x1b8>)
10007e82:	6081      	str	r1, [r0, #8]
10007e84:	6812      	ldr	r2, [r2, #0]
10007e86:	429a      	cmp	r2, r3
10007e88:	d8bc      	bhi.n	10007e04 <_free_r+0xa8>
10007e8a:	4b23      	ldr	r3, [pc, #140]	; (10007f18 <_free_r+0x1bc>)
10007e8c:	0028      	movs	r0, r5
10007e8e:	6819      	ldr	r1, [r3, #0]
10007e90:	f7ff ff16 	bl	10007cc0 <_malloc_trim_r>
10007e94:	e7b6      	b.n	10007e04 <_free_r+0xa8>
10007e96:	2b14      	cmp	r3, #20
10007e98:	d907      	bls.n	10007eaa <_free_r+0x14e>
10007e9a:	2b54      	cmp	r3, #84	; 0x54
10007e9c:	d81a      	bhi.n	10007ed4 <_free_r+0x178>
10007e9e:	0b14      	lsrs	r4, r2, #12
10007ea0:	0026      	movs	r6, r4
10007ea2:	346f      	adds	r4, #111	; 0x6f
10007ea4:	366e      	adds	r6, #110	; 0x6e
10007ea6:	00e4      	lsls	r4, r4, #3
10007ea8:	e7ba      	b.n	10007e20 <_free_r+0xc4>
10007eaa:	001e      	movs	r6, r3
10007eac:	335c      	adds	r3, #92	; 0x5c
10007eae:	365b      	adds	r6, #91	; 0x5b
10007eb0:	00dc      	lsls	r4, r3, #3
10007eb2:	e7b5      	b.n	10007e20 <_free_r+0xc4>
10007eb4:	2201      	movs	r2, #1
10007eb6:	10b6      	asrs	r6, r6, #2
10007eb8:	40b2      	lsls	r2, r6
10007eba:	6846      	ldr	r6, [r0, #4]
10007ebc:	4332      	orrs	r2, r6
10007ebe:	6042      	str	r2, [r0, #4]
10007ec0:	e7bc      	b.n	10007e3c <_free_r+0xe0>
10007ec2:	60d9      	str	r1, [r3, #12]
10007ec4:	6099      	str	r1, [r3, #8]
10007ec6:	60cb      	str	r3, [r1, #12]
10007ec8:	608b      	str	r3, [r1, #8]
10007eca:	2301      	movs	r3, #1
10007ecc:	4313      	orrs	r3, r2
10007ece:	604b      	str	r3, [r1, #4]
10007ed0:	508a      	str	r2, [r1, r2]
10007ed2:	e797      	b.n	10007e04 <_free_r+0xa8>
10007ed4:	24aa      	movs	r4, #170	; 0xaa
10007ed6:	0064      	lsls	r4, r4, #1
10007ed8:	42a3      	cmp	r3, r4
10007eda:	d805      	bhi.n	10007ee8 <_free_r+0x18c>
10007edc:	0bd4      	lsrs	r4, r2, #15
10007ede:	0026      	movs	r6, r4
10007ee0:	3478      	adds	r4, #120	; 0x78
10007ee2:	3677      	adds	r6, #119	; 0x77
10007ee4:	00e4      	lsls	r4, r4, #3
10007ee6:	e79b      	b.n	10007e20 <_free_r+0xc4>
10007ee8:	4c0c      	ldr	r4, [pc, #48]	; (10007f1c <_free_r+0x1c0>)
10007eea:	42a3      	cmp	r3, r4
10007eec:	d805      	bhi.n	10007efa <_free_r+0x19e>
10007eee:	0c94      	lsrs	r4, r2, #18
10007ef0:	0026      	movs	r6, r4
10007ef2:	347d      	adds	r4, #125	; 0x7d
10007ef4:	367c      	adds	r6, #124	; 0x7c
10007ef6:	00e4      	lsls	r4, r4, #3
10007ef8:	e792      	b.n	10007e20 <_free_r+0xc4>
10007efa:	24fe      	movs	r4, #254	; 0xfe
10007efc:	267e      	movs	r6, #126	; 0x7e
10007efe:	00a4      	lsls	r4, r4, #2
10007f00:	e78e      	b.n	10007e20 <_free_r+0xc4>
10007f02:	0033      	movs	r3, r6
10007f04:	4313      	orrs	r3, r2
10007f06:	604b      	str	r3, [r1, #4]
10007f08:	603a      	str	r2, [r7, #0]
10007f0a:	e77b      	b.n	10007e04 <_free_r+0xa8>
10007f0c:	200007c0 	.word	0x200007c0
10007f10:	200007c8 	.word	0x200007c8
10007f14:	20000bcc 	.word	0x20000bcc
10007f18:	200012e8 	.word	0x200012e8
10007f1c:	00000554 	.word	0x00000554

10007f20 <_fwalk>:
10007f20:	b5f0      	push	{r4, r5, r6, r7, lr}
10007f22:	46c6      	mov	lr, r8
10007f24:	23b8      	movs	r3, #184	; 0xb8
10007f26:	4688      	mov	r8, r1
10007f28:	2600      	movs	r6, #0
10007f2a:	b500      	push	{lr}
10007f2c:	009b      	lsls	r3, r3, #2
10007f2e:	18c7      	adds	r7, r0, r3
10007f30:	687b      	ldr	r3, [r7, #4]
10007f32:	68bc      	ldr	r4, [r7, #8]
10007f34:	1e5d      	subs	r5, r3, #1
10007f36:	d40c      	bmi.n	10007f52 <_fwalk+0x32>
10007f38:	89a3      	ldrh	r3, [r4, #12]
10007f3a:	2b01      	cmp	r3, #1
10007f3c:	d906      	bls.n	10007f4c <_fwalk+0x2c>
10007f3e:	220e      	movs	r2, #14
10007f40:	5ea3      	ldrsh	r3, [r4, r2]
10007f42:	3301      	adds	r3, #1
10007f44:	d002      	beq.n	10007f4c <_fwalk+0x2c>
10007f46:	0020      	movs	r0, r4
10007f48:	47c0      	blx	r8
10007f4a:	4306      	orrs	r6, r0
10007f4c:	3468      	adds	r4, #104	; 0x68
10007f4e:	3d01      	subs	r5, #1
10007f50:	d2f2      	bcs.n	10007f38 <_fwalk+0x18>
10007f52:	683f      	ldr	r7, [r7, #0]
10007f54:	2f00      	cmp	r7, #0
10007f56:	d1eb      	bne.n	10007f30 <_fwalk+0x10>
10007f58:	0030      	movs	r0, r6
10007f5a:	bc04      	pop	{r2}
10007f5c:	4690      	mov	r8, r2
10007f5e:	bdf0      	pop	{r4, r5, r6, r7, pc}

10007f60 <_fwalk_reent>:
10007f60:	b5f8      	push	{r3, r4, r5, r6, r7, lr}
10007f62:	4647      	mov	r7, r8
10007f64:	46ce      	mov	lr, r9
10007f66:	b580      	push	{r7, lr}
10007f68:	27b8      	movs	r7, #184	; 0xb8
10007f6a:	4680      	mov	r8, r0
10007f6c:	4689      	mov	r9, r1
10007f6e:	2600      	movs	r6, #0
10007f70:	00bf      	lsls	r7, r7, #2
10007f72:	4447      	add	r7, r8
10007f74:	687b      	ldr	r3, [r7, #4]
10007f76:	68bc      	ldr	r4, [r7, #8]
10007f78:	1e5d      	subs	r5, r3, #1
10007f7a:	d40d      	bmi.n	10007f98 <_fwalk_reent+0x38>
10007f7c:	89a3      	ldrh	r3, [r4, #12]
10007f7e:	2b01      	cmp	r3, #1
10007f80:	d907      	bls.n	10007f92 <_fwalk_reent+0x32>
10007f82:	220e      	movs	r2, #14
10007f84:	5ea3      	ldrsh	r3, [r4, r2]
10007f86:	3301      	adds	r3, #1
10007f88:	d003      	beq.n	10007f92 <_fwalk_reent+0x32>
10007f8a:	0021      	movs	r1, r4
10007f8c:	4640      	mov	r0, r8
10007f8e:	47c8      	blx	r9
10007f90:	4306      	orrs	r6, r0
10007f92:	3468      	adds	r4, #104	; 0x68
10007f94:	3d01      	subs	r5, #1
10007f96:	d2f1      	bcs.n	10007f7c <_fwalk_reent+0x1c>
10007f98:	683f      	ldr	r7, [r7, #0]
10007f9a:	2f00      	cmp	r7, #0
10007f9c:	d1ea      	bne.n	10007f74 <_fwalk_reent+0x14>
10007f9e:	0030      	movs	r0, r6
10007fa0:	bc0c      	pop	{r2, r3}
10007fa2:	4690      	mov	r8, r2
10007fa4:	4699      	mov	r9, r3
10007fa6:	bdf8      	pop	{r3, r4, r5, r6, r7, pc}

10007fa8 <_getc_r>:
10007fa8:	b570      	push	{r4, r5, r6, lr}
10007faa:	0005      	movs	r5, r0
10007fac:	000c      	movs	r4, r1
10007fae:	2800      	cmp	r0, #0
10007fb0:	d002      	beq.n	10007fb8 <_getc_r+0x10>
10007fb2:	6b83      	ldr	r3, [r0, #56]	; 0x38
10007fb4:	2b00      	cmp	r3, #0
10007fb6:	d016      	beq.n	10007fe6 <_getc_r+0x3e>
10007fb8:	6e63      	ldr	r3, [r4, #100]	; 0x64
10007fba:	07db      	lsls	r3, r3, #31
10007fbc:	d402      	bmi.n	10007fc4 <_getc_r+0x1c>
10007fbe:	89a3      	ldrh	r3, [r4, #12]
10007fc0:	059b      	lsls	r3, r3, #22
10007fc2:	d51d      	bpl.n	10008000 <_getc_r+0x58>
10007fc4:	6863      	ldr	r3, [r4, #4]
10007fc6:	3b01      	subs	r3, #1
10007fc8:	6063      	str	r3, [r4, #4]
10007fca:	2b00      	cmp	r3, #0
10007fcc:	db0e      	blt.n	10007fec <_getc_r+0x44>
10007fce:	6823      	ldr	r3, [r4, #0]
10007fd0:	1c5a      	adds	r2, r3, #1
10007fd2:	6022      	str	r2, [r4, #0]
10007fd4:	781d      	ldrb	r5, [r3, #0]
10007fd6:	6e63      	ldr	r3, [r4, #100]	; 0x64
10007fd8:	07db      	lsls	r3, r3, #31
10007fda:	d402      	bmi.n	10007fe2 <_getc_r+0x3a>
10007fdc:	89a3      	ldrh	r3, [r4, #12]
10007fde:	059b      	lsls	r3, r3, #22
10007fe0:	d50a      	bpl.n	10007ff8 <_getc_r+0x50>
10007fe2:	0028      	movs	r0, r5
10007fe4:	bd70      	pop	{r4, r5, r6, pc}
10007fe6:	f7ff fe2b 	bl	10007c40 <__sinit>
10007fea:	e7e5      	b.n	10007fb8 <_getc_r+0x10>
10007fec:	0028      	movs	r0, r5
10007fee:	0021      	movs	r1, r4
10007ff0:	f000 f882 	bl	100080f8 <__srget_r>
10007ff4:	0005      	movs	r5, r0
10007ff6:	e7ee      	b.n	10007fd6 <_getc_r+0x2e>
10007ff8:	6da0      	ldr	r0, [r4, #88]	; 0x58
10007ffa:	f7ff f9d5 	bl	100073a8 <__retarget_lock_release_recursive>
10007ffe:	e7f0      	b.n	10007fe2 <_getc_r+0x3a>
10008000:	6da0      	ldr	r0, [r4, #88]	; 0x58
10008002:	f7ff f9cf 	bl	100073a4 <__retarget_lock_acquire_recursive>
10008006:	e7dd      	b.n	10007fc4 <_getc_r+0x1c>

10008008 <__swhatbuf_r>:
10008008:	b570      	push	{r4, r5, r6, lr}
1000800a:	000c      	movs	r4, r1
1000800c:	001e      	movs	r6, r3
1000800e:	230e      	movs	r3, #14
10008010:	5ec9      	ldrsh	r1, [r1, r3]
10008012:	0015      	movs	r5, r2
10008014:	b096      	sub	sp, #88	; 0x58
10008016:	2900      	cmp	r1, #0
10008018:	db15      	blt.n	10008046 <__swhatbuf_r+0x3e>
1000801a:	466a      	mov	r2, sp
1000801c:	f000 f958 	bl	100082d0 <_fstat_r>
10008020:	2800      	cmp	r0, #0
10008022:	db10      	blt.n	10008046 <__swhatbuf_r+0x3e>
10008024:	22f0      	movs	r2, #240	; 0xf0
10008026:	9b01      	ldr	r3, [sp, #4]
10008028:	0212      	lsls	r2, r2, #8
1000802a:	4013      	ands	r3, r2
1000802c:	4a0d      	ldr	r2, [pc, #52]	; (10008064 <__swhatbuf_r+0x5c>)
1000802e:	2080      	movs	r0, #128	; 0x80
10008030:	4694      	mov	ip, r2
10008032:	4463      	add	r3, ip
10008034:	425a      	negs	r2, r3
10008036:	4153      	adcs	r3, r2
10008038:	6033      	str	r3, [r6, #0]
1000803a:	2380      	movs	r3, #128	; 0x80
1000803c:	00db      	lsls	r3, r3, #3
1000803e:	602b      	str	r3, [r5, #0]
10008040:	0100      	lsls	r0, r0, #4
10008042:	b016      	add	sp, #88	; 0x58
10008044:	bd70      	pop	{r4, r5, r6, pc}
10008046:	2300      	movs	r3, #0
10008048:	6033      	str	r3, [r6, #0]
1000804a:	89a3      	ldrh	r3, [r4, #12]
1000804c:	061b      	lsls	r3, r3, #24
1000804e:	d503      	bpl.n	10008058 <__swhatbuf_r+0x50>
10008050:	2340      	movs	r3, #64	; 0x40
10008052:	2000      	movs	r0, #0
10008054:	602b      	str	r3, [r5, #0]
10008056:	e7f4      	b.n	10008042 <__swhatbuf_r+0x3a>
10008058:	2380      	movs	r3, #128	; 0x80
1000805a:	00db      	lsls	r3, r3, #3
1000805c:	2000      	movs	r0, #0
1000805e:	602b      	str	r3, [r5, #0]
10008060:	e7ef      	b.n	10008042 <__swhatbuf_r+0x3a>
10008062:	46c0      	nop			; (mov r8, r8)
10008064:	ffffe000 	.word	0xffffe000

10008068 <__smakebuf_r>:
10008068:	b570      	push	{r4, r5, r6, lr}
1000806a:	898b      	ldrh	r3, [r1, #12]
1000806c:	0005      	movs	r5, r0
1000806e:	000c      	movs	r4, r1
10008070:	b082      	sub	sp, #8
10008072:	079b      	lsls	r3, r3, #30
10008074:	d507      	bpl.n	10008086 <__smakebuf_r+0x1e>
10008076:	0023      	movs	r3, r4
10008078:	3343      	adds	r3, #67	; 0x43
1000807a:	6023      	str	r3, [r4, #0]
1000807c:	6123      	str	r3, [r4, #16]
1000807e:	2301      	movs	r3, #1
10008080:	6163      	str	r3, [r4, #20]
10008082:	b002      	add	sp, #8
10008084:	bd70      	pop	{r4, r5, r6, pc}
10008086:	466a      	mov	r2, sp
10008088:	ab01      	add	r3, sp, #4
1000808a:	f7ff ffbd 	bl	10008008 <__swhatbuf_r>
1000808e:	9900      	ldr	r1, [sp, #0]
10008090:	0006      	movs	r6, r0
10008092:	0028      	movs	r0, r5
10008094:	f7ff f994 	bl	100073c0 <_malloc_r>
10008098:	2800      	cmp	r0, #0
1000809a:	d010      	beq.n	100080be <__smakebuf_r+0x56>
1000809c:	2280      	movs	r2, #128	; 0x80
1000809e:	4b15      	ldr	r3, [pc, #84]	; (100080f4 <__smakebuf_r+0x8c>)
100080a0:	63eb      	str	r3, [r5, #60]	; 0x3c
100080a2:	89a3      	ldrh	r3, [r4, #12]
100080a4:	6020      	str	r0, [r4, #0]
100080a6:	4313      	orrs	r3, r2
100080a8:	9a00      	ldr	r2, [sp, #0]
100080aa:	b21b      	sxth	r3, r3
100080ac:	6162      	str	r2, [r4, #20]
100080ae:	9a01      	ldr	r2, [sp, #4]
100080b0:	81a3      	strh	r3, [r4, #12]
100080b2:	6120      	str	r0, [r4, #16]
100080b4:	2a00      	cmp	r2, #0
100080b6:	d10c      	bne.n	100080d2 <__smakebuf_r+0x6a>
100080b8:	4333      	orrs	r3, r6
100080ba:	81a3      	strh	r3, [r4, #12]
100080bc:	e7e1      	b.n	10008082 <__smakebuf_r+0x1a>
100080be:	220c      	movs	r2, #12
100080c0:	5ea3      	ldrsh	r3, [r4, r2]
100080c2:	059a      	lsls	r2, r3, #22
100080c4:	d4dd      	bmi.n	10008082 <__smakebuf_r+0x1a>
100080c6:	2203      	movs	r2, #3
100080c8:	4393      	bics	r3, r2
100080ca:	2202      	movs	r2, #2
100080cc:	4313      	orrs	r3, r2
100080ce:	81a3      	strh	r3, [r4, #12]
100080d0:	e7d1      	b.n	10008076 <__smakebuf_r+0xe>
100080d2:	0028      	movs	r0, r5
100080d4:	230e      	movs	r3, #14
100080d6:	5ee1      	ldrsh	r1, [r4, r3]
100080d8:	f000 f90e 	bl	100082f8 <_isatty_r>
100080dc:	2800      	cmp	r0, #0
100080de:	d102      	bne.n	100080e6 <__smakebuf_r+0x7e>
100080e0:	220c      	movs	r2, #12
100080e2:	5ea3      	ldrsh	r3, [r4, r2]
100080e4:	e7e8      	b.n	100080b8 <__smakebuf_r+0x50>
100080e6:	2303      	movs	r3, #3
100080e8:	89a2      	ldrh	r2, [r4, #12]
100080ea:	439a      	bics	r2, r3
100080ec:	2301      	movs	r3, #1
100080ee:	4313      	orrs	r3, r2
100080f0:	b21b      	sxth	r3, r3
100080f2:	e7e1      	b.n	100080b8 <__smakebuf_r+0x50>
100080f4:	10007c31 	.word	0x10007c31

100080f8 <__srget_r>:
100080f8:	b570      	push	{r4, r5, r6, lr}
100080fa:	0005      	movs	r5, r0
100080fc:	000c      	movs	r4, r1
100080fe:	2800      	cmp	r0, #0
10008100:	d002      	beq.n	10008108 <__srget_r+0x10>
10008102:	6b83      	ldr	r3, [r0, #56]	; 0x38
10008104:	2b00      	cmp	r3, #0
10008106:	d00d      	beq.n	10008124 <__srget_r+0x2c>
10008108:	0021      	movs	r1, r4
1000810a:	0028      	movs	r0, r5
1000810c:	f000 f93c 	bl	10008388 <__srefill_r>
10008110:	2800      	cmp	r0, #0
10008112:	d10a      	bne.n	1000812a <__srget_r+0x32>
10008114:	6863      	ldr	r3, [r4, #4]
10008116:	3b01      	subs	r3, #1
10008118:	6063      	str	r3, [r4, #4]
1000811a:	6823      	ldr	r3, [r4, #0]
1000811c:	1c5a      	adds	r2, r3, #1
1000811e:	6022      	str	r2, [r4, #0]
10008120:	7818      	ldrb	r0, [r3, #0]
10008122:	bd70      	pop	{r4, r5, r6, pc}
10008124:	f7ff fd8c 	bl	10007c40 <__sinit>
10008128:	e7ee      	b.n	10008108 <__srget_r+0x10>
1000812a:	2001      	movs	r0, #1
1000812c:	4240      	negs	r0, r0
1000812e:	e7f8      	b.n	10008122 <__srget_r+0x2a>

10008130 <__sread>:
10008130:	b570      	push	{r4, r5, r6, lr}
10008132:	000c      	movs	r4, r1
10008134:	250e      	movs	r5, #14
10008136:	5f49      	ldrsh	r1, [r1, r5]
10008138:	f000 f904 	bl	10008344 <_read_r>
1000813c:	2800      	cmp	r0, #0
1000813e:	db03      	blt.n	10008148 <__sread+0x18>
10008140:	6d23      	ldr	r3, [r4, #80]	; 0x50
10008142:	181b      	adds	r3, r3, r0
10008144:	6523      	str	r3, [r4, #80]	; 0x50
10008146:	bd70      	pop	{r4, r5, r6, pc}
10008148:	89a3      	ldrh	r3, [r4, #12]
1000814a:	4a02      	ldr	r2, [pc, #8]	; (10008154 <__sread+0x24>)
1000814c:	4013      	ands	r3, r2
1000814e:	81a3      	strh	r3, [r4, #12]
10008150:	e7f9      	b.n	10008146 <__sread+0x16>
10008152:	46c0      	nop			; (mov r8, r8)
10008154:	ffffefff 	.word	0xffffefff

10008158 <__swrite>:
10008158:	b5f8      	push	{r3, r4, r5, r6, r7, lr}
1000815a:	000c      	movs	r4, r1
1000815c:	001f      	movs	r7, r3
1000815e:	230c      	movs	r3, #12
10008160:	5ec9      	ldrsh	r1, [r1, r3]
10008162:	0005      	movs	r5, r0
10008164:	0016      	movs	r6, r2
10008166:	05cb      	lsls	r3, r1, #23
10008168:	d40a      	bmi.n	10008180 <__swrite+0x28>
1000816a:	4b0a      	ldr	r3, [pc, #40]	; (10008194 <__swrite+0x3c>)
1000816c:	0032      	movs	r2, r6
1000816e:	4019      	ands	r1, r3
10008170:	0028      	movs	r0, r5
10008172:	81a1      	strh	r1, [r4, #12]
10008174:	230e      	movs	r3, #14
10008176:	5ee1      	ldrsh	r1, [r4, r3]
10008178:	003b      	movs	r3, r7
1000817a:	f7ff fc31 	bl	100079e0 <_write_r>
1000817e:	bdf8      	pop	{r3, r4, r5, r6, r7, pc}
10008180:	230e      	movs	r3, #14
10008182:	5ee1      	ldrsh	r1, [r4, r3]
10008184:	2200      	movs	r2, #0
10008186:	2302      	movs	r3, #2
10008188:	f000 f8c8 	bl	1000831c <_lseek_r>
1000818c:	230c      	movs	r3, #12
1000818e:	5ee1      	ldrsh	r1, [r4, r3]
10008190:	e7eb      	b.n	1000816a <__swrite+0x12>
10008192:	46c0      	nop			; (mov r8, r8)
10008194:	ffffefff 	.word	0xffffefff

10008198 <__sseek>:
10008198:	b570      	push	{r4, r5, r6, lr}
1000819a:	000c      	movs	r4, r1
1000819c:	250e      	movs	r5, #14
1000819e:	5f49      	ldrsh	r1, [r1, r5]
100081a0:	f000 f8bc 	bl	1000831c <_lseek_r>
100081a4:	1c43      	adds	r3, r0, #1
100081a6:	d006      	beq.n	100081b6 <__sseek+0x1e>
100081a8:	2380      	movs	r3, #128	; 0x80
100081aa:	89a2      	ldrh	r2, [r4, #12]
100081ac:	015b      	lsls	r3, r3, #5
100081ae:	4313      	orrs	r3, r2
100081b0:	81a3      	strh	r3, [r4, #12]
100081b2:	6520      	str	r0, [r4, #80]	; 0x50
100081b4:	bd70      	pop	{r4, r5, r6, pc}
100081b6:	89a3      	ldrh	r3, [r4, #12]
100081b8:	4a01      	ldr	r2, [pc, #4]	; (100081c0 <__sseek+0x28>)
100081ba:	4013      	ands	r3, r2
100081bc:	81a3      	strh	r3, [r4, #12]
100081be:	e7f9      	b.n	100081b4 <__sseek+0x1c>
100081c0:	ffffefff 	.word	0xffffefff

100081c4 <__sclose>:
100081c4:	b510      	push	{r4, lr}
100081c6:	230e      	movs	r3, #14
100081c8:	5ec9      	ldrsh	r1, [r1, r3]
100081ca:	f000 f801 	bl	100081d0 <_close_r>
100081ce:	bd10      	pop	{r4, pc}

100081d0 <_close_r>:
100081d0:	2300      	movs	r3, #0
100081d2:	b570      	push	{r4, r5, r6, lr}
100081d4:	4d06      	ldr	r5, [pc, #24]	; (100081f0 <_close_r+0x20>)
100081d6:	0004      	movs	r4, r0
100081d8:	0008      	movs	r0, r1
100081da:	602b      	str	r3, [r5, #0]
100081dc:	f000 f966 	bl	100084ac <_close>
100081e0:	1c43      	adds	r3, r0, #1
100081e2:	d000      	beq.n	100081e6 <_close_r+0x16>
100081e4:	bd70      	pop	{r4, r5, r6, pc}
100081e6:	682b      	ldr	r3, [r5, #0]
100081e8:	2b00      	cmp	r3, #0
100081ea:	d0fb      	beq.n	100081e4 <_close_r+0x14>
100081ec:	6023      	str	r3, [r4, #0]
100081ee:	e7f9      	b.n	100081e4 <_close_r+0x14>
100081f0:	20002080 	.word	0x20002080

100081f4 <_fclose_r>:
100081f4:	b5f8      	push	{r3, r4, r5, r6, r7, lr}
100081f6:	0006      	movs	r6, r0
100081f8:	1e0c      	subs	r4, r1, #0
100081fa:	d04d      	beq.n	10008298 <_fclose_r+0xa4>
100081fc:	2800      	cmp	r0, #0
100081fe:	d002      	beq.n	10008206 <_fclose_r+0x12>
10008200:	6b83      	ldr	r3, [r0, #56]	; 0x38
10008202:	2b00      	cmp	r3, #0
10008204:	d04a      	beq.n	1000829c <_fclose_r+0xa8>
10008206:	2701      	movs	r7, #1
10008208:	6e63      	ldr	r3, [r4, #100]	; 0x64
1000820a:	423b      	tst	r3, r7
1000820c:	d035      	beq.n	1000827a <_fclose_r+0x86>
1000820e:	220c      	movs	r2, #12
10008210:	5ea3      	ldrsh	r3, [r4, r2]
10008212:	2b00      	cmp	r3, #0
10008214:	d040      	beq.n	10008298 <_fclose_r+0xa4>
10008216:	0021      	movs	r1, r4
10008218:	0030      	movs	r0, r6
1000821a:	f7ff fbf5 	bl	10007a08 <__sflush_r>
1000821e:	6ae3      	ldr	r3, [r4, #44]	; 0x2c
10008220:	0005      	movs	r5, r0
10008222:	2b00      	cmp	r3, #0
10008224:	d004      	beq.n	10008230 <_fclose_r+0x3c>
10008226:	0030      	movs	r0, r6
10008228:	69e1      	ldr	r1, [r4, #28]
1000822a:	4798      	blx	r3
1000822c:	2800      	cmp	r0, #0
1000822e:	db3c      	blt.n	100082aa <_fclose_r+0xb6>
10008230:	89a3      	ldrh	r3, [r4, #12]
10008232:	061b      	lsls	r3, r3, #24
10008234:	d43e      	bmi.n	100082b4 <_fclose_r+0xc0>
10008236:	6b21      	ldr	r1, [r4, #48]	; 0x30
10008238:	2900      	cmp	r1, #0
1000823a:	d008      	beq.n	1000824e <_fclose_r+0x5a>
1000823c:	0023      	movs	r3, r4
1000823e:	3340      	adds	r3, #64	; 0x40
10008240:	4299      	cmp	r1, r3
10008242:	d002      	beq.n	1000824a <_fclose_r+0x56>
10008244:	0030      	movs	r0, r6
10008246:	f7ff fd89 	bl	10007d5c <_free_r>
1000824a:	2300      	movs	r3, #0
1000824c:	6323      	str	r3, [r4, #48]	; 0x30
1000824e:	6c61      	ldr	r1, [r4, #68]	; 0x44
10008250:	2900      	cmp	r1, #0
10008252:	d004      	beq.n	1000825e <_fclose_r+0x6a>
10008254:	0030      	movs	r0, r6
10008256:	f7ff fd81 	bl	10007d5c <_free_r>
1000825a:	2300      	movs	r3, #0
1000825c:	6463      	str	r3, [r4, #68]	; 0x44
1000825e:	f7ff fd1f 	bl	10007ca0 <__sfp_lock_acquire>
10008262:	2300      	movs	r3, #0
10008264:	81a3      	strh	r3, [r4, #12]
10008266:	6e63      	ldr	r3, [r4, #100]	; 0x64
10008268:	07db      	lsls	r3, r3, #31
1000826a:	d52c      	bpl.n	100082c6 <_fclose_r+0xd2>
1000826c:	6da0      	ldr	r0, [r4, #88]	; 0x58
1000826e:	f7ff f897 	bl	100073a0 <__retarget_lock_close_recursive>
10008272:	f7ff fd1d 	bl	10007cb0 <__sfp_lock_release>
10008276:	0028      	movs	r0, r5
10008278:	bdf8      	pop	{r3, r4, r5, r6, r7, pc}
1000827a:	89a3      	ldrh	r3, [r4, #12]
1000827c:	059b      	lsls	r3, r3, #22
1000827e:	d4ca      	bmi.n	10008216 <_fclose_r+0x22>
10008280:	6da0      	ldr	r0, [r4, #88]	; 0x58
10008282:	f7ff f88f 	bl	100073a4 <__retarget_lock_acquire_recursive>
10008286:	220c      	movs	r2, #12
10008288:	5ea3      	ldrsh	r3, [r4, r2]
1000828a:	2b00      	cmp	r3, #0
1000828c:	d1c3      	bne.n	10008216 <_fclose_r+0x22>
1000828e:	6e63      	ldr	r3, [r4, #100]	; 0x64
10008290:	001d      	movs	r5, r3
10008292:	403d      	ands	r5, r7
10008294:	423b      	tst	r3, r7
10008296:	d012      	beq.n	100082be <_fclose_r+0xca>
10008298:	2500      	movs	r5, #0
1000829a:	e7ec      	b.n	10008276 <_fclose_r+0x82>
1000829c:	2701      	movs	r7, #1
1000829e:	f7ff fccf 	bl	10007c40 <__sinit>
100082a2:	6e63      	ldr	r3, [r4, #100]	; 0x64
100082a4:	423b      	tst	r3, r7
100082a6:	d1b2      	bne.n	1000820e <_fclose_r+0x1a>
100082a8:	e7e7      	b.n	1000827a <_fclose_r+0x86>
100082aa:	2501      	movs	r5, #1
100082ac:	89a3      	ldrh	r3, [r4, #12]
100082ae:	426d      	negs	r5, r5
100082b0:	061b      	lsls	r3, r3, #24
100082b2:	d5c0      	bpl.n	10008236 <_fclose_r+0x42>
100082b4:	0030      	movs	r0, r6
100082b6:	6921      	ldr	r1, [r4, #16]
100082b8:	f7ff fd50 	bl	10007d5c <_free_r>
100082bc:	e7bb      	b.n	10008236 <_fclose_r+0x42>
100082be:	6da0      	ldr	r0, [r4, #88]	; 0x58
100082c0:	f7ff f872 	bl	100073a8 <__retarget_lock_release_recursive>
100082c4:	e7d7      	b.n	10008276 <_fclose_r+0x82>
100082c6:	6da0      	ldr	r0, [r4, #88]	; 0x58
100082c8:	f7ff f86e 	bl	100073a8 <__retarget_lock_release_recursive>
100082cc:	e7ce      	b.n	1000826c <_fclose_r+0x78>
100082ce:	46c0      	nop			; (mov r8, r8)

100082d0 <_fstat_r>:
100082d0:	2300      	movs	r3, #0
100082d2:	b570      	push	{r4, r5, r6, lr}
100082d4:	4d07      	ldr	r5, [pc, #28]	; (100082f4 <_fstat_r+0x24>)
100082d6:	0004      	movs	r4, r0
100082d8:	0008      	movs	r0, r1
100082da:	0011      	movs	r1, r2
100082dc:	602b      	str	r3, [r5, #0]
100082de:	f000 f8ed 	bl	100084bc <_fstat>
100082e2:	1c43      	adds	r3, r0, #1
100082e4:	d000      	beq.n	100082e8 <_fstat_r+0x18>
100082e6:	bd70      	pop	{r4, r5, r6, pc}
100082e8:	682b      	ldr	r3, [r5, #0]
100082ea:	2b00      	cmp	r3, #0
100082ec:	d0fb      	beq.n	100082e6 <_fstat_r+0x16>
100082ee:	6023      	str	r3, [r4, #0]
100082f0:	e7f9      	b.n	100082e6 <_fstat_r+0x16>
100082f2:	46c0      	nop			; (mov r8, r8)
100082f4:	20002080 	.word	0x20002080

100082f8 <_isatty_r>:
100082f8:	2300      	movs	r3, #0
100082fa:	b570      	push	{r4, r5, r6, lr}
100082fc:	4d06      	ldr	r5, [pc, #24]	; (10008318 <_isatty_r+0x20>)
100082fe:	0004      	movs	r4, r0
10008300:	0008      	movs	r0, r1
10008302:	602b      	str	r3, [r5, #0]
10008304:	f000 f8e2 	bl	100084cc <_isatty>
10008308:	1c43      	adds	r3, r0, #1
1000830a:	d000      	beq.n	1000830e <_isatty_r+0x16>
1000830c:	bd70      	pop	{r4, r5, r6, pc}
1000830e:	682b      	ldr	r3, [r5, #0]
10008310:	2b00      	cmp	r3, #0
10008312:	d0fb      	beq.n	1000830c <_isatty_r+0x14>
10008314:	6023      	str	r3, [r4, #0]
10008316:	e7f9      	b.n	1000830c <_isatty_r+0x14>
10008318:	20002080 	.word	0x20002080

1000831c <_lseek_r>:
1000831c:	b570      	push	{r4, r5, r6, lr}
1000831e:	0004      	movs	r4, r0
10008320:	0008      	movs	r0, r1
10008322:	0011      	movs	r1, r2
10008324:	001a      	movs	r2, r3
10008326:	2300      	movs	r3, #0
10008328:	4d05      	ldr	r5, [pc, #20]	; (10008340 <_lseek_r+0x24>)
1000832a:	602b      	str	r3, [r5, #0]
1000832c:	f000 f8d6 	bl	100084dc <_lseek>
10008330:	1c43      	adds	r3, r0, #1
10008332:	d000      	beq.n	10008336 <_lseek_r+0x1a>
10008334:	bd70      	pop	{r4, r5, r6, pc}
10008336:	682b      	ldr	r3, [r5, #0]
10008338:	2b00      	cmp	r3, #0
1000833a:	d0fb      	beq.n	10008334 <_lseek_r+0x18>
1000833c:	6023      	str	r3, [r4, #0]
1000833e:	e7f9      	b.n	10008334 <_lseek_r+0x18>
10008340:	20002080 	.word	0x20002080

10008344 <_read_r>:
10008344:	b570      	push	{r4, r5, r6, lr}
10008346:	0004      	movs	r4, r0
10008348:	0008      	movs	r0, r1
1000834a:	0011      	movs	r1, r2
1000834c:	001a      	movs	r2, r3
1000834e:	2300      	movs	r3, #0
10008350:	4d05      	ldr	r5, [pc, #20]	; (10008368 <_read_r+0x24>)
10008352:	602b      	str	r3, [r5, #0]
10008354:	f7f8 f9f8 	bl	10000748 <_read>
10008358:	1c43      	adds	r3, r0, #1
1000835a:	d000      	beq.n	1000835e <_read_r+0x1a>
1000835c:	bd70      	pop	{r4, r5, r6, pc}
1000835e:	682b      	ldr	r3, [r5, #0]
10008360:	2b00      	cmp	r3, #0
10008362:	d0fb      	beq.n	1000835c <_read_r+0x18>
10008364:	6023      	str	r3, [r4, #0]
10008366:	e7f9      	b.n	1000835c <_read_r+0x18>
10008368:	20002080 	.word	0x20002080

1000836c <lflush>:
1000836c:	2209      	movs	r2, #9
1000836e:	b510      	push	{r4, lr}
10008370:	8981      	ldrh	r1, [r0, #12]
10008372:	0003      	movs	r3, r0
10008374:	400a      	ands	r2, r1
10008376:	2000      	movs	r0, #0
10008378:	2a09      	cmp	r2, #9
1000837a:	d000      	beq.n	1000837e <lflush+0x12>
1000837c:	bd10      	pop	{r4, pc}
1000837e:	0018      	movs	r0, r3
10008380:	f7ff fc18 	bl	10007bb4 <fflush>
10008384:	e7fa      	b.n	1000837c <lflush+0x10>
10008386:	46c0      	nop			; (mov r8, r8)

10008388 <__srefill_r>:
10008388:	b5f8      	push	{r3, r4, r5, r6, r7, lr}
1000838a:	0005      	movs	r5, r0
1000838c:	000c      	movs	r4, r1
1000838e:	2800      	cmp	r0, #0
10008390:	d002      	beq.n	10008398 <__srefill_r+0x10>
10008392:	6b83      	ldr	r3, [r0, #56]	; 0x38
10008394:	2b00      	cmp	r3, #0
10008396:	d045      	beq.n	10008424 <__srefill_r+0x9c>
10008398:	2180      	movs	r1, #128	; 0x80
1000839a:	230c      	movs	r3, #12
1000839c:	5ee2      	ldrsh	r2, [r4, r3]
1000839e:	89a3      	ldrh	r3, [r4, #12]
100083a0:	0189      	lsls	r1, r1, #6
100083a2:	420b      	tst	r3, r1
100083a4:	d106      	bne.n	100083b4 <__srefill_r+0x2c>
100083a6:	430a      	orrs	r2, r1
100083a8:	4b3d      	ldr	r3, [pc, #244]	; (100084a0 <__srefill_r+0x118>)
100083aa:	6e61      	ldr	r1, [r4, #100]	; 0x64
100083ac:	81a2      	strh	r2, [r4, #12]
100083ae:	400b      	ands	r3, r1
100083b0:	6663      	str	r3, [r4, #100]	; 0x64
100083b2:	b293      	uxth	r3, r2
100083b4:	2100      	movs	r1, #0
100083b6:	6061      	str	r1, [r4, #4]
100083b8:	0699      	lsls	r1, r3, #26
100083ba:	d45d      	bmi.n	10008478 <__srefill_r+0xf0>
100083bc:	0759      	lsls	r1, r3, #29
100083be:	d41d      	bmi.n	100083fc <__srefill_r+0x74>
100083c0:	06d9      	lsls	r1, r3, #27
100083c2:	d564      	bpl.n	1000848e <__srefill_r+0x106>
100083c4:	2608      	movs	r6, #8
100083c6:	421e      	tst	r6, r3
100083c8:	d140      	bne.n	1000844c <__srefill_r+0xc4>
100083ca:	2304      	movs	r3, #4
100083cc:	431a      	orrs	r2, r3
100083ce:	81a2      	strh	r2, [r4, #12]
100083d0:	6923      	ldr	r3, [r4, #16]
100083d2:	2b00      	cmp	r3, #0
100083d4:	d046      	beq.n	10008464 <__srefill_r+0xdc>
100083d6:	89a6      	ldrh	r6, [r4, #12]
100083d8:	230c      	movs	r3, #12
100083da:	5ee7      	ldrsh	r7, [r4, r3]
100083dc:	07b3      	lsls	r3, r6, #30
100083de:	d124      	bne.n	1000842a <__srefill_r+0xa2>
100083e0:	6923      	ldr	r3, [r4, #16]
100083e2:	0028      	movs	r0, r5
100083e4:	6023      	str	r3, [r4, #0]
100083e6:	6922      	ldr	r2, [r4, #16]
100083e8:	6963      	ldr	r3, [r4, #20]
100083ea:	69e1      	ldr	r1, [r4, #28]
100083ec:	6a25      	ldr	r5, [r4, #32]
100083ee:	47a8      	blx	r5
100083f0:	0003      	movs	r3, r0
100083f2:	6060      	str	r0, [r4, #4]
100083f4:	2000      	movs	r0, #0
100083f6:	2b00      	cmp	r3, #0
100083f8:	dd41      	ble.n	1000847e <__srefill_r+0xf6>
100083fa:	bdf8      	pop	{r3, r4, r5, r6, r7, pc}
100083fc:	6b21      	ldr	r1, [r4, #48]	; 0x30
100083fe:	2900      	cmp	r1, #0
10008400:	d0e6      	beq.n	100083d0 <__srefill_r+0x48>
10008402:	0023      	movs	r3, r4
10008404:	3340      	adds	r3, #64	; 0x40
10008406:	4299      	cmp	r1, r3
10008408:	d002      	beq.n	10008410 <__srefill_r+0x88>
1000840a:	0028      	movs	r0, r5
1000840c:	f7ff fca6 	bl	10007d5c <_free_r>
10008410:	2300      	movs	r3, #0
10008412:	6323      	str	r3, [r4, #48]	; 0x30
10008414:	6be3      	ldr	r3, [r4, #60]	; 0x3c
10008416:	6063      	str	r3, [r4, #4]
10008418:	2b00      	cmp	r3, #0
1000841a:	d0d9      	beq.n	100083d0 <__srefill_r+0x48>
1000841c:	6ba3      	ldr	r3, [r4, #56]	; 0x38
1000841e:	2000      	movs	r0, #0
10008420:	6023      	str	r3, [r4, #0]
10008422:	e7ea      	b.n	100083fa <__srefill_r+0x72>
10008424:	f7ff fc0c 	bl	10007c40 <__sinit>
10008428:	e7b6      	b.n	10008398 <__srefill_r+0x10>
1000842a:	2301      	movs	r3, #1
1000842c:	81a3      	strh	r3, [r4, #12]
1000842e:	4b1d      	ldr	r3, [pc, #116]	; (100084a4 <__srefill_r+0x11c>)
10008430:	491d      	ldr	r1, [pc, #116]	; (100084a8 <__srefill_r+0x120>)
10008432:	6818      	ldr	r0, [r3, #0]
10008434:	f7ff fd74 	bl	10007f20 <_fwalk>
10008438:	2309      	movs	r3, #9
1000843a:	81a7      	strh	r7, [r4, #12]
1000843c:	401e      	ands	r6, r3
1000843e:	2e09      	cmp	r6, #9
10008440:	d1ce      	bne.n	100083e0 <__srefill_r+0x58>
10008442:	0021      	movs	r1, r4
10008444:	0028      	movs	r0, r5
10008446:	f7ff fadf 	bl	10007a08 <__sflush_r>
1000844a:	e7c9      	b.n	100083e0 <__srefill_r+0x58>
1000844c:	0021      	movs	r1, r4
1000844e:	0028      	movs	r0, r5
10008450:	f7ff fb7a 	bl	10007b48 <_fflush_r>
10008454:	2800      	cmp	r0, #0
10008456:	d10f      	bne.n	10008478 <__srefill_r+0xf0>
10008458:	89a2      	ldrh	r2, [r4, #12]
1000845a:	60a0      	str	r0, [r4, #8]
1000845c:	43b2      	bics	r2, r6
1000845e:	b212      	sxth	r2, r2
10008460:	61a0      	str	r0, [r4, #24]
10008462:	e7b2      	b.n	100083ca <__srefill_r+0x42>
10008464:	0021      	movs	r1, r4
10008466:	0028      	movs	r0, r5
10008468:	f7ff fdfe 	bl	10008068 <__smakebuf_r>
1000846c:	e7b3      	b.n	100083d6 <__srefill_r+0x4e>
1000846e:	2240      	movs	r2, #64	; 0x40
10008470:	89a3      	ldrh	r3, [r4, #12]
10008472:	6060      	str	r0, [r4, #4]
10008474:	4313      	orrs	r3, r2
10008476:	81a3      	strh	r3, [r4, #12]
10008478:	2001      	movs	r0, #1
1000847a:	4240      	negs	r0, r0
1000847c:	e7bd      	b.n	100083fa <__srefill_r+0x72>
1000847e:	2b00      	cmp	r3, #0
10008480:	d1f5      	bne.n	1000846e <__srefill_r+0xe6>
10008482:	2220      	movs	r2, #32
10008484:	89a3      	ldrh	r3, [r4, #12]
10008486:	3801      	subs	r0, #1
10008488:	4313      	orrs	r3, r2
1000848a:	81a3      	strh	r3, [r4, #12]
1000848c:	e7b5      	b.n	100083fa <__srefill_r+0x72>
1000848e:	2309      	movs	r3, #9
10008490:	602b      	str	r3, [r5, #0]
10008492:	2340      	movs	r3, #64	; 0x40
10008494:	2001      	movs	r0, #1
10008496:	431a      	orrs	r2, r3
10008498:	81a2      	strh	r2, [r4, #12]
1000849a:	4240      	negs	r0, r0
1000849c:	e7ad      	b.n	100083fa <__srefill_r+0x72>
1000849e:	46c0      	nop			; (mov r8, r8)
100084a0:	ffffdfff 	.word	0xffffdfff
100084a4:	10008df0 	.word	0x10008df0
100084a8:	1000836d 	.word	0x1000836d

100084ac <_close>:
100084ac:	2258      	movs	r2, #88	; 0x58
100084ae:	2001      	movs	r0, #1
100084b0:	4b01      	ldr	r3, [pc, #4]	; (100084b8 <_close+0xc>)
100084b2:	4240      	negs	r0, r0
100084b4:	601a      	str	r2, [r3, #0]
100084b6:	4770      	bx	lr
100084b8:	20002080 	.word	0x20002080

100084bc <_fstat>:
100084bc:	2258      	movs	r2, #88	; 0x58
100084be:	2001      	movs	r0, #1
100084c0:	4b01      	ldr	r3, [pc, #4]	; (100084c8 <_fstat+0xc>)
100084c2:	4240      	negs	r0, r0
100084c4:	601a      	str	r2, [r3, #0]
100084c6:	4770      	bx	lr
100084c8:	20002080 	.word	0x20002080

100084cc <_isatty>:
100084cc:	2258      	movs	r2, #88	; 0x58
100084ce:	4b02      	ldr	r3, [pc, #8]	; (100084d8 <_isatty+0xc>)
100084d0:	2000      	movs	r0, #0
100084d2:	601a      	str	r2, [r3, #0]
100084d4:	4770      	bx	lr
100084d6:	46c0      	nop			; (mov r8, r8)
100084d8:	20002080 	.word	0x20002080

100084dc <_lseek>:
100084dc:	2258      	movs	r2, #88	; 0x58
100084de:	2001      	movs	r0, #1
100084e0:	4b01      	ldr	r3, [pc, #4]	; (100084e8 <_lseek+0xc>)
100084e2:	4240      	negs	r0, r0
100084e4:	601a      	str	r2, [r3, #0]
100084e6:	4770      	bx	lr
100084e8:	20002080 	.word	0x20002080

100084ec <_fini>:
100084ec:	b5f8      	push	{r3, r4, r5, r6, r7, lr}
100084ee:	46c0      	nop			; (mov r8, r8)

100084f0 <__sem_release_veneer>:
100084f0:	b401      	push	{r0}
100084f2:	4802      	ldr	r0, [pc, #8]	; (100084fc <__sem_release_veneer+0xc>)
100084f4:	4684      	mov	ip, r0
100084f6:	bc01      	pop	{r0}
100084f8:	4760      	bx	ip
100084fa:	bf00      	nop
100084fc:	20000105 	.word	0x20000105

10008500 <__mutex_exit_veneer>:
10008500:	b401      	push	{r0}
10008502:	4802      	ldr	r0, [pc, #8]	; (1000850c <__mutex_exit_veneer+0xc>)
10008504:	4684      	mov	ip, r0
10008506:	bc01      	pop	{r0}
10008508:	4760      	bx	ip
1000850a:	bf00      	nop
1000850c:	20000275 	.word	0x20000275

10008510 <____aeabi_ldiv0_veneer>:
10008510:	b401      	push	{r0}
10008512:	4802      	ldr	r0, [pc, #8]	; (1000851c <____aeabi_ldiv0_veneer+0xc>)
10008514:	4684      	mov	ip, r0
10008516:	bc01      	pop	{r0}
10008518:	4760      	bx	ip
1000851a:	bf00      	nop
1000851c:	2000029d 	.word	0x2000029d

10008520 <____aeabi_idiv0_veneer>:
10008520:	b401      	push	{r0}
10008522:	4802      	ldr	r0, [pc, #8]	; (1000852c <____aeabi_idiv0_veneer+0xc>)
10008524:	4684      	mov	ip, r0
10008526:	bc01      	pop	{r0}
10008528:	4760      	bx	ip
1000852a:	bf00      	nop
1000852c:	2000029d 	.word	0x2000029d

10008530 <__sem_acquire_blocking_veneer>:
10008530:	b401      	push	{r0}
10008532:	4802      	ldr	r0, [pc, #8]	; (1000853c <__sem_acquire_blocking_veneer+0xc>)
10008534:	4684      	mov	ip, r0
10008536:	bc01      	pop	{r0}
10008538:	4760      	bx	ip
1000853a:	bf00      	nop
1000853c:	200000c1 	.word	0x200000c1

10008540 <__mutex_try_enter_veneer>:
10008540:	b401      	push	{r0}
10008542:	4802      	ldr	r0, [pc, #8]	; (1000854c <__mutex_try_enter_veneer+0xc>)
10008544:	4684      	mov	ip, r0
10008546:	bc01      	pop	{r0}
10008548:	4760      	bx	ip
1000854a:	bf00      	nop
1000854c:	20000191 	.word	0x20000191

10008550 <__mutex_enter_timeout_ms_veneer>:
10008550:	b401      	push	{r0}
10008552:	4802      	ldr	r0, [pc, #8]	; (1000855c <__mutex_enter_timeout_ms_veneer+0xc>)
10008554:	4684      	mov	ip, r0
10008556:	bc01      	pop	{r0}
10008558:	4760      	bx	ip
1000855a:	bf00      	nop
1000855c:	200001dd 	.word	0x200001dd

10008560 <__mutex_enter_blocking_veneer>:
10008560:	b401      	push	{r0}
10008562:	4802      	ldr	r0, [pc, #8]	; (1000856c <__mutex_enter_blocking_veneer+0xc>)
10008564:	4684      	mov	ip, r0
10008566:	bc01      	pop	{r0}
10008568:	4760      	bx	ip
1000856a:	bf00      	nop
1000856c:	20000141 	.word	0x20000141

Disassembly of section .data:

200000c0 <sem_acquire_blocking>:
200000c0:	b510      	push	{r4, lr}
200000c2:	2400      	movs	r4, #0
200000c4:	6802      	ldr	r2, [r0, #0]
200000c6:	f3ef 8110 	mrs	r1, PRIMASK
200000ca:	b672      	cpsid	i
200000cc:	6813      	ldr	r3, [r2, #0]
200000ce:	2b00      	cmp	r3, #0
200000d0:	d0fc      	beq.n	200000cc <sem_acquire_blocking+0xc>
200000d2:	f3bf 8f5f 	dmb	sy
200000d6:	2204      	movs	r2, #4
200000d8:	5e83      	ldrsh	r3, [r0, r2]
200000da:	2b00      	cmp	r3, #0
200000dc:	dd0a      	ble.n	200000f4 <sem_acquire_blocking+0x34>
200000de:	3b01      	subs	r3, #1
200000e0:	8083      	strh	r3, [r0, #4]
200000e2:	bf40      	sev
200000e4:	6803      	ldr	r3, [r0, #0]
200000e6:	f3bf 8f5f 	dmb	sy
200000ea:	2200      	movs	r2, #0
200000ec:	601a      	str	r2, [r3, #0]
200000ee:	f381 8810 	msr	PRIMASK, r1
200000f2:	bd10      	pop	{r4, pc}
200000f4:	6803      	ldr	r3, [r0, #0]
200000f6:	f3bf 8f5f 	dmb	sy
200000fa:	601c      	str	r4, [r3, #0]
200000fc:	f381 8810 	msr	PRIMASK, r1
20000100:	bf20      	wfe
20000102:	e7df      	b.n	200000c4 <sem_acquire_blocking+0x4>

20000104 <sem_release>:
20000104:	b510      	push	{r4, lr}
20000106:	0003      	movs	r3, r0
20000108:	6801      	ldr	r1, [r0, #0]
2000010a:	f3ef 8410 	mrs	r4, PRIMASK
2000010e:	b672      	cpsid	i
20000110:	680a      	ldr	r2, [r1, #0]
20000112:	2a00      	cmp	r2, #0
20000114:	d0fc      	beq.n	20000110 <sem_release+0xc>
20000116:	f3bf 8f5f 	dmb	sy
2000011a:	2104      	movs	r1, #4
2000011c:	5e5a      	ldrsh	r2, [r3, r1]
2000011e:	2006      	movs	r0, #6
20000120:	5e19      	ldrsh	r1, [r3, r0]
20000122:	2000      	movs	r0, #0
20000124:	4291      	cmp	r1, r2
20000126:	dd03      	ble.n	20000130 <sem_release+0x2c>
20000128:	3201      	adds	r2, #1
2000012a:	809a      	strh	r2, [r3, #4]
2000012c:	bf40      	sev
2000012e:	3001      	adds	r0, #1
20000130:	681b      	ldr	r3, [r3, #0]
20000132:	f3bf 8f5f 	dmb	sy
20000136:	2200      	movs	r2, #0
20000138:	601a      	str	r2, [r3, #0]
2000013a:	f384 8810 	msr	PRIMASK, r4
2000013e:	bd10      	pop	{r4, pc}

20000140 <mutex_enter_blocking>:
20000140:	b510      	push	{r4, lr}
20000142:	6802      	ldr	r2, [r0, #0]
20000144:	2400      	movs	r4, #0
20000146:	f3ef 8110 	mrs	r1, PRIMASK
2000014a:	b672      	cpsid	i
2000014c:	6813      	ldr	r3, [r2, #0]
2000014e:	2b00      	cmp	r3, #0
20000150:	d0fc      	beq.n	2000014c <mutex_enter_blocking+0xc>
20000152:	f3bf 8f5f 	dmb	sy
20000156:	7903      	ldrb	r3, [r0, #4]
20000158:	2b00      	cmp	r3, #0
2000015a:	d00b      	beq.n	20000174 <mutex_enter_blocking+0x34>
2000015c:	6803      	ldr	r3, [r0, #0]
2000015e:	f3bf 8f5f 	dmb	sy
20000162:	601c      	str	r4, [r3, #0]
20000164:	f381 8810 	msr	PRIMASK, r1
20000168:	bf20      	wfe
2000016a:	6802      	ldr	r2, [r0, #0]
2000016c:	f3ef 8110 	mrs	r1, PRIMASK
20000170:	b672      	cpsid	i
20000172:	e7eb      	b.n	2000014c <mutex_enter_blocking+0xc>
20000174:	2201      	movs	r2, #1
20000176:	7102      	strb	r2, [r0, #4]
20000178:	22d0      	movs	r2, #208	; 0xd0
2000017a:	0612      	lsls	r2, r2, #24
2000017c:	6812      	ldr	r2, [r2, #0]
2000017e:	7142      	strb	r2, [r0, #5]
20000180:	6802      	ldr	r2, [r0, #0]
20000182:	f3bf 8f5f 	dmb	sy
20000186:	6013      	str	r3, [r2, #0]
20000188:	f381 8810 	msr	PRIMASK, r1
2000018c:	bd10      	pop	{r4, pc}
2000018e:	46c0      	nop			; (mov r8, r8)

20000190 <mutex_try_enter>:
20000190:	0003      	movs	r3, r0
20000192:	b510      	push	{r4, lr}
20000194:	6800      	ldr	r0, [r0, #0]
20000196:	f3ef 8410 	mrs	r4, PRIMASK
2000019a:	b672      	cpsid	i
2000019c:	6802      	ldr	r2, [r0, #0]
2000019e:	2a00      	cmp	r2, #0
200001a0:	d0fc      	beq.n	2000019c <mutex_try_enter+0xc>
200001a2:	f3bf 8f5f 	dmb	sy
200001a6:	791a      	ldrb	r2, [r3, #4]
200001a8:	2a00      	cmp	r2, #0
200001aa:	d00d      	beq.n	200001c8 <mutex_try_enter+0x38>
200001ac:	2900      	cmp	r1, #0
200001ae:	d013      	beq.n	200001d8 <mutex_try_enter+0x48>
200001b0:	2205      	movs	r2, #5
200001b2:	2000      	movs	r0, #0
200001b4:	569a      	ldrsb	r2, [r3, r2]
200001b6:	600a      	str	r2, [r1, #0]
200001b8:	681b      	ldr	r3, [r3, #0]
200001ba:	f3bf 8f5f 	dmb	sy
200001be:	2200      	movs	r2, #0
200001c0:	601a      	str	r2, [r3, #0]
200001c2:	f384 8810 	msr	PRIMASK, r4
200001c6:	bd10      	pop	{r4, pc}
200001c8:	3201      	adds	r2, #1
200001ca:	711a      	strb	r2, [r3, #4]
200001cc:	22d0      	movs	r2, #208	; 0xd0
200001ce:	0612      	lsls	r2, r2, #24
200001d0:	6812      	ldr	r2, [r2, #0]
200001d2:	2001      	movs	r0, #1
200001d4:	715a      	strb	r2, [r3, #5]
200001d6:	e7ef      	b.n	200001b8 <mutex_try_enter+0x28>
200001d8:	2000      	movs	r0, #0
200001da:	e7ed      	b.n	200001b8 <mutex_try_enter+0x28>

200001dc <mutex_enter_timeout_ms>:
200001dc:	b5f0      	push	{r4, r5, r6, r7, lr}
200001de:	46c6      	mov	lr, r8
200001e0:	b500      	push	{lr}
200001e2:	000c      	movs	r4, r1
200001e4:	4680      	mov	r8, r0
200001e6:	f000 f85b 	bl	200002a0 <__time_us_64_veneer>
200001ea:	22fa      	movs	r2, #250	; 0xfa
200001ec:	0006      	movs	r6, r0
200001ee:	000f      	movs	r7, r1
200001f0:	0020      	movs	r0, r4
200001f2:	2300      	movs	r3, #0
200001f4:	2100      	movs	r1, #0
200001f6:	0092      	lsls	r2, r2, #2
200001f8:	f000 f862 	bl	200002c0 <____wrap___aeabi_lmul_veneer>
200001fc:	1980      	adds	r0, r0, r6
200001fe:	4179      	adcs	r1, r7
20000200:	0004      	movs	r4, r0
20000202:	000d      	movs	r5, r1
20000204:	428f      	cmp	r7, r1
20000206:	d831      	bhi.n	2000026c <mutex_enter_timeout_ms+0x90>
20000208:	d02e      	beq.n	20000268 <mutex_enter_timeout_ms+0x8c>
2000020a:	2600      	movs	r6, #0
2000020c:	4643      	mov	r3, r8
2000020e:	681b      	ldr	r3, [r3, #0]
20000210:	f3ef 8210 	mrs	r2, PRIMASK
20000214:	b672      	cpsid	i
20000216:	6819      	ldr	r1, [r3, #0]
20000218:	2900      	cmp	r1, #0
2000021a:	d0fc      	beq.n	20000216 <mutex_enter_timeout_ms+0x3a>
2000021c:	f3bf 8f5f 	dmb	sy
20000220:	4643      	mov	r3, r8
20000222:	791b      	ldrb	r3, [r3, #4]
20000224:	2b00      	cmp	r3, #0
20000226:	d00e      	beq.n	20000246 <mutex_enter_timeout_ms+0x6a>
20000228:	4643      	mov	r3, r8
2000022a:	681b      	ldr	r3, [r3, #0]
2000022c:	f3bf 8f5f 	dmb	sy
20000230:	601e      	str	r6, [r3, #0]
20000232:	f382 8810 	msr	PRIMASK, r2
20000236:	0020      	movs	r0, r4
20000238:	0029      	movs	r1, r5
2000023a:	f000 f839 	bl	200002b0 <__best_effort_wfe_or_timeout_veneer>
2000023e:	2800      	cmp	r0, #0
20000240:	d0e4      	beq.n	2000020c <mutex_enter_timeout_ms+0x30>
20000242:	2000      	movs	r0, #0
20000244:	e00d      	b.n	20000262 <mutex_enter_timeout_ms+0x86>
20000246:	4640      	mov	r0, r8
20000248:	2101      	movs	r1, #1
2000024a:	7101      	strb	r1, [r0, #4]
2000024c:	21d0      	movs	r1, #208	; 0xd0
2000024e:	0609      	lsls	r1, r1, #24
20000250:	6809      	ldr	r1, [r1, #0]
20000252:	7141      	strb	r1, [r0, #5]
20000254:	6801      	ldr	r1, [r0, #0]
20000256:	f3bf 8f5f 	dmb	sy
2000025a:	600b      	str	r3, [r1, #0]
2000025c:	f382 8810 	msr	PRIMASK, r2
20000260:	2001      	movs	r0, #1
20000262:	bc04      	pop	{r2}
20000264:	4690      	mov	r8, r2
20000266:	bdf0      	pop	{r4, r5, r6, r7, pc}
20000268:	4286      	cmp	r6, r0
2000026a:	d9ce      	bls.n	2000020a <mutex_enter_timeout_ms+0x2e>
2000026c:	2401      	movs	r4, #1
2000026e:	4264      	negs	r4, r4
20000270:	17e5      	asrs	r5, r4, #31
20000272:	e7ca      	b.n	2000020a <mutex_enter_timeout_ms+0x2e>

20000274 <mutex_exit>:
20000274:	6802      	ldr	r2, [r0, #0]
20000276:	f3ef 8110 	mrs	r1, PRIMASK
2000027a:	b672      	cpsid	i
2000027c:	6813      	ldr	r3, [r2, #0]
2000027e:	2b00      	cmp	r3, #0
20000280:	d0fc      	beq.n	2000027c <mutex_exit+0x8>
20000282:	f3bf 8f5f 	dmb	sy
20000286:	2300      	movs	r3, #0
20000288:	7103      	strb	r3, [r0, #4]
2000028a:	bf40      	sev
2000028c:	6802      	ldr	r2, [r0, #0]
2000028e:	f3bf 8f5f 	dmb	sy
20000292:	6013      	str	r3, [r2, #0]
20000294:	f381 8810 	msr	PRIMASK, r1
20000298:	4770      	bx	lr
2000029a:	46c0      	nop			; (mov r8, r8)

2000029c <__aeabi_idiv0>:
2000029c:	4770      	bx	lr
2000029e:	46c0      	nop			; (mov r8, r8)

200002a0 <__time_us_64_veneer>:
200002a0:	b401      	push	{r0}
200002a2:	4802      	ldr	r0, [pc, #8]	; (200002ac <__time_us_64_veneer+0xc>)
200002a4:	4684      	mov	ip, r0
200002a6:	bc01      	pop	{r0}
200002a8:	4760      	bx	ip
200002aa:	bf00      	nop
200002ac:	10004df1 	.word	0x10004df1

200002b0 <__best_effort_wfe_or_timeout_veneer>:
200002b0:	b401      	push	{r0}
200002b2:	4802      	ldr	r0, [pc, #8]	; (200002bc <__best_effort_wfe_or_timeout_veneer+0xc>)
200002b4:	4684      	mov	ip, r0
200002b6:	bc01      	pop	{r0}
200002b8:	4760      	bx	ip
200002ba:	bf00      	nop
200002bc:	10004cdd 	.word	0x10004cdd

200002c0 <____wrap___aeabi_lmul_veneer>:
200002c0:	b401      	push	{r0}
200002c2:	4802      	ldr	r0, [pc, #8]	; (200002cc <____wrap___aeabi_lmul_veneer+0xc>)
200002c4:	4684      	mov	ip, r0
200002c6:	bc01      	pop	{r0}
200002c8:	4760      	bx	ip
200002ca:	bf00      	nop
200002cc:	1000674d 	.word	0x1000674d

200002d0 <stdio_uart>:
200002d0:	10000411 00000000 1000044d 00000000     ........M.......
200002e0:	00000100                                ....

200002e4 <stdio_usb>:
200002e4:	10002019 00000000 10001fb1 00000000     . ..............
200002f4:	00000100                                ....

200002f8 <ep_dir_string>:
200002f8:	100085f0 100085d0                       ........

20000300 <_usbd_qdef>:
20000300:	20001d94 000c0010 00000000 00000000     ... ............
	...

20000320 <irq_handler_chain_slots>:
20000320:	00000000 	.word	0x00000000
20000324:	00010000 	.word	0x00010000
	...
20000330:	00020000 	.word	0x00020000
	...
2000033c:	00030000 	.word	0x00030000
	...
20000348:	00ff0000 	.word	0x00ff0000
2000034c:	00000000 	.word	0x00000000

20000350 <irq_handler_chain_first_slot>:
20000350:	b500      	push	{lr}
20000352:	6848      	ldr	r0, [r1, #4]
20000354:	3101      	adds	r1, #1
20000356:	468e      	mov	lr, r1
20000358:	4700      	bx	r0

2000035a <irq_handler_chain_remove_tail>:
2000035a:	4670      	mov	r0, lr
2000035c:	3809      	subs	r0, #9
2000035e:	4901      	ldr	r1, [pc, #4]	; (20000364 <irq_handler_chain_remove_tail+0xa>)
20000360:	4788      	blx	r1
20000362:	bd00      	pop	{pc}
20000364:	1000433d 	.word	0x1000433d

20000368 <striped_spin_lock_num>:
20000368:	00000010 00000000                       ........

20000370 <aeabi_bits_funcs>:
20000370:	00003350 	.word	0x00003350
20000374:	0000334c 	.word	0x0000334c
20000378:	00003354 	.word	0x00003354
2000037c:	00003352 	.word	0x00003352

20000380 <aeabi_bits_funcs_end>:
20000380:	0000534d 	.word	0x0000534d
20000384:	0000434d 	.word	0x0000434d
20000388:	00003453 	.word	0x00003453
2000038c:	00003443 	.word	0x00003443

20000390 <_impure_ptr>:
20000390:	20000398 00000000                       ... ....

20000398 <impure_data>:
20000398:	00000000 20000684 200006ec 20000754     ....... ... T.. 
	...
20000440:	00000001 00000000 abcd330e e66d1234     .........3..4.m.
20000450:	0005deec 0000000b 00000000 00000000     ................
	...

200007c0 <__malloc_av_>:
	...
200007c8:	200007c0 200007c0 200007c8 200007c8     ... ... ... ... 
200007d8:	200007d0 200007d0 200007d8 200007d8     ... ... ... ... 
200007e8:	200007e0 200007e0 200007e8 200007e8     ... ... ... ... 
200007f8:	200007f0 200007f0 200007f8 200007f8     ... ... ... ... 
20000808:	20000800 20000800 20000808 20000808     ... ... ... ... 
20000818:	20000810 20000810 20000818 20000818     ... ... ... ... 
20000828:	20000820 20000820 20000828 20000828      ..  .. (.. (.. 
20000838:	20000830 20000830 20000838 20000838     0.. 0.. 8.. 8.. 
20000848:	20000840 20000840 20000848 20000848     @.. @.. H.. H.. 
20000858:	20000850 20000850 20000858 20000858     P.. P.. X.. X.. 
20000868:	20000860 20000860 20000868 20000868     `.. `.. h.. h.. 
20000878:	20000870 20000870 20000878 20000878     p.. p.. x.. x.. 
20000888:	20000880 20000880 20000888 20000888     ... ... ... ... 
20000898:	20000890 20000890 20000898 20000898     ... ... ... ... 
200008a8:	200008a0 200008a0 200008a8 200008a8     ... ... ... ... 
200008b8:	200008b0 200008b0 200008b8 200008b8     ... ... ... ... 
200008c8:	200008c0 200008c0 200008c8 200008c8     ... ... ... ... 
200008d8:	200008d0 200008d0 200008d8 200008d8     ... ... ... ... 
200008e8:	200008e0 200008e0 200008e8 200008e8     ... ... ... ... 
200008f8:	200008f0 200008f0 200008f8 200008f8     ... ... ... ... 
20000908:	20000900 20000900 20000908 20000908     ... ... ... ... 
20000918:	20000910 20000910 20000918 20000918     ... ... ... ... 
20000928:	20000920 20000920 20000928 20000928      ..  .. (.. (.. 
20000938:	20000930 20000930 20000938 20000938     0.. 0.. 8.. 8.. 
20000948:	20000940 20000940 20000948 20000948     @.. @.. H.. H.. 
20000958:	20000950 20000950 20000958 20000958     P.. P.. X.. X.. 
20000968:	20000960 20000960 20000968 20000968     `.. `.. h.. h.. 
20000978:	20000970 20000970 20000978 20000978     p.. p.. x.. x.. 
20000988:	20000980 20000980 20000988 20000988     ... ... ... ... 
20000998:	20000990 20000990 20000998 20000998     ... ... ... ... 
200009a8:	200009a0 200009a0 200009a8 200009a8     ... ... ... ... 
200009b8:	200009b0 200009b0 200009b8 200009b8     ... ... ... ... 
200009c8:	200009c0 200009c0 200009c8 200009c8     ... ... ... ... 
200009d8:	200009d0 200009d0 200009d8 200009d8     ... ... ... ... 
200009e8:	200009e0 200009e0 200009e8 200009e8     ... ... ... ... 
200009f8:	200009f0 200009f0 200009f8 200009f8     ... ... ... ... 
20000a08:	20000a00 20000a00 20000a08 20000a08     ... ... ... ... 
20000a18:	20000a10 20000a10 20000a18 20000a18     ... ... ... ... 
20000a28:	20000a20 20000a20 20000a28 20000a28      ..  .. (.. (.. 
20000a38:	20000a30 20000a30 20000a38 20000a38     0.. 0.. 8.. 8.. 
20000a48:	20000a40 20000a40 20000a48 20000a48     @.. @.. H.. H.. 
20000a58:	20000a50 20000a50 20000a58 20000a58     P.. P.. X.. X.. 
20000a68:	20000a60 20000a60 20000a68 20000a68     `.. `.. h.. h.. 
20000a78:	20000a70 20000a70 20000a78 20000a78     p.. p.. x.. x.. 
20000a88:	20000a80 20000a80 20000a88 20000a88     ... ... ... ... 
20000a98:	20000a90 20000a90 20000a98 20000a98     ... ... ... ... 
20000aa8:	20000aa0 20000aa0 20000aa8 20000aa8     ... ... ... ... 
20000ab8:	20000ab0 20000ab0 20000ab8 20000ab8     ... ... ... ... 
20000ac8:	20000ac0 20000ac0 20000ac8 20000ac8     ... ... ... ... 
20000ad8:	20000ad0 20000ad0 20000ad8 20000ad8     ... ... ... ... 
20000ae8:	20000ae0 20000ae0 20000ae8 20000ae8     ... ... ... ... 
20000af8:	20000af0 20000af0 20000af8 20000af8     ... ... ... ... 
20000b08:	20000b00 20000b00 20000b08 20000b08     ... ... ... ... 
20000b18:	20000b10 20000b10 20000b18 20000b18     ... ... ... ... 
20000b28:	20000b20 20000b20 20000b28 20000b28      ..  .. (.. (.. 
20000b38:	20000b30 20000b30 20000b38 20000b38     0.. 0.. 8.. 8.. 
20000b48:	20000b40 20000b40 20000b48 20000b48     @.. @.. H.. H.. 
20000b58:	20000b50 20000b50 20000b58 20000b58     P.. P.. X.. X.. 
20000b68:	20000b60 20000b60 20000b68 20000b68     `.. `.. h.. h.. 
20000b78:	20000b70 20000b70 20000b78 20000b78     p.. p.. x.. x.. 
20000b88:	20000b80 20000b80 20000b88 20000b88     ... ... ... ... 
20000b98:	20000b90 20000b90 20000b98 20000b98     ... ... ... ... 
20000ba8:	20000ba0 20000ba0 20000ba8 20000ba8     ... ... ... ... 
20000bb8:	20000bb0 20000bb0 20000bb8 20000bb8     ... ... ... ... 

20000bc8 <__malloc_sbrk_base>:
20000bc8:	ffffffff                                ....

20000bcc <__malloc_trim_threshold>:
20000bcc:	00020000                                ....

20000bd0 <print_mutex>:
	...

20000bd8 <__mutex_array_end>:
20000bd8:	10006821 	.word	0x10006821
20000bdc:	100059d5 	.word	0x100059d5
20000be0:	100060c9 	.word	0x100060c9
20000be4:	10006781 	.word	0x10006781

20000be8 <__frame_dummy_init_array_entry>:
20000be8:	10000301 100003f5 10007201 100072e9     .........r...r..
